Warning[w6]: Type conflict for external/entry "TestMyCode", in module r_main against external/entry in module skumar15_graphics; prototyped function vs K&R function
  /* In module r_main: */
  /* Function, args 0, attr 0 */
  void TestMyCode(void);
  /* In module skumar15_graphics: */
  /* K&R Function, args 0, attr 0 */
  void TestMyCode();
################################################################################
#                                                                              #
#      IAR Universal Linker V5.7.1.40                                          #
#                                                                              #
#           Link time     =  17/Apr/2014  13:06:23                             #
#           Target CPU    =  RL78                                              #
#           List file     =  "D:\NCSU\Courses\ECE 561 Embedded System Design\P #
#                            roject 3\Project3\Project3\Project3Code\Debug\Lis #
#                            t\LCDDemo.map"                                    #
#           Output file 1 =  "D:\NCSU\Courses\ECE 561 Embedded System Design\P #
#                            roject 3\Project3\Project3\Project3Code\Debug\Exe #
#                            \LCDDemo.d87"                                     #
#                            Format: debug                                     #
#                            UBROF version 10.0.6                              #
#                            Using library modules for C-SPY (-rt)             #
#           Command line  =  "D:\NCSU\Courses\ECE 561 Embedded System Design\P #
#                            roject 3\Project3\Project3\Project3Code\Debug\Obj #
#                            \LibReplacement.r87"                              #
#                            "D:\NCSU\Courses\ECE 561 Embedded System Design\P #
#                            roject 3\Project3\Project3\Project3Code\Debug\Obj #
#                            \RDKRL78_spi.r87"                                 #
#                            "D:\NCSU\Courses\ECE 561 Embedded System Design\P #
#                            roject 3\Project3\Project3\Project3Code\Debug\Obj #
#                            \ST7579_LCD.r87"                                  #
#                            "D:\NCSU\Courses\ECE 561 Embedded System Design\P #
#                            roject 3\Project3\Project3\Project3Code\Debug\Obj #
#                            \YRDKRL78_LCD.r87"                                #
#                            "D:\NCSU\Courses\ECE 561 Embedded System Design\P #
#                            roject 3\Project3\Project3\Project3Code\Debug\Obj #
#                            \bitmap_font.r87"                                 #
#                            "D:\NCSU\Courses\ECE 561 Embedded System Design\P #
#                            roject 3\Project3\Project3\Project3Code\Debug\Obj #
#                            \fbuf_graphics.r87"                               #
#                            "D:\NCSU\Courses\ECE 561 Embedded System Design\P #
#                            roject 3\Project3\Project3\Project3Code\Debug\Obj #
#                            \font_8x16.r87"                                   #
#                            "D:\NCSU\Courses\ECE 561 Embedded System Design\P #
#                            roject 3\Project3\Project3\Project3Code\Debug\Obj #
#                            \font_8x8.r87"                                    #
#                            "D:\NCSU\Courses\ECE 561 Embedded System Design\P #
#                            roject 3\Project3\Project3\Project3Code\Debug\Obj #
#                            \font_helvr10.r87"                                #
#                            "D:\NCSU\Courses\ECE 561 Embedded System Design\P #
#                            roject 3\Project3\Project3\Project3Code\Debug\Obj #
#                            \font_logos.r87"                                  #
#                            "D:\NCSU\Courses\ECE 561 Embedded System Design\P #
#                            roject 3\Project3\Project3\Project3Code\Debug\Obj #
#                            \font_winfreesystem14x16.r87"                     #
#                            "D:\NCSU\Courses\ECE 561 Embedded System Design\P #
#                            roject 3\Project3\Project3\Project3Code\Debug\Obj #
#                            \font_x5x7.r87"                                   #
#                            "D:\NCSU\Courses\ECE 561 Embedded System Design\P #
#                            roject 3\Project3\Project3\Project3Code\Debug\Obj #
#                            \font_x6x13.r87"                                  #
#                            "D:\NCSU\Courses\ECE 561 Embedded System Design\P #
#                            roject 3\Project3\Project3\Project3Code\Debug\Obj #
#                            \glyph.r87"                                       #
#                            "D:\NCSU\Courses\ECE 561 Embedded System Design\P #
#                            roject 3\Project3\Project3\Project3Code\Debug\Obj #
#                            \glyph_register.r87"                              #
#                            "D:\NCSU\Courses\ECE 561 Embedded System Design\P #
#                            roject 3\Project3\Project3\Project3Code\Debug\Obj #
#                            \lcd.r87"                                         #
#                            "D:\NCSU\Courses\ECE 561 Embedded System Design\P #
#                            roject 3\Project3\Project3\Project3Code\Debug\Obj #
#                            \profile.r87"                                     #
#                            "D:\NCSU\Courses\ECE 561 Embedded System Design\P #
#                            roject 3\Project3\Project3\Project3Code\Debug\Obj #
#                            \r_cg_adc.r87"                                    #
#                            "D:\NCSU\Courses\ECE 561 Embedded System Design\P #
#                            roject 3\Project3\Project3\Project3Code\Debug\Obj #
#                            \r_cg_adc_user.r87"                               #
#                            "D:\NCSU\Courses\ECE 561 Embedded System Design\P #
#                            roject 3\Project3\Project3\Project3Code\Debug\Obj #
#                            \r_cg_cgc.r87"                                    #
#                            "D:\NCSU\Courses\ECE 561 Embedded System Design\P #
#                            roject 3\Project3\Project3\Project3Code\Debug\Obj #
#                            \r_cg_cgc_user.r87"                               #
#                            "D:\NCSU\Courses\ECE 561 Embedded System Design\P #
#                            roject 3\Project3\Project3\Project3Code\Debug\Obj #
#                            \r_cg_it.r87"                                     #
#                            "D:\NCSU\Courses\ECE 561 Embedded System Design\P #
#                            roject 3\Project3\Project3\Project3Code\Debug\Obj #
#                            \r_cg_it_user.r87"                                #
#                            "D:\NCSU\Courses\ECE 561 Embedded System Design\P #
#                            roject 3\Project3\Project3\Project3Code\Debug\Obj #
#                            \r_cg_port.r87"                                   #
#                            "D:\NCSU\Courses\ECE 561 Embedded System Design\P #
#                            roject 3\Project3\Project3\Project3Code\Debug\Obj #
#                            \r_cg_port_user.r87"                              #
#                            "D:\NCSU\Courses\ECE 561 Embedded System Design\P #
#                            roject 3\Project3\Project3\Project3Code\Debug\Obj #
#                            \r_cg_serial.r87"                                 #
#                            "D:\NCSU\Courses\ECE 561 Embedded System Design\P #
#                            roject 3\Project3\Project3\Project3Code\Debug\Obj #
#                            \r_cg_serial_user.r87"                            #
#                            "D:\NCSU\Courses\ECE 561 Embedded System Design\P #
#                            roject 3\Project3\Project3\Project3Code\Debug\Obj #
#                            \r_cg_timer.r87"                                  #
#                            "D:\NCSU\Courses\ECE 561 Embedded System Design\P #
#                            roject 3\Project3\Project3\Project3Code\Debug\Obj #
#                            \r_cg_timer_user.r87"                             #
#                            "D:\NCSU\Courses\ECE 561 Embedded System Design\P #
#                            roject 3\Project3\Project3\Project3Code\Debug\Obj #
#                            \r_main.r87"                                      #
#                            "D:\NCSU\Courses\ECE 561 Embedded System Design\P #
#                            roject 3\Project3\Project3\Project3Code\Debug\Obj #
#                            \r_systeminit.r87"                                #
#                            "D:\NCSU\Courses\ECE 561 Embedded System Design\P #
#                            roject 3\Project3\Project3\Project3Code\Debug\Obj #
#                            \region.r87"                                      #
#                            "D:\NCSU\Courses\ECE 561 Embedded System Design\P #
#                            roject 3\Project3\Project3\Project3Code\Debug\Obj #
#                            \rtc_sched.r87"                                   #
#                            "D:\NCSU\Courses\ECE 561 Embedded System Design\P #
#                            roject 3\Project3\Project3\Project3Code\Debug\Obj #
#                            \skumar15_graphics.r87"                           #
#                            "D:\NCSU\Courses\ECE 561 Embedded System Design\P #
#                            roject 3\Project3\Project3\Project3Code\Debug\Obj #
#                            \tasks.r87"                                       #
#                            -o                                                #
#                            "D:\NCSU\Courses\ECE 561 Embedded System Design\P #
#                            roject 3\Project3\Project3\Project3Code\Debug\Exe #
#                            \LCDDemo.d87"                                     #
#                            -l                                                #
#                            "D:\NCSU\Courses\ECE 561 Embedded System Design\P #
#                            roject 3\Project3\Project3\Project3Code\Debug\Lis #
#                            t\LCDDemo.map"                                    #
#                            -xmsn                                             #
#                            "-IC:\Program Files (x86)\IAR Systems\Embedded Wo #
#                            rkbench 6.5\rl78\LIB\"                            #
#                            -f                                                #
#                            "D:\NCSU\Courses\ECE 561 Embedded System Design\P #
#                            roject 3\Project3\Project3\Project3Code\applilet3 #
#                            _src\md_lnkr5f104pj.xcl"                          #
#                            (-cRL78 -Z(CODE)INTVEC=00000-0007F                #
#                            -Z(CODE)CLTVEC=00080-000BF                        #
#                            -Z(CODE)OPTBYTE=000C0-000C3                       #
#                            -Z(CODE)SECUID=000C4-000CD                        #
#                            -Z(CODE)OCNIROM1=000CE-000D7                      #
#                            -Z(CODE)OCNIROM2=3FE00-3FFFF --segment_mirror     #
#                            @NEAR_CONST=NEAR_CONST_ID                         #
#                            -Z(CONST)NEAR_CONST_ID=_NEAR_CONST_LOCATION_START #
#                            -_NEAR_CONST_LOCATION_END                         #
#                            -Z(DATA)NEAR_CONST=(_NEAR_CONST_LOCATION_START+F0 #
#                            000)-(_NEAR_CONST_LOCATION_END+F0000)             #
#                            -Z(CODE)RCODE,CODE=000D8-0FFFF                    #
#                            -Z(CONST)SWITCH=000D8-0FDFF                       #
#                            -Z(CONST)NEAR_ID=[000D8-0FDFF]/10000              #
#                            -Z(CONST)SADDR_ID=[000D8-0FDFF]/10000             #
#                            -Z(CONST)DIFUNCT=[000D8-0FDFF]/10000              #
#                            -Z(CONST)FAR_ID=[09F00-3FDFF]/10000               #
#                            -Z(DATA)FAR_I=[F9F00-FFE1F]/10000                 #
#                            -P(CONST)FAR_CONST,FSWITCH=[000D8-3FDFF]/10000    #
#                            -P(CODE)XCODE=[000D8-3FDFF]/10000                 #
#                            -Z(DATA)EEPROM=F1000-F2FFF                        #
#                            -Z(DATA)WRKSEG=FFE20-FFEDF                        #
#                            -Z(DATA)SADDR_I,SADDR_Z,SADDR_N=FFE20-FFEDF       #
#                            -Z(DATA)NEAR_I,NEAR_Z,NEAR_N=F9F00-FFE1F          #
#                            -Z(DATA)FAR_Z=[F9F00-FFE1F]/10000                 #
#                            -P(DATA)FAR_N=[F9F00-FFE1F]/10000                 #
#                            -Z(DATA)NEAR_HEAP+_NEAR_HEAP_SIZE=F9F00-FFE1F     #
#                            -Z(DATA)FAR_HEAP+_FAR_HEAP_SIZE=[F9F00-FFE1F]/100 #
#                            00                                                #
#                            -Z(DATA)CSTACK+_CSTACK_SIZE=F9F00-FFE1F) -rt -s   #
#                            __program_start -D_NEAR_CONST_LOCATION=0          #
#                            -D_NEAR_CONST_LOCATION_START=3000                 #
#                            -D_NEAR_CONST_LOCATION_END=9EFF                   #
#                            "C:\Program Files (x86)\IAR Systems\Embedded Work #
#                            bench 6.5\rl78\LIB\dlrl78nn2n.r87"                #
#                            -eHWDIV_8_8_8=?UC_DIV_L01                         #
#                            -eHWMOD_8_8_8=?UC_MOD_L01                         #
#                            -eHWSDIV_8_8_8=?SC_DIV_L01                        #
#                            -eHWSMOD_8_8_8=?SC_MOD_L01                        #
#                            -eHWSDIV_16_16_16=?SI_DIV_L02                     #
#                            -eHWSMOD_16_16_16=?SI_MOD_L02                     #
#                            -eHWSDIV_32_32_32=?SL_DIV_L03                     #
#                            -eHWSMOD_32_32_32=?SL_MOD_L03                     #
#                            -e_PrintfLargeNoMb=_Printf                        #
#                            -e__iar_sin_small=sin -e__iar_cos_small=cos       #
#                            -e__iar_tan_small=tan -e__iar_log_small=log       #
#                            -e__iar_log10_small=log10 -e__iar_exp_small=exp   #
#                            -e__iar_pow_small=pow                             #
#                            -e__iar_Sin_small=__iar_Sin                       #
#                            -e__iar_sin_smallf=sinf -e__iar_cos_smallf=cosf   #
#                            -e__iar_tan_smallf=tanf -e__iar_log_smallf=logf   #
#                            -e__iar_log10_smallf=log10f                       #
#                            -e__iar_exp_smallf=expf -e__iar_pow_smallf=powf   #
#                            -e__iar_Sin_smallf=__iar_Sinf                     #
#                            -e__iar_sin_smalll=sinl -e__iar_cos_smalll=cosl   #
#                            -e__iar_tan_smalll=tanl -e__iar_log_smalll=logl   #
#                            -e__iar_log10_smalll=log10l                       #
#                            -e__iar_exp_smalll=expl -e__iar_pow_smalll=powl   #
#                            -e__iar_Sin_smalll=__iar_Sinl                     #
#                            -D_CSTACK_SIZE=200 -D_NEAR_HEAP_SIZE=100          #
#                            -D_FAR_HEAP_SIZE=1000                             #
#                                                                              #
#                           Copyright (C) 1987-2013 IAR Systems AB.            #
################################################################################





                ****************************************
                *                                      *
                *           CROSS REFERENCE            *
                *                                      *
                ****************************************

       Program entry at :           00000224  Relocatable, from module : ?CSTARTUP




                ****************************************
                *                                      *
                *            RUNTIME MODEL             *
                *                                      *
                ****************************************

  __Heap_Handler             = Basic
  __SystemLibrary            = DLib
  __code_model               = near
  __core                     = rl78_2
  __data_model               = near
  __dlib_file_descriptor     = 0
  __dlib_full_locale_support = 0
  __far_rt_calls             = false
  __rt_version               = 1

                ****************************************
                *                                      *
                *    AUTOMATIC SYMBOL REDIRECTIONS     *
                *                                      *
                ****************************************

                  There are no automatic symbol redirections.



                ****************************************
                *                                      *
                *              MODULE MAP              *
                *                                      *
                ****************************************


  DEFINED ABSOLUTE ENTRIES
    *************************************************************************

  DEFINED ABSOLUTE ENTRIES
  PROGRAM MODULE, NAME : ?ABS_ENTRY_MOD

Absolute parts
           ENTRY                   ADDRESS         REF BY
           =====                   =======         ======
           _FAR_HEAP_SIZE          00001000 
           _NEAR_HEAP_SIZE         00000100 
           _CSTACK_SIZE            00000200 
           _NEAR_CONST_LOCATION_END
                                   00009EFF 
           _NEAR_CONST_LOCATION_START
                                   00003000 
           _NEAR_CONST_LOCATION    00000000        Segment part 3 (?CSTARTUP)
    *************************************************************************

  FILE NAME : D:\NCSU\Courses\ECE 561 Embedded System Design\Project 3\Project3\Project3\Project3Code\Debug\Obj\LibReplacement.r87
  LIBRARY MODULE, NAME : __HWSDIV_16_16_16

  SEGMENTS IN THE MODULE
  ======================
__aseg
  Relative segment, address: 00000000, align: 0
  Segment part 1. ROOT.
    -------------------------------------------------------------------------
RCODE
  Relative segment, address: 000000D8 - 00000118 (0x41 bytes), align: 1
  Segment part 2. ROOT.
           ENTRY                   ADDRESS         REF BY
           =====                   =======         ======
           HWSDIV_16_16_16         000000D8        DrawNeedleFiller (skumar15_graphics)
                                                   div (?div)
           LOCAL                   ADDRESS         
           =====                   =======         
           LABEL1                  000000EC 
           LABEL2                  000000F9 
           LABEL3                  00000113 

    -------------------------------------------------------------------------
  LIBRARY MODULE, NAME : __HWSMOD_16_16_16

  SEGMENTS IN THE MODULE
  ======================
__aseg
  Relative segment, address: 00000000, align: 0
  Segment part 1. ROOT.
    -------------------------------------------------------------------------
RCODE
  Relative segment, address: 0000011A - 00000158 (0x3f bytes), align: 1
  Segment part 2. ROOT.
           ENTRY                   ADDRESS         REF BY
           =====                   =======         ======
           HWSMOD_16_16_16         0000011A        LCDDrawDialBackground (skumar15_graphics)
           LOCAL                   ADDRESS         
           =====                   =======         
           LABEL1                  0000012D 
           LABEL2                  0000013A 
           LABEL3                  00000153 

    -------------------------------------------------------------------------
  LIBRARY MODULE, NAME : __HWSDIV_32_32_32

  SEGMENTS IN THE MODULE
  ======================
__aseg
  Relative segment, address: 00000000, align: 0
  Segment part 1. ROOT.
    -------------------------------------------------------------------------
RCODE
  Relative segment, address: 0000015A - 00000206 (0xad bytes), align: 1
  Segment part 2. ROOT.
           ENTRY                   ADDRESS         REF BY
           =====                   =======         ======
           HWSDIV_32_32_32         0000015A        _LdtobLargeNoMb (?xprintflarge_nomb)
           LOCAL                   ADDRESS         
           =====                   =======         
           LABEL1                  00000202 
           LABEL2                  00000203 
           LABEL3                  0000018F 
           LABEL4                  000001C1 
           LABEL5                  00000171 
           LABEL6                  00000189 
           Label8                  000001D6 

    -------------------------------------------------------------------------
  LIBRARY MODULE, NAME : __HWSxxx_32_32_32

  SEGMENTS IN THE MODULE
  ======================
__aseg
  Relative segment, address: 00000000, align: 0
  Segment part 1. ROOT.
    -------------------------------------------------------------------------
RCODE
  Relative segment, address: 00000208 - 0000021E (0x17 bytes), align: 1
  Segment part 2. ROOT.
           ENTRY                   ADDRESS         REF BY
           =====                   =======         ======
           CHGSIGN_32              00000208        HWSDIV_32_32_32 (__HWSDIV_32_32_32)

    *************************************************************************

  FILE NAME : D:\NCSU\Courses\ECE 561 Embedded System Design\Project 3\Project3\Project3\Project3Code\Debug\Obj\RDKRL78_spi.r87
  PROGRAM MODULE, NAME : RDKRL78_spi

  SEGMENTS IN THE MODULE
  ======================
SADDR_A
  Relative segment, address: 000FFF0D - 000FFF0D (0x1 bytes), align: 0
  Segment part 1. ROOT.       Intra module refs:   R_PORT_Create (r_cg_port)
                                                   SPI_Init
           ENTRY                   ADDRESS         REF BY
           =====                   =======         ======
           _A_P13                  000FFF0D 
           LOCAL                   ADDRESS         
           =====                   =======         
           P13                     000FFF0D 
           P13_bit                 000FFF0D 
    -------------------------------------------------------------------------
SADDR_A
  Relative segment, address: 000FFF0E - 000FFF0E (0x1 bytes), align: 0
  Segment part 2. ROOT.       Intra module refs:   R_PORT_Create (r_cg_port)
                                                   Segment part 5
                                                   YRDKRL78_CommandSend (YRDKRL78_LCD)
                                                   YRDKRL78_DataSend (YRDKRL78_LCD)
           ENTRY                   ADDRESS         REF BY
           =====                   =======         ======
           _A_P14                  000FFF0E 
           LOCAL                   ADDRESS         
           =====                   =======         
           P14                     000FFF0E 
           P14_bit                 000FFF0E 
    -------------------------------------------------------------------------
NEAR_I
  Relative segment, address: 000F9F00 - 000F9F03 (0x4 bytes), align: 1
  Segment part 4.             Intra module refs:   SPI_Send
           ENTRY                   ADDRESS         REF BY
           =====                   =======         ======
           SPI_CS_Port             000F9F00 
    -------------------------------------------------------------------------
NEAR_I
  Relative segment, address: 000F9F04 - 000F9F05 (0x2 bytes), align: 1
  Segment part 6.             Intra module refs:   SPI_Send
           ENTRY                   ADDRESS         REF BY
           =====                   =======         ======
           SPI_CS_Pin              000F9F04 
    -------------------------------------------------------------------------
CODE
  Relative segment, address: 0000498E - 00004A0C (0x7f bytes), align: 0
  Segment part 8.
           ENTRY                   ADDRESS         REF BY
           =====                   =======         ======
           SPI_Init                0000498E        YRDKRL78_RSPIOpen (YRDKRL78_LCD)
                                                   main (r_main)
               calls direct
               CSTACK = 00000000 ( 00000002 )
    -------------------------------------------------------------------------
CODE
  Relative segment, address: 00004A0D - 00004A93 (0x87 bytes), align: 0
  Segment part 12.
           ENTRY                   ADDRESS         REF BY
           =====                   =======         ======
           SPI_Send                00004A0D        ?Subroutine0 (YRDKRL78_LCD)
               calls direct
               CSTACK = 00000004 ( 0000000A )
    -------------------------------------------------------------------------
CODE
  Relative segment, address: 00004A94 - 00004A98 (0x5 bytes), align: 0
  Segment part 13.            Intra module refs:   SPI_Send
           LOCAL                   ADDRESS         
           =====                   =======         
           ?Subroutine0            00004A94 
    -------------------------------------------------------------------------
NEAR_ID
  Relative segment, address: 00008762 - 00008765 (0x4 bytes), align: 1
  Segment part 5.             Intra module refs:   SPI_CS_Port
    -------------------------------------------------------------------------
NEAR_ID
  Relative segment, address: 00008766 - 00008767 (0x2 bytes), align: 1
  Segment part 7.             Intra module refs:   SPI_CS_Pin

    *************************************************************************

  FILE NAME : D:\NCSU\Courses\ECE 561 Embedded System Design\Project 3\Project3\Project3\Project3Code\Debug\Obj\ST7579_LCD.r87
  PROGRAM MODULE, NAME : ST7579_LCD

  SEGMENTS IN THE MODULE
  ======================
CODE
  Relative segment, address: 00004A99 - 00004DAE (0x316 bytes), align: 0
  Segment part 2.
           ENTRY                   ADDRESS         REF BY
           =====                   =======         ======
           ST7579_Open             00004A99        GlyphLCDOpen (glyph_register)
               calls indirect
               CSTACK = 00000000 ( 0000000A )
    -------------------------------------------------------------------------
CODE
  Relative segment, address: 00004DAF - 00004DB0 (0x2 bytes), align: 0
  Segment part 3.
           ENTRY                   ADDRESS         REF BY
           =====                   =======         ======
           ST7579_Close            00004DAF        GlyphLCDOpen (glyph_register)
    -------------------------------------------------------------------------
CODE
  Relative segment, address: 00004DB1 - 000057CA (0xa1a bytes), align: 0
  Segment part 4.
           ENTRY                   ADDRESS         REF BY
           =====                   =======         ======
           ST7579_Write            00004DB1        GlyphLCDOpen (glyph_register)
               calls indirect
               CSTACK = 00000000 ( 0000000E )
    -------------------------------------------------------------------------
CODE
  Relative segment, address: 000057CB - 000057D1 (0x7 bytes), align: 0
  Segment part 5.             Intra module refs:   ST7579_Read
                                                   ST7579_Write
           LOCAL                   ADDRESS         
           =====                   =======         
           ?Subroutine0            000057CB 
    -------------------------------------------------------------------------
CODE
  Relative segment, address: 000057D2 - 000058C2 (0xf1 bytes), align: 0
  Segment part 6.
           ENTRY                   ADDRESS         REF BY
           =====                   =======         ======
           ST7579_Read             000057D2        GlyphLCDOpen (glyph_register)
               CSTACK = 00000000 ( 00000004 )

    *************************************************************************

  FILE NAME : D:\NCSU\Courses\ECE 561 Embedded System Design\Project 3\Project3\Project3\Project3Code\Debug\Obj\YRDKRL78_LCD.r87
  PROGRAM MODULE, NAME : YRDKRL78_LCD

  SEGMENTS IN THE MODULE
  ======================
CODE
  Relative segment, address: 000058C3 - 000058C7 (0x5 bytes), align: 0
  Segment part 3.
           ENTRY                   ADDRESS         REF BY
           =====                   =======         ======
           YRDKRL78_RSPIOpen       000058C3        GlyphCommOpen (glyph_register)
               calls direct
    -------------------------------------------------------------------------
CODE
  Relative segment, address: 000058C8 - 000058CD (0x6 bytes), align: 0
  Segment part 4.
           ENTRY                   ADDRESS         REF BY
           =====                   =======         ======
           YRDKRL78_CommandSend    000058C8        FBG_RefreshLCD_BG (fbuf_graphics)
                                                   FBG_RefreshLCD_FG (fbuf_graphics)
                                                   GlyphCommOpen (glyph_register)
               calls direct
               CSTACK = 00000000 ( 00000008 )
    -------------------------------------------------------------------------
CODE
  Relative segment, address: 000058CE - 000058E1 (0x14 bytes), align: 0
  Segment part 5.             Intra module refs:   YRDKRL78_CommandSend
                                                   YRDKRL78_DataSend
           LOCAL                   ADDRESS         
           =====                   =======         
           ?Subroutine0            000058CE 
    -------------------------------------------------------------------------
CODE
  Relative segment, address: 000058E2 - 000058EA (0x9 bytes), align: 0
  Segment part 6.
           ENTRY                   ADDRESS         REF BY
           =====                   =======         ======
           YRDKRL78_DataSend       000058E2        FBG_RefreshLCD_BG (fbuf_graphics)
                                                   FBG_RefreshLCD_FG (fbuf_graphics)
                                                   GlyphCommOpen (glyph_register)
               calls direct
               CSTACK = 00000000 ( 00000008 )

    *************************************************************************

  FILE NAME : D:\NCSU\Courses\ECE 561 Embedded System Design\Project 3\Project3\Project3\Project3Code\Debug\Obj\bitmap_font.r87
    *************************************************************************

  FILE NAME : D:\NCSU\Courses\ECE 561 Embedded System Design\Project 3\Project3\Project3\Project3Code\Debug\Obj\fbuf_graphics.r87
  PROGRAM MODULE, NAME : fbuf_graphics

  SEGMENTS IN THE MODULE
  ======================
NEAR_Z
  Relative segment, address: 000FA700 - 000FA9FF (0x300 bytes), align: 1
  Segment part 3.             Intra module refs:   FBG_InitFB
                                                   FBG_RefreshLCD_BG
                                                   FBG_RefreshLCD_FG
                                                   FBG_SetPixel
           LOCAL                   ADDRESS         
           =====                   =======         
           fbuf_BG                 000FA700 
    -------------------------------------------------------------------------
NEAR_Z
  Relative segment, address: 000FAA00 - 000FACFF (0x300 bytes), align: 1
  Segment part 4.             Intra module refs:   FBG_InitFB
                                                   FBG_RefreshLCD_FG
                                                   FBG_SetPixel
           LOCAL                   ADDRESS         
           =====                   =======         
           fbuf_FG                 000FAA00 
    -------------------------------------------------------------------------
NEAR_Z
  Relative segment, address: 000FAD00 - 000FAFFF (0x300 bytes), align: 1
  Segment part 5.             Intra module refs:   FBG_RefreshLCD_FG
           LOCAL                   ADDRESS         
           =====                   =======         
           fbuf_FG_prev            000FAD00 
    -------------------------------------------------------------------------
NEAR_Z
  Relative segment, address: 000FB000 - 000FC7FF (0x1800 bytes), align: 1
  Segment part 6.             Intra module refs:   FBG_InitFB
           LOCAL                   ADDRESS         
           =====                   =======         
           fbuf_chk                000FB000 
    -------------------------------------------------------------------------
NEAR_Z
  Relative segment, address: 000FC800 - 000FCAFF (0x300 bytes), align: 1
  Segment part 7.             Intra module refs:   FBG_RefreshLCD_BG
                                                   FBG_SetPixel
           LOCAL                   ADDRESS         
           =====                   =======         
           fbuf_chk_bg             000FC800 
    -------------------------------------------------------------------------
NEAR_Z
  Relative segment, address: 000FCB00 - 000FCDFF (0x300 bytes), align: 1
  Segment part 8.             Intra module refs:   FBG_RefreshLCD_FG
                                                   FBG_SetPixel
           LOCAL                   ADDRESS         
           =====                   =======         
           fbuf_chk_fg             000FCB00 
    -------------------------------------------------------------------------
CODE
  Relative segment, address: 000058EB - 00005953 (0x69 bytes), align: 0
  Segment part 9.
           ENTRY                   ADDRESS         REF BY
           =====                   =======         ======
           FBG_InitFB              000058EB        TestMyCode (skumar15_graphics)
               CSTACK = 00000000 ( 0000000E )
    -------------------------------------------------------------------------
CODE
  Relative segment, address: 00005954 - 00005958 (0x5 bytes), align: 0
  Segment part 10.            Intra module refs:   FBG_InitFB
           LOCAL                   ADDRESS         
           =====                   =======         
           ?Subroutine0            00005954 
    -------------------------------------------------------------------------
CODE
  Relative segment, address: 00005959 - 000059C5 (0x6d bytes), align: 0
  Segment part 13.
           ENTRY                   ADDRESS         REF BY
           =====                   =======         ======
           FBG_RefreshLCD_BG       00005959        TestMyCode (skumar15_graphics)
               calls direct
               CSTACK = 00000000 ( 0000000C )
    -------------------------------------------------------------------------
CODE
  Relative segment, address: 000059C6 - 00005AEA (0x125 bytes), align: 0
  Segment part 14.
           ENTRY                   ADDRESS         REF BY
           =====                   =======         ======
           FBG_RefreshLCD_FG       000059C6        TestMyCode (skumar15_graphics)
               calls direct
               CSTACK = 00000000 ( 00000016 )
    -------------------------------------------------------------------------
CODE
  Relative segment, address: 00005AEB - 00005B72 (0x88 bytes), align: 0
  Segment part 16.
           ENTRY                   ADDRESS         REF BY
           =====                   =======         ======
           FBG_SetPixel            00005AEB        DrawNeedleFiller (skumar15_graphics)
                                                   LCDDrawDialBackground (skumar15_graphics)
                                                   TestMyCode (skumar15_graphics)
               CSTACK = 00000000 ( 00000004 )

    *************************************************************************

  FILE NAME : D:\NCSU\Courses\ECE 561 Embedded System Design\Project 3\Project3\Project3\Project3Code\Debug\Obj\font_8x16.r87
    *************************************************************************

  FILE NAME : D:\NCSU\Courses\ECE 561 Embedded System Design\Project 3\Project3\Project3\Project3Code\Debug\Obj\font_8x8.r87
  PROGRAM MODULE, NAME : font_8x8

  SEGMENTS IN THE MODULE
  ======================
NEAR_CONST
  Relative segment, address: 000F3000 - 000F3009 (0xa bytes), align: 1
  Segment part 2.             Intra module refs:   Font8x8_table
           ENTRY                   ADDRESS         REF BY
           =====                   =======         ======
           Font8x8_char_0          000F3000 
    -------------------------------------------------------------------------
NEAR_CONST
  Relative segment, address: 000F300A - 000F3013 (0xa bytes), align: 1
  Segment part 3.             Intra module refs:   Font8x8_table
           ENTRY                   ADDRESS         REF BY
           =====                   =======         ======
           Font8x8_char_1          000F300A 
    -------------------------------------------------------------------------
NEAR_CONST
  Relative segment, address: 000F3014 - 000F301D (0xa bytes), align: 1
  Segment part 4.             Intra module refs:   Font8x8_table
           ENTRY                   ADDRESS         REF BY
           =====                   =======         ======
           Font8x8_char_2          000F3014 
    -------------------------------------------------------------------------
NEAR_CONST
  Relative segment, address: 000F301E - 000F3027 (0xa bytes), align: 1
  Segment part 5.             Intra module refs:   Font8x8_table
           ENTRY                   ADDRESS         REF BY
           =====                   =======         ======
           Font8x8_char_3          000F301E 
    -------------------------------------------------------------------------
NEAR_CONST
  Relative segment, address: 000F3028 - 000F3031 (0xa bytes), align: 1
  Segment part 6.             Intra module refs:   Font8x8_table
           ENTRY                   ADDRESS         REF BY
           =====                   =======         ======
           Font8x8_char_4          000F3028 
    -------------------------------------------------------------------------
NEAR_CONST
  Relative segment, address: 000F3032 - 000F303B (0xa bytes), align: 1
  Segment part 7.             Intra module refs:   Font8x8_table
           ENTRY                   ADDRESS         REF BY
           =====                   =======         ======
           Font8x8_char_5          000F3032 
    -------------------------------------------------------------------------
NEAR_CONST
  Relative segment, address: 000F303C - 000F3045 (0xa bytes), align: 1
  Segment part 8.             Intra module refs:   Font8x8_table
           ENTRY                   ADDRESS         REF BY
           =====                   =======         ======
           Font8x8_char_6          000F303C 
    -------------------------------------------------------------------------
NEAR_CONST
  Relative segment, address: 000F3046 - 000F304F (0xa bytes), align: 1
  Segment part 9.             Intra module refs:   Font8x8_table
           ENTRY                   ADDRESS         REF BY
           =====                   =======         ======
           Font8x8_char_7          000F3046 
    -------------------------------------------------------------------------
NEAR_CONST
  Relative segment, address: 000F3050 - 000F3059 (0xa bytes), align: 1
  Segment part 10.            Intra module refs:   Font8x8_table
           ENTRY                   ADDRESS         REF BY
           =====                   =======         ======
           Font8x8_char_8          000F3050 
    -------------------------------------------------------------------------
NEAR_CONST
  Relative segment, address: 000F305A - 000F3063 (0xa bytes), align: 1
  Segment part 11.            Intra module refs:   Font8x8_table
           ENTRY                   ADDRESS         REF BY
           =====                   =======         ======
           Font8x8_char_9          000F305A 
    -------------------------------------------------------------------------
NEAR_CONST
  Relative segment, address: 000F3064 - 000F306D (0xa bytes), align: 1
  Segment part 12.            Intra module refs:   Font8x8_table
           ENTRY                   ADDRESS         REF BY
           =====                   =======         ======
           Font8x8_char_10         000F3064 
    -------------------------------------------------------------------------
NEAR_CONST
  Relative segment, address: 000F306E - 000F3077 (0xa bytes), align: 1
  Segment part 13.            Intra module refs:   Font8x8_table
           ENTRY                   ADDRESS         REF BY
           =====                   =======         ======
           Font8x8_char_11         000F306E 
    -------------------------------------------------------------------------
NEAR_CONST
  Relative segment, address: 000F3078 - 000F3081 (0xa bytes), align: 1
  Segment part 14.            Intra module refs:   Font8x8_table
           ENTRY                   ADDRESS         REF BY
           =====                   =======         ======
           Font8x8_char_12         000F3078 
    -------------------------------------------------------------------------
NEAR_CONST
  Relative segment, address: 000F3082 - 000F308B (0xa bytes), align: 1
  Segment part 15.            Intra module refs:   Font8x8_table
           ENTRY                   ADDRESS         REF BY
           =====                   =======         ======
           Font8x8_char_13         000F3082 
    -------------------------------------------------------------------------
NEAR_CONST
  Relative segment, address: 000F308C - 000F3095 (0xa bytes), align: 1
  Segment part 16.            Intra module refs:   Font8x8_table
           ENTRY                   ADDRESS         REF BY
           =====                   =======         ======
           Font8x8_char_14         000F308C 
    -------------------------------------------------------------------------
NEAR_CONST
  Relative segment, address: 000F3096 - 000F309F (0xa bytes), align: 1
  Segment part 17.            Intra module refs:   Font8x8_table
           ENTRY                   ADDRESS         REF BY
           =====                   =======         ======
           Font8x8_char_15         000F3096 
    -------------------------------------------------------------------------
NEAR_CONST
  Relative segment, address: 000F30A0 - 000F30A9 (0xa bytes), align: 1
  Segment part 18.            Intra module refs:   Font8x8_table
           ENTRY                   ADDRESS         REF BY
           =====                   =======         ======
           Font8x8_char_16         000F30A0 
    -------------------------------------------------------------------------
NEAR_CONST
  Relative segment, address: 000F30AA - 000F30B3 (0xa bytes), align: 1
  Segment part 19.            Intra module refs:   Font8x8_table
           ENTRY                   ADDRESS         REF BY
           =====                   =======         ======
           Font8x8_char_17         000F30AA 
    -------------------------------------------------------------------------
NEAR_CONST
  Relative segment, address: 000F30B4 - 000F30BD (0xa bytes), align: 1
  Segment part 20.            Intra module refs:   Font8x8_table
           ENTRY                   ADDRESS         REF BY
           =====                   =======         ======
           Font8x8_char_18         000F30B4 
    -------------------------------------------------------------------------
NEAR_CONST
  Relative segment, address: 000F30BE - 000F30C7 (0xa bytes), align: 1
  Segment part 21.            Intra module refs:   Font8x8_table
           ENTRY                   ADDRESS         REF BY
           =====                   =======         ======
           Font8x8_char_19         000F30BE 
    -------------------------------------------------------------------------
NEAR_CONST
  Relative segment, address: 000F30C8 - 000F30D1 (0xa bytes), align: 1
  Segment part 22.            Intra module refs:   Font8x8_table
           ENTRY                   ADDRESS         REF BY
           =====                   =======         ======
           Font8x8_char_20         000F30C8 
    -------------------------------------------------------------------------
NEAR_CONST
  Relative segment, address: 000F30D2 - 000F30DB (0xa bytes), align: 1
  Segment part 23.            Intra module refs:   Font8x8_table
           ENTRY                   ADDRESS         REF BY
           =====                   =======         ======
           Font8x8_char_21         000F30D2 
    -------------------------------------------------------------------------
NEAR_CONST
  Relative segment, address: 000F30DC - 000F30E5 (0xa bytes), align: 1
  Segment part 24.            Intra module refs:   Font8x8_table
           ENTRY                   ADDRESS         REF BY
           =====                   =======         ======
           Font8x8_char_22         000F30DC 
    -------------------------------------------------------------------------
NEAR_CONST
  Relative segment, address: 000F30E6 - 000F30EF (0xa bytes), align: 1
  Segment part 25.            Intra module refs:   Font8x8_table
           ENTRY                   ADDRESS         REF BY
           =====                   =======         ======
           Font8x8_char_23         000F30E6 
    -------------------------------------------------------------------------
NEAR_CONST
  Relative segment, address: 000F30F0 - 000F30F9 (0xa bytes), align: 1
  Segment part 26.            Intra module refs:   Font8x8_table
           ENTRY                   ADDRESS         REF BY
           =====                   =======         ======
           Font8x8_char_24         000F30F0 
    -------------------------------------------------------------------------
NEAR_CONST
  Relative segment, address: 000F30FA - 000F3103 (0xa bytes), align: 1
  Segment part 27.            Intra module refs:   Font8x8_table
           ENTRY                   ADDRESS         REF BY
           =====                   =======         ======
           Font8x8_char_25         000F30FA 
    -------------------------------------------------------------------------
NEAR_CONST
  Relative segment, address: 000F3104 - 000F310D (0xa bytes), align: 1
  Segment part 28.            Intra module refs:   Font8x8_table
           ENTRY                   ADDRESS         REF BY
           =====                   =======         ======
           Font8x8_char_26         000F3104 
    -------------------------------------------------------------------------
NEAR_CONST
  Relative segment, address: 000F310E - 000F3117 (0xa bytes), align: 1
  Segment part 29.            Intra module refs:   Font8x8_table
           ENTRY                   ADDRESS         REF BY
           =====                   =======         ======
           Font8x8_char_27         000F310E 
    -------------------------------------------------------------------------
NEAR_CONST
  Relative segment, address: 000F3118 - 000F3121 (0xa bytes), align: 1
  Segment part 30.            Intra module refs:   Font8x8_table
           ENTRY                   ADDRESS         REF BY
           =====                   =======         ======
           Font8x8_char_28         000F3118 
    -------------------------------------------------------------------------
NEAR_CONST
  Relative segment, address: 000F3122 - 000F312B (0xa bytes), align: 1
  Segment part 31.            Intra module refs:   Font8x8_table
           ENTRY                   ADDRESS         REF BY
           =====                   =======         ======
           Font8x8_char_29         000F3122 
    -------------------------------------------------------------------------
NEAR_CONST
  Relative segment, address: 000F312C - 000F3135 (0xa bytes), align: 1
  Segment part 32.            Intra module refs:   Font8x8_table
           ENTRY                   ADDRESS         REF BY
           =====                   =======         ======
           Font8x8_char_30         000F312C 
    -------------------------------------------------------------------------
NEAR_CONST
  Relative segment, address: 000F3136 - 000F313F (0xa bytes), align: 1
  Segment part 33.            Intra module refs:   Font8x8_table
           ENTRY                   ADDRESS         REF BY
           =====                   =======         ======
           Font8x8_char_31         000F3136 
    -------------------------------------------------------------------------
NEAR_CONST
  Relative segment, address: 000F3140 - 000F3149 (0xa bytes), align: 1
  Segment part 34.            Intra module refs:   Font8x8_table
           ENTRY                   ADDRESS         REF BY
           =====                   =======         ======
           Font8x8_char_32         000F3140 
    -------------------------------------------------------------------------
NEAR_CONST
  Relative segment, address: 000F314A - 000F3153 (0xa bytes), align: 1
  Segment part 35.            Intra module refs:   Font8x8_table
           ENTRY                   ADDRESS         REF BY
           =====                   =======         ======
           Font8x8_char_33         000F314A 
    -------------------------------------------------------------------------
NEAR_CONST
  Relative segment, address: 000F3154 - 000F315D (0xa bytes), align: 1
  Segment part 36.            Intra module refs:   Font8x8_table
           ENTRY                   ADDRESS         REF BY
           =====                   =======         ======
           Font8x8_char_34         000F3154 
    -------------------------------------------------------------------------
NEAR_CONST
  Relative segment, address: 000F315E - 000F3167 (0xa bytes), align: 1
  Segment part 37.            Intra module refs:   Font8x8_table
           ENTRY                   ADDRESS         REF BY
           =====                   =======         ======
           Font8x8_char_35         000F315E 
    -------------------------------------------------------------------------
NEAR_CONST
  Relative segment, address: 000F3168 - 000F3171 (0xa bytes), align: 1
  Segment part 38.            Intra module refs:   Font8x8_table
           ENTRY                   ADDRESS         REF BY
           =====                   =======         ======
           Font8x8_char_36         000F3168 
    -------------------------------------------------------------------------
NEAR_CONST
  Relative segment, address: 000F3172 - 000F317B (0xa bytes), align: 1
  Segment part 39.            Intra module refs:   Font8x8_table
           ENTRY                   ADDRESS         REF BY
           =====                   =======         ======
           Font8x8_char_37         000F3172 
    -------------------------------------------------------------------------
NEAR_CONST
  Relative segment, address: 000F317C - 000F3185 (0xa bytes), align: 1
  Segment part 40.            Intra module refs:   Font8x8_table
           ENTRY                   ADDRESS         REF BY
           =====                   =======         ======
           Font8x8_char_38         000F317C 
    -------------------------------------------------------------------------
NEAR_CONST
  Relative segment, address: 000F3186 - 000F318F (0xa bytes), align: 1
  Segment part 41.            Intra module refs:   Font8x8_table
           ENTRY                   ADDRESS         REF BY
           =====                   =======         ======
           Font8x8_char_39         000F3186 
    -------------------------------------------------------------------------
NEAR_CONST
  Relative segment, address: 000F3190 - 000F3199 (0xa bytes), align: 1
  Segment part 42.            Intra module refs:   Font8x8_table
           ENTRY                   ADDRESS         REF BY
           =====                   =======         ======
           Font8x8_char_40         000F3190 
    -------------------------------------------------------------------------
NEAR_CONST
  Relative segment, address: 000F319A - 000F31A3 (0xa bytes), align: 1
  Segment part 43.            Intra module refs:   Font8x8_table
           ENTRY                   ADDRESS         REF BY
           =====                   =======         ======
           Font8x8_char_41         000F319A 
    -------------------------------------------------------------------------
NEAR_CONST
  Relative segment, address: 000F31A4 - 000F31AD (0xa bytes), align: 1
  Segment part 44.            Intra module refs:   Font8x8_table
           ENTRY                   ADDRESS         REF BY
           =====                   =======         ======
           Font8x8_char_42         000F31A4 
    -------------------------------------------------------------------------
NEAR_CONST
  Relative segment, address: 000F31AE - 000F31B7 (0xa bytes), align: 1
  Segment part 45.            Intra module refs:   Font8x8_table
           ENTRY                   ADDRESS         REF BY
           =====                   =======         ======
           Font8x8_char_43         000F31AE 
    -------------------------------------------------------------------------
NEAR_CONST
  Relative segment, address: 000F31B8 - 000F31C1 (0xa bytes), align: 1
  Segment part 46.            Intra module refs:   Font8x8_table
           ENTRY                   ADDRESS         REF BY
           =====                   =======         ======
           Font8x8_char_44         000F31B8 
    -------------------------------------------------------------------------
NEAR_CONST
  Relative segment, address: 000F31C2 - 000F31CB (0xa bytes), align: 1
  Segment part 47.            Intra module refs:   Font8x8_table
           ENTRY                   ADDRESS         REF BY
           =====                   =======         ======
           Font8x8_char_45         000F31C2 
    -------------------------------------------------------------------------
NEAR_CONST
  Relative segment, address: 000F31CC - 000F31D5 (0xa bytes), align: 1
  Segment part 48.            Intra module refs:   Font8x8_table
           ENTRY                   ADDRESS         REF BY
           =====                   =======         ======
           Font8x8_char_46         000F31CC 
    -------------------------------------------------------------------------
NEAR_CONST
  Relative segment, address: 000F31D6 - 000F31DF (0xa bytes), align: 1
  Segment part 49.            Intra module refs:   Font8x8_table
           ENTRY                   ADDRESS         REF BY
           =====                   =======         ======
           Font8x8_char_47         000F31D6 
    -------------------------------------------------------------------------
NEAR_CONST
  Relative segment, address: 000F31E0 - 000F31E9 (0xa bytes), align: 1
  Segment part 50.            Intra module refs:   Font8x8_table
           ENTRY                   ADDRESS         REF BY
           =====                   =======         ======
           Font8x8_char_48         000F31E0 
    -------------------------------------------------------------------------
NEAR_CONST
  Relative segment, address: 000F31EA - 000F31F3 (0xa bytes), align: 1
  Segment part 51.            Intra module refs:   Font8x8_table
           ENTRY                   ADDRESS         REF BY
           =====                   =======         ======
           Font8x8_char_49         000F31EA 
    -------------------------------------------------------------------------
NEAR_CONST
  Relative segment, address: 000F31F4 - 000F31FD (0xa bytes), align: 1
  Segment part 52.            Intra module refs:   Font8x8_table
           ENTRY                   ADDRESS         REF BY
           =====                   =======         ======
           Font8x8_char_50         000F31F4 
    -------------------------------------------------------------------------
NEAR_CONST
  Relative segment, address: 000F31FE - 000F3207 (0xa bytes), align: 1
  Segment part 53.            Intra module refs:   Font8x8_table
           ENTRY                   ADDRESS         REF BY
           =====                   =======         ======
           Font8x8_char_51         000F31FE 
    -------------------------------------------------------------------------
NEAR_CONST
  Relative segment, address: 000F3208 - 000F3211 (0xa bytes), align: 1
  Segment part 54.            Intra module refs:   Font8x8_table
           ENTRY                   ADDRESS         REF BY
           =====                   =======         ======
           Font8x8_char_52         000F3208 
    -------------------------------------------------------------------------
NEAR_CONST
  Relative segment, address: 000F3212 - 000F321B (0xa bytes), align: 1
  Segment part 55.            Intra module refs:   Font8x8_table
           ENTRY                   ADDRESS         REF BY
           =====                   =======         ======
           Font8x8_char_53         000F3212 
    -------------------------------------------------------------------------
NEAR_CONST
  Relative segment, address: 000F321C - 000F3225 (0xa bytes), align: 1
  Segment part 56.            Intra module refs:   Font8x8_table
           ENTRY                   ADDRESS         REF BY
           =====                   =======         ======
           Font8x8_char_54         000F321C 
    -------------------------------------------------------------------------
NEAR_CONST
  Relative segment, address: 000F3226 - 000F322F (0xa bytes), align: 1
  Segment part 57.            Intra module refs:   Font8x8_table
           ENTRY                   ADDRESS         REF BY
           =====                   =======         ======
           Font8x8_char_55         000F3226 
    -------------------------------------------------------------------------
NEAR_CONST
  Relative segment, address: 000F3230 - 000F3239 (0xa bytes), align: 1
  Segment part 58.            Intra module refs:   Font8x8_table
           ENTRY                   ADDRESS         REF BY
           =====                   =======         ======
           Font8x8_char_56         000F3230 
    -------------------------------------------------------------------------
NEAR_CONST
  Relative segment, address: 000F323A - 000F3243 (0xa bytes), align: 1
  Segment part 59.            Intra module refs:   Font8x8_table
           ENTRY                   ADDRESS         REF BY
           =====                   =======         ======
           Font8x8_char_57         000F323A 
    -------------------------------------------------------------------------
NEAR_CONST
  Relative segment, address: 000F3244 - 000F324D (0xa bytes), align: 1
  Segment part 60.            Intra module refs:   Font8x8_table
           ENTRY                   ADDRESS         REF BY
           =====                   =======         ======
           Font8x8_char_58         000F3244 
    -------------------------------------------------------------------------
NEAR_CONST
  Relative segment, address: 000F324E - 000F3257 (0xa bytes), align: 1
  Segment part 61.            Intra module refs:   Font8x8_table
           ENTRY                   ADDRESS         REF BY
           =====                   =======         ======
           Font8x8_char_59         000F324E 
    -------------------------------------------------------------------------
NEAR_CONST
  Relative segment, address: 000F3258 - 000F3261 (0xa bytes), align: 1
  Segment part 62.            Intra module refs:   Font8x8_table
           ENTRY                   ADDRESS         REF BY
           =====                   =======         ======
           Font8x8_char_60         000F3258 
    -------------------------------------------------------------------------
NEAR_CONST
  Relative segment, address: 000F3262 - 000F326B (0xa bytes), align: 1
  Segment part 63.            Intra module refs:   Font8x8_table
           ENTRY                   ADDRESS         REF BY
           =====                   =======         ======
           Font8x8_char_61         000F3262 
    -------------------------------------------------------------------------
NEAR_CONST
  Relative segment, address: 000F326C - 000F3275 (0xa bytes), align: 1
  Segment part 64.            Intra module refs:   Font8x8_table
           ENTRY                   ADDRESS         REF BY
           =====                   =======         ======
           Font8x8_char_62         000F326C 
    -------------------------------------------------------------------------
NEAR_CONST
  Relative segment, address: 000F3276 - 000F327F (0xa bytes), align: 1
  Segment part 65.            Intra module refs:   Font8x8_table
           ENTRY                   ADDRESS         REF BY
           =====                   =======         ======
           Font8x8_char_63         000F3276 
    -------------------------------------------------------------------------
NEAR_CONST
  Relative segment, address: 000F3280 - 000F3289 (0xa bytes), align: 1
  Segment part 66.            Intra module refs:   Font8x8_table
           ENTRY                   ADDRESS         REF BY
           =====                   =======         ======
           Font8x8_char_64         000F3280 
    -------------------------------------------------------------------------
NEAR_CONST
  Relative segment, address: 000F328A - 000F3293 (0xa bytes), align: 1
  Segment part 67.            Intra module refs:   Font8x8_table
           ENTRY                   ADDRESS         REF BY
           =====                   =======         ======
           Font8x8_char_65         000F328A 
    -------------------------------------------------------------------------
NEAR_CONST
  Relative segment, address: 000F3294 - 000F329D (0xa bytes), align: 1
  Segment part 68.            Intra module refs:   Font8x8_table
           ENTRY                   ADDRESS         REF BY
           =====                   =======         ======
           Font8x8_char_66         000F3294 
    -------------------------------------------------------------------------
NEAR_CONST
  Relative segment, address: 000F329E - 000F32A7 (0xa bytes), align: 1
  Segment part 69.            Intra module refs:   Font8x8_table
           ENTRY                   ADDRESS         REF BY
           =====                   =======         ======
           Font8x8_char_67         000F329E 
    -------------------------------------------------------------------------
NEAR_CONST
  Relative segment, address: 000F32A8 - 000F32B1 (0xa bytes), align: 1
  Segment part 70.            Intra module refs:   Font8x8_table
           ENTRY                   ADDRESS         REF BY
           =====                   =======         ======
           Font8x8_char_68         000F32A8 
    -------------------------------------------------------------------------
NEAR_CONST
  Relative segment, address: 000F32B2 - 000F32BB (0xa bytes), align: 1
  Segment part 71.            Intra module refs:   Font8x8_table
           ENTRY                   ADDRESS         REF BY
           =====                   =======         ======
           Font8x8_char_69         000F32B2 
    -------------------------------------------------------------------------
NEAR_CONST
  Relative segment, address: 000F32BC - 000F32C5 (0xa bytes), align: 1
  Segment part 72.            Intra module refs:   Font8x8_table
           ENTRY                   ADDRESS         REF BY
           =====                   =======         ======
           Font8x8_char_70         000F32BC 
    -------------------------------------------------------------------------
NEAR_CONST
  Relative segment, address: 000F32C6 - 000F32CF (0xa bytes), align: 1
  Segment part 73.            Intra module refs:   Font8x8_table
           ENTRY                   ADDRESS         REF BY
           =====                   =======         ======
           Font8x8_char_71         000F32C6 
    -------------------------------------------------------------------------
NEAR_CONST
  Relative segment, address: 000F32D0 - 000F32D9 (0xa bytes), align: 1
  Segment part 74.            Intra module refs:   Font8x8_table
           ENTRY                   ADDRESS         REF BY
           =====                   =======         ======
           Font8x8_char_72         000F32D0 
    -------------------------------------------------------------------------
NEAR_CONST
  Relative segment, address: 000F32DA - 000F32E3 (0xa bytes), align: 1
  Segment part 75.            Intra module refs:   Font8x8_table
           ENTRY                   ADDRESS         REF BY
           =====                   =======         ======
           Font8x8_char_73         000F32DA 
    -------------------------------------------------------------------------
NEAR_CONST
  Relative segment, address: 000F32E4 - 000F32ED (0xa bytes), align: 1
  Segment part 76.            Intra module refs:   Font8x8_table
           ENTRY                   ADDRESS         REF BY
           =====                   =======         ======
           Font8x8_char_74         000F32E4 
    -------------------------------------------------------------------------
NEAR_CONST
  Relative segment, address: 000F32EE - 000F32F7 (0xa bytes), align: 1
  Segment part 77.            Intra module refs:   Font8x8_table
           ENTRY                   ADDRESS         REF BY
           =====                   =======         ======
           Font8x8_char_75         000F32EE 
    -------------------------------------------------------------------------
NEAR_CONST
  Relative segment, address: 000F32F8 - 000F3301 (0xa bytes), align: 1
  Segment part 78.            Intra module refs:   Font8x8_table
           ENTRY                   ADDRESS         REF BY
           =====                   =======         ======
           Font8x8_char_76         000F32F8 
    -------------------------------------------------------------------------
NEAR_CONST
  Relative segment, address: 000F3302 - 000F330B (0xa bytes), align: 1
  Segment part 79.            Intra module refs:   Font8x8_table
           ENTRY                   ADDRESS         REF BY
           =====                   =======         ======
           Font8x8_char_77         000F3302 
    -------------------------------------------------------------------------
NEAR_CONST
  Relative segment, address: 000F330C - 000F3315 (0xa bytes), align: 1
  Segment part 80.            Intra module refs:   Font8x8_table
           ENTRY                   ADDRESS         REF BY
           =====                   =======         ======
           Font8x8_char_78         000F330C 
    -------------------------------------------------------------------------
NEAR_CONST
  Relative segment, address: 000F3316 - 000F331F (0xa bytes), align: 1
  Segment part 81.            Intra module refs:   Font8x8_table
           ENTRY                   ADDRESS         REF BY
           =====                   =======         ======
           Font8x8_char_79         000F3316 
    -------------------------------------------------------------------------
NEAR_CONST
  Relative segment, address: 000F3320 - 000F3329 (0xa bytes), align: 1
  Segment part 82.            Intra module refs:   Font8x8_table
           ENTRY                   ADDRESS         REF BY
           =====                   =======         ======
           Font8x8_char_80         000F3320 
    -------------------------------------------------------------------------
NEAR_CONST
  Relative segment, address: 000F332A - 000F3333 (0xa bytes), align: 1
  Segment part 83.            Intra module refs:   Font8x8_table
           ENTRY                   ADDRESS         REF BY
           =====                   =======         ======
           Font8x8_char_81         000F332A 
    -------------------------------------------------------------------------
NEAR_CONST
  Relative segment, address: 000F3334 - 000F333D (0xa bytes), align: 1
  Segment part 84.            Intra module refs:   Font8x8_table
           ENTRY                   ADDRESS         REF BY
           =====                   =======         ======
           Font8x8_char_82         000F3334 
    -------------------------------------------------------------------------
NEAR_CONST
  Relative segment, address: 000F333E - 000F3347 (0xa bytes), align: 1
  Segment part 85.            Intra module refs:   Font8x8_table
           ENTRY                   ADDRESS         REF BY
           =====                   =======         ======
           Font8x8_char_83         000F333E 
    -------------------------------------------------------------------------
NEAR_CONST
  Relative segment, address: 000F3348 - 000F3351 (0xa bytes), align: 1
  Segment part 86.            Intra module refs:   Font8x8_table
           ENTRY                   ADDRESS         REF BY
           =====                   =======         ======
           Font8x8_char_84         000F3348 
    -------------------------------------------------------------------------
NEAR_CONST
  Relative segment, address: 000F3352 - 000F335B (0xa bytes), align: 1
  Segment part 87.            Intra module refs:   Font8x8_table
           ENTRY                   ADDRESS         REF BY
           =====                   =======         ======
           Font8x8_char_85         000F3352 
    -------------------------------------------------------------------------
NEAR_CONST
  Relative segment, address: 000F335C - 000F3365 (0xa bytes), align: 1
  Segment part 88.            Intra module refs:   Font8x8_table
           ENTRY                   ADDRESS         REF BY
           =====                   =======         ======
           Font8x8_char_86         000F335C 
    -------------------------------------------------------------------------
NEAR_CONST
  Relative segment, address: 000F3366 - 000F336F (0xa bytes), align: 1
  Segment part 89.            Intra module refs:   Font8x8_table
           ENTRY                   ADDRESS         REF BY
           =====                   =======         ======
           Font8x8_char_87         000F3366 
    -------------------------------------------------------------------------
NEAR_CONST
  Relative segment, address: 000F3370 - 000F3379 (0xa bytes), align: 1
  Segment part 90.            Intra module refs:   Font8x8_table
           ENTRY                   ADDRESS         REF BY
           =====                   =======         ======
           Font8x8_char_88         000F3370 
    -------------------------------------------------------------------------
NEAR_CONST
  Relative segment, address: 000F337A - 000F3383 (0xa bytes), align: 1
  Segment part 91.            Intra module refs:   Font8x8_table
           ENTRY                   ADDRESS         REF BY
           =====                   =======         ======
           Font8x8_char_89         000F337A 
    -------------------------------------------------------------------------
NEAR_CONST
  Relative segment, address: 000F3384 - 000F338D (0xa bytes), align: 1
  Segment part 92.            Intra module refs:   Font8x8_table
           ENTRY                   ADDRESS         REF BY
           =====                   =======         ======
           Font8x8_char_90         000F3384 
    -------------------------------------------------------------------------
NEAR_CONST
  Relative segment, address: 000F338E - 000F3397 (0xa bytes), align: 1
  Segment part 93.            Intra module refs:   Font8x8_table
           ENTRY                   ADDRESS         REF BY
           =====                   =======         ======
           Font8x8_char_91         000F338E 
    -------------------------------------------------------------------------
NEAR_CONST
  Relative segment, address: 000F3398 - 000F33A1 (0xa bytes), align: 1
  Segment part 94.            Intra module refs:   Font8x8_table
           ENTRY                   ADDRESS         REF BY
           =====                   =======         ======
           Font8x8_char_92         000F3398 
    -------------------------------------------------------------------------
NEAR_CONST
  Relative segment, address: 000F33A2 - 000F33AB (0xa bytes), align: 1
  Segment part 95.            Intra module refs:   Font8x8_table
           ENTRY                   ADDRESS         REF BY
           =====                   =======         ======
           Font8x8_char_93         000F33A2 
    -------------------------------------------------------------------------
NEAR_CONST
  Relative segment, address: 000F33AC - 000F33B5 (0xa bytes), align: 1
  Segment part 96.            Intra module refs:   Font8x8_table
           ENTRY                   ADDRESS         REF BY
           =====                   =======         ======
           Font8x8_char_94         000F33AC 
    -------------------------------------------------------------------------
NEAR_CONST
  Relative segment, address: 000F33B6 - 000F33BF (0xa bytes), align: 1
  Segment part 97.            Intra module refs:   Font8x8_table
           ENTRY                   ADDRESS         REF BY
           =====                   =======         ======
           Font8x8_char_95         000F33B6 
    -------------------------------------------------------------------------
NEAR_CONST
  Relative segment, address: 000F33C0 - 000F33C9 (0xa bytes), align: 1
  Segment part 98.            Intra module refs:   Font8x8_table
           ENTRY                   ADDRESS         REF BY
           =====                   =======         ======
           Font8x8_char_96         000F33C0 
    -------------------------------------------------------------------------
NEAR_CONST
  Relative segment, address: 000F33CA - 000F33D3 (0xa bytes), align: 1
  Segment part 99.            Intra module refs:   Font8x8_table
           ENTRY                   ADDRESS         REF BY
           =====                   =======         ======
           Font8x8_char_97         000F33CA 
    -------------------------------------------------------------------------
NEAR_CONST
  Relative segment, address: 000F33D4 - 000F33DD (0xa bytes), align: 1
  Segment part 100.           Intra module refs:   Font8x8_table
           ENTRY                   ADDRESS         REF BY
           =====                   =======         ======
           Font8x8_char_98         000F33D4 
    -------------------------------------------------------------------------
NEAR_CONST
  Relative segment, address: 000F33DE - 000F33E7 (0xa bytes), align: 1
  Segment part 101.           Intra module refs:   Font8x8_table
           ENTRY                   ADDRESS         REF BY
           =====                   =======         ======
           Font8x8_char_99         000F33DE 
    -------------------------------------------------------------------------
NEAR_CONST
  Relative segment, address: 000F33E8 - 000F33F1 (0xa bytes), align: 1
  Segment part 102.           Intra module refs:   Font8x8_table
           ENTRY                   ADDRESS         REF BY
           =====                   =======         ======
           Font8x8_char_100        000F33E8 
    -------------------------------------------------------------------------
NEAR_CONST
  Relative segment, address: 000F33F2 - 000F33FB (0xa bytes), align: 1
  Segment part 103.           Intra module refs:   Font8x8_table
           ENTRY                   ADDRESS         REF BY
           =====                   =======         ======
           Font8x8_char_101        000F33F2 
    -------------------------------------------------------------------------
NEAR_CONST
  Relative segment, address: 000F33FC - 000F3405 (0xa bytes), align: 1
  Segment part 104.           Intra module refs:   Font8x8_table
           ENTRY                   ADDRESS         REF BY
           =====                   =======         ======
           Font8x8_char_102        000F33FC 
    -------------------------------------------------------------------------
NEAR_CONST
  Relative segment, address: 000F3406 - 000F340F (0xa bytes), align: 1
  Segment part 105.           Intra module refs:   Font8x8_table
           ENTRY                   ADDRESS         REF BY
           =====                   =======         ======
           Font8x8_char_103        000F3406 
    -------------------------------------------------------------------------
NEAR_CONST
  Relative segment, address: 000F3410 - 000F3419 (0xa bytes), align: 1
  Segment part 106.           Intra module refs:   Font8x8_table
           ENTRY                   ADDRESS         REF BY
           =====                   =======         ======
           Font8x8_char_104        000F3410 
    -------------------------------------------------------------------------
NEAR_CONST
  Relative segment, address: 000F341A - 000F3423 (0xa bytes), align: 1
  Segment part 107.           Intra module refs:   Font8x8_table
           ENTRY                   ADDRESS         REF BY
           =====                   =======         ======
           Font8x8_char_105        000F341A 
    -------------------------------------------------------------------------
NEAR_CONST
  Relative segment, address: 000F3424 - 000F342D (0xa bytes), align: 1
  Segment part 108.           Intra module refs:   Font8x8_table
           ENTRY                   ADDRESS         REF BY
           =====                   =======         ======
           Font8x8_char_106        000F3424 
    -------------------------------------------------------------------------
NEAR_CONST
  Relative segment, address: 000F342E - 000F3437 (0xa bytes), align: 1
  Segment part 109.           Intra module refs:   Font8x8_table
           ENTRY                   ADDRESS         REF BY
           =====                   =======         ======
           Font8x8_char_107        000F342E 
    -------------------------------------------------------------------------
NEAR_CONST
  Relative segment, address: 000F3438 - 000F3441 (0xa bytes), align: 1
  Segment part 110.           Intra module refs:   Font8x8_table
           ENTRY                   ADDRESS         REF BY
           =====                   =======         ======
           Font8x8_char_108        000F3438 
    -------------------------------------------------------------------------
NEAR_CONST
  Relative segment, address: 000F3442 - 000F344B (0xa bytes), align: 1
  Segment part 111.           Intra module refs:   Font8x8_table
           ENTRY                   ADDRESS         REF BY
           =====                   =======         ======
           Font8x8_char_109        000F3442 
    -------------------------------------------------------------------------
NEAR_CONST
  Relative segment, address: 000F344C - 000F3455 (0xa bytes), align: 1
  Segment part 112.           Intra module refs:   Font8x8_table
           ENTRY                   ADDRESS         REF BY
           =====                   =======         ======
           Font8x8_char_110        000F344C 
    -------------------------------------------------------------------------
NEAR_CONST
  Relative segment, address: 000F3456 - 000F345F (0xa bytes), align: 1
  Segment part 113.           Intra module refs:   Font8x8_table
           ENTRY                   ADDRESS         REF BY
           =====                   =======         ======
           Font8x8_char_111        000F3456 
    -------------------------------------------------------------------------
NEAR_CONST
  Relative segment, address: 000F3460 - 000F3469 (0xa bytes), align: 1
  Segment part 114.           Intra module refs:   Font8x8_table
           ENTRY                   ADDRESS         REF BY
           =====                   =======         ======
           Font8x8_char_112        000F3460 
    -------------------------------------------------------------------------
NEAR_CONST
  Relative segment, address: 000F346A - 000F3473 (0xa bytes), align: 1
  Segment part 115.           Intra module refs:   Font8x8_table
           ENTRY                   ADDRESS         REF BY
           =====                   =======         ======
           Font8x8_char_113        000F346A 
    -------------------------------------------------------------------------
NEAR_CONST
  Relative segment, address: 000F3474 - 000F347D (0xa bytes), align: 1
  Segment part 116.           Intra module refs:   Font8x8_table
           ENTRY                   ADDRESS         REF BY
           =====                   =======         ======
           Font8x8_char_114        000F3474 
    -------------------------------------------------------------------------
NEAR_CONST
  Relative segment, address: 000F347E - 000F3487 (0xa bytes), align: 1
  Segment part 117.           Intra module refs:   Font8x8_table
           ENTRY                   ADDRESS         REF BY
           =====                   =======         ======
           Font8x8_char_115        000F347E 
    -------------------------------------------------------------------------
NEAR_CONST
  Relative segment, address: 000F3488 - 000F3491 (0xa bytes), align: 1
  Segment part 118.           Intra module refs:   Font8x8_table
           ENTRY                   ADDRESS         REF BY
           =====                   =======         ======
           Font8x8_char_116        000F3488 
    -------------------------------------------------------------------------
NEAR_CONST
  Relative segment, address: 000F3492 - 000F349B (0xa bytes), align: 1
  Segment part 119.           Intra module refs:   Font8x8_table
           ENTRY                   ADDRESS         REF BY
           =====                   =======         ======
           Font8x8_char_117        000F3492 
    -------------------------------------------------------------------------
NEAR_CONST
  Relative segment, address: 000F349C - 000F34A5 (0xa bytes), align: 1
  Segment part 120.           Intra module refs:   Font8x8_table
           ENTRY                   ADDRESS         REF BY
           =====                   =======         ======
           Font8x8_char_118        000F349C 
    -------------------------------------------------------------------------
NEAR_CONST
  Relative segment, address: 000F34A6 - 000F34AF (0xa bytes), align: 1
  Segment part 121.           Intra module refs:   Font8x8_table
           ENTRY                   ADDRESS         REF BY
           =====                   =======         ======
           Font8x8_char_119        000F34A6 
    -------------------------------------------------------------------------
NEAR_CONST
  Relative segment, address: 000F34B0 - 000F34B9 (0xa bytes), align: 1
  Segment part 122.           Intra module refs:   Font8x8_table
           ENTRY                   ADDRESS         REF BY
           =====                   =======         ======
           Font8x8_char_120        000F34B0 
    -------------------------------------------------------------------------
NEAR_CONST
  Relative segment, address: 000F34BA - 000F34C3 (0xa bytes), align: 1
  Segment part 123.           Intra module refs:   Font8x8_table
           ENTRY                   ADDRESS         REF BY
           =====                   =======         ======
           Font8x8_char_121        000F34BA 
    -------------------------------------------------------------------------
NEAR_CONST
  Relative segment, address: 000F34C4 - 000F34CD (0xa bytes), align: 1
  Segment part 124.           Intra module refs:   Font8x8_table
           ENTRY                   ADDRESS         REF BY
           =====                   =======         ======
           Font8x8_char_122        000F34C4 
    -------------------------------------------------------------------------
NEAR_CONST
  Relative segment, address: 000F34CE - 000F34D7 (0xa bytes), align: 1
  Segment part 125.           Intra module refs:   Font8x8_table
           ENTRY                   ADDRESS         REF BY
           =====                   =======         ======
           Font8x8_char_123        000F34CE 
    -------------------------------------------------------------------------
NEAR_CONST
  Relative segment, address: 000F34D8 - 000F34E1 (0xa bytes), align: 1
  Segment part 126.           Intra module refs:   Font8x8_table
           ENTRY                   ADDRESS         REF BY
           =====                   =======         ======
           Font8x8_char_124        000F34D8 
    -------------------------------------------------------------------------
NEAR_CONST
  Relative segment, address: 000F34E2 - 000F34EB (0xa bytes), align: 1
  Segment part 127.           Intra module refs:   Font8x8_table
           ENTRY                   ADDRESS         REF BY
           =====                   =======         ======
           Font8x8_char_125        000F34E2 
    -------------------------------------------------------------------------
NEAR_CONST
  Relative segment, address: 000F34EC - 000F34F5 (0xa bytes), align: 1
  Segment part 128.           Intra module refs:   Font8x8_table
           ENTRY                   ADDRESS         REF BY
           =====                   =======         ======
           Font8x8_char_126        000F34EC 
    -------------------------------------------------------------------------
NEAR_CONST
  Relative segment, address: 000F34F6 - 000F34FF (0xa bytes), align: 1
  Segment part 129.           Intra module refs:   Font8x8_table
           ENTRY                   ADDRESS         REF BY
           =====                   =======         ======
           Font8x8_char_127        000F34F6 
    -------------------------------------------------------------------------
NEAR_CONST
  Relative segment, address: 000F3500 - 000F3509 (0xa bytes), align: 1
  Segment part 130.           Intra module refs:   Font8x8_table
           ENTRY                   ADDRESS         REF BY
           =====                   =======         ======
           Font8x8_char_128        000F3500 
    -------------------------------------------------------------------------
NEAR_CONST
  Relative segment, address: 000F350A - 000F3513 (0xa bytes), align: 1
  Segment part 131.           Intra module refs:   Font8x8_table
           ENTRY                   ADDRESS         REF BY
           =====                   =======         ======
           Font8x8_char_129        000F350A 
    -------------------------------------------------------------------------
NEAR_CONST
  Relative segment, address: 000F3514 - 000F351D (0xa bytes), align: 1
  Segment part 132.           Intra module refs:   Font8x8_table
           ENTRY                   ADDRESS         REF BY
           =====                   =======         ======
           Font8x8_char_130        000F3514 
    -------------------------------------------------------------------------
NEAR_CONST
  Relative segment, address: 000F351E - 000F3527 (0xa bytes), align: 1
  Segment part 133.           Intra module refs:   Font8x8_table
           ENTRY                   ADDRESS         REF BY
           =====                   =======         ======
           Font8x8_char_131        000F351E 
    -------------------------------------------------------------------------
NEAR_CONST
  Relative segment, address: 000F3528 - 000F3531 (0xa bytes), align: 1
  Segment part 134.           Intra module refs:   Font8x8_table
           ENTRY                   ADDRESS         REF BY
           =====                   =======         ======
           Font8x8_char_132        000F3528 
    -------------------------------------------------------------------------
NEAR_CONST
  Relative segment, address: 000F3532 - 000F353B (0xa bytes), align: 1
  Segment part 135.           Intra module refs:   Font8x8_table
           ENTRY                   ADDRESS         REF BY
           =====                   =======         ======
           Font8x8_char_133        000F3532 
    -------------------------------------------------------------------------
NEAR_CONST
  Relative segment, address: 000F353C - 000F3545 (0xa bytes), align: 1
  Segment part 136.           Intra module refs:   Font8x8_table
           ENTRY                   ADDRESS         REF BY
           =====                   =======         ======
           Font8x8_char_134        000F353C 
    -------------------------------------------------------------------------
NEAR_CONST
  Relative segment, address: 000F3546 - 000F354F (0xa bytes), align: 1
  Segment part 137.           Intra module refs:   Font8x8_table
           ENTRY                   ADDRESS         REF BY
           =====                   =======         ======
           Font8x8_char_135        000F3546 
    -------------------------------------------------------------------------
NEAR_CONST
  Relative segment, address: 000F3550 - 000F3559 (0xa bytes), align: 1
  Segment part 138.           Intra module refs:   Font8x8_table
           ENTRY                   ADDRESS         REF BY
           =====                   =======         ======
           Font8x8_char_136        000F3550 
    -------------------------------------------------------------------------
NEAR_CONST
  Relative segment, address: 000F355A - 000F3563 (0xa bytes), align: 1
  Segment part 139.           Intra module refs:   Font8x8_table
           ENTRY                   ADDRESS         REF BY
           =====                   =======         ======
           Font8x8_char_137        000F355A 
    -------------------------------------------------------------------------
NEAR_CONST
  Relative segment, address: 000F3564 - 000F356D (0xa bytes), align: 1
  Segment part 140.           Intra module refs:   Font8x8_table
           ENTRY                   ADDRESS         REF BY
           =====                   =======         ======
           Font8x8_char_138        000F3564 
    -------------------------------------------------------------------------
NEAR_CONST
  Relative segment, address: 000F356E - 000F3577 (0xa bytes), align: 1
  Segment part 141.           Intra module refs:   Font8x8_table
           ENTRY                   ADDRESS         REF BY
           =====                   =======         ======
           Font8x8_char_139        000F356E 
    -------------------------------------------------------------------------
NEAR_CONST
  Relative segment, address: 000F3578 - 000F3581 (0xa bytes), align: 1
  Segment part 142.           Intra module refs:   Font8x8_table
           ENTRY                   ADDRESS         REF BY
           =====                   =======         ======
           Font8x8_char_140        000F3578 
    -------------------------------------------------------------------------
NEAR_CONST
  Relative segment, address: 000F3582 - 000F358B (0xa bytes), align: 1
  Segment part 143.           Intra module refs:   Font8x8_table
           ENTRY                   ADDRESS         REF BY
           =====                   =======         ======
           Font8x8_char_141        000F3582 
    -------------------------------------------------------------------------
NEAR_CONST
  Relative segment, address: 000F358C - 000F3595 (0xa bytes), align: 1
  Segment part 144.           Intra module refs:   Font8x8_table
           ENTRY                   ADDRESS         REF BY
           =====                   =======         ======
           Font8x8_char_142        000F358C 
    -------------------------------------------------------------------------
NEAR_CONST
  Relative segment, address: 000F3596 - 000F359F (0xa bytes), align: 1
  Segment part 145.           Intra module refs:   Font8x8_table
           ENTRY                   ADDRESS         REF BY
           =====                   =======         ======
           Font8x8_char_143        000F3596 
    -------------------------------------------------------------------------
NEAR_CONST
  Relative segment, address: 000F35A0 - 000F35A9 (0xa bytes), align: 1
  Segment part 146.           Intra module refs:   Font8x8_table
           ENTRY                   ADDRESS         REF BY
           =====                   =======         ======
           Font8x8_char_144        000F35A0 
    -------------------------------------------------------------------------
NEAR_CONST
  Relative segment, address: 000F35AA - 000F35B3 (0xa bytes), align: 1
  Segment part 147.           Intra module refs:   Font8x8_table
           ENTRY                   ADDRESS         REF BY
           =====                   =======         ======
           Font8x8_char_145        000F35AA 
    -------------------------------------------------------------------------
NEAR_CONST
  Relative segment, address: 000F35B4 - 000F35BD (0xa bytes), align: 1
  Segment part 148.           Intra module refs:   Font8x8_table
           ENTRY                   ADDRESS         REF BY
           =====                   =======         ======
           Font8x8_char_146        000F35B4 
    -------------------------------------------------------------------------
NEAR_CONST
  Relative segment, address: 000F35BE - 000F35C7 (0xa bytes), align: 1
  Segment part 149.           Intra module refs:   Font8x8_table
           ENTRY                   ADDRESS         REF BY
           =====                   =======         ======
           Font8x8_char_147        000F35BE 
    -------------------------------------------------------------------------
NEAR_CONST
  Relative segment, address: 000F35C8 - 000F35D1 (0xa bytes), align: 1
  Segment part 150.           Intra module refs:   Font8x8_table
           ENTRY                   ADDRESS         REF BY
           =====                   =======         ======
           Font8x8_char_148        000F35C8 
    -------------------------------------------------------------------------
NEAR_CONST
  Relative segment, address: 000F35D2 - 000F35DB (0xa bytes), align: 1
  Segment part 151.           Intra module refs:   Font8x8_table
           ENTRY                   ADDRESS         REF BY
           =====                   =======         ======
           Font8x8_char_149        000F35D2 
    -------------------------------------------------------------------------
NEAR_CONST
  Relative segment, address: 000F35DC - 000F35E5 (0xa bytes), align: 1
  Segment part 152.           Intra module refs:   Font8x8_table
           ENTRY                   ADDRESS         REF BY
           =====                   =======         ======
           Font8x8_char_150        000F35DC 
    -------------------------------------------------------------------------
NEAR_CONST
  Relative segment, address: 000F35E6 - 000F35EF (0xa bytes), align: 1
  Segment part 153.           Intra module refs:   Font8x8_table
           ENTRY                   ADDRESS         REF BY
           =====                   =======         ======
           Font8x8_char_151        000F35E6 
    -------------------------------------------------------------------------
NEAR_CONST
  Relative segment, address: 000F35F0 - 000F35F9 (0xa bytes), align: 1
  Segment part 154.           Intra module refs:   Font8x8_table
           ENTRY                   ADDRESS         REF BY
           =====                   =======         ======
           Font8x8_char_152        000F35F0 
    -------------------------------------------------------------------------
NEAR_CONST
  Relative segment, address: 000F35FA - 000F3603 (0xa bytes), align: 1
  Segment part 155.           Intra module refs:   Font8x8_table
           ENTRY                   ADDRESS         REF BY
           =====                   =======         ======
           Font8x8_char_153        000F35FA 
    -------------------------------------------------------------------------
NEAR_CONST
  Relative segment, address: 000F3604 - 000F360D (0xa bytes), align: 1
  Segment part 156.           Intra module refs:   Font8x8_table
           ENTRY                   ADDRESS         REF BY
           =====                   =======         ======
           Font8x8_char_154        000F3604 
    -------------------------------------------------------------------------
NEAR_CONST
  Relative segment, address: 000F360E - 000F3617 (0xa bytes), align: 1
  Segment part 157.           Intra module refs:   Font8x8_table
           ENTRY                   ADDRESS         REF BY
           =====                   =======         ======
           Font8x8_char_155        000F360E 
    -------------------------------------------------------------------------
NEAR_CONST
  Relative segment, address: 000F3618 - 000F3621 (0xa bytes), align: 1
  Segment part 158.           Intra module refs:   Font8x8_table
           ENTRY                   ADDRESS         REF BY
           =====                   =======         ======
           Font8x8_char_156        000F3618 
    -------------------------------------------------------------------------
NEAR_CONST
  Relative segment, address: 000F3622 - 000F362B (0xa bytes), align: 1
  Segment part 159.           Intra module refs:   Font8x8_table
           ENTRY                   ADDRESS         REF BY
           =====                   =======         ======
           Font8x8_char_157        000F3622 
    -------------------------------------------------------------------------
NEAR_CONST
  Relative segment, address: 000F362C - 000F3635 (0xa bytes), align: 1
  Segment part 160.           Intra module refs:   Font8x8_table
           ENTRY                   ADDRESS         REF BY
           =====                   =======         ======
           Font8x8_char_158        000F362C 
    -------------------------------------------------------------------------
NEAR_CONST
  Relative segment, address: 000F3636 - 000F363F (0xa bytes), align: 1
  Segment part 161.           Intra module refs:   Font8x8_table
           ENTRY                   ADDRESS         REF BY
           =====                   =======         ======
           Font8x8_char_159        000F3636 
    -------------------------------------------------------------------------
NEAR_CONST
  Relative segment, address: 000F3640 - 000F3649 (0xa bytes), align: 1
  Segment part 162.           Intra module refs:   Font8x8_table
           ENTRY                   ADDRESS         REF BY
           =====                   =======         ======
           Font8x8_char_160        000F3640 
    -------------------------------------------------------------------------
NEAR_CONST
  Relative segment, address: 000F364A - 000F3653 (0xa bytes), align: 1
  Segment part 163.           Intra module refs:   Font8x8_table
           ENTRY                   ADDRESS         REF BY
           =====                   =======         ======
           Font8x8_char_161        000F364A 
    -------------------------------------------------------------------------
NEAR_CONST
  Relative segment, address: 000F3654 - 000F365D (0xa bytes), align: 1
  Segment part 164.           Intra module refs:   Font8x8_table
           ENTRY                   ADDRESS         REF BY
           =====                   =======         ======
           Font8x8_char_162        000F3654 
    -------------------------------------------------------------------------
NEAR_CONST
  Relative segment, address: 000F365E - 000F3667 (0xa bytes), align: 1
  Segment part 165.           Intra module refs:   Font8x8_table
           ENTRY                   ADDRESS         REF BY
           =====                   =======         ======
           Font8x8_char_163        000F365E 
    -------------------------------------------------------------------------
NEAR_CONST
  Relative segment, address: 000F3668 - 000F3671 (0xa bytes), align: 1
  Segment part 166.           Intra module refs:   Font8x8_table
           ENTRY                   ADDRESS         REF BY
           =====                   =======         ======
           Font8x8_char_164        000F3668 
    -------------------------------------------------------------------------
NEAR_CONST
  Relative segment, address: 000F3672 - 000F367B (0xa bytes), align: 1
  Segment part 167.           Intra module refs:   Font8x8_table
           ENTRY                   ADDRESS         REF BY
           =====                   =======         ======
           Font8x8_char_165        000F3672 
    -------------------------------------------------------------------------
NEAR_CONST
  Relative segment, address: 000F367C - 000F3685 (0xa bytes), align: 1
  Segment part 168.           Intra module refs:   Font8x8_table
           ENTRY                   ADDRESS         REF BY
           =====                   =======         ======
           Font8x8_char_166        000F367C 
    -------------------------------------------------------------------------
NEAR_CONST
  Relative segment, address: 000F3686 - 000F368F (0xa bytes), align: 1
  Segment part 169.           Intra module refs:   Font8x8_table
           ENTRY                   ADDRESS         REF BY
           =====                   =======         ======
           Font8x8_char_167        000F3686 
    -------------------------------------------------------------------------
NEAR_CONST
  Relative segment, address: 000F3690 - 000F3699 (0xa bytes), align: 1
  Segment part 170.           Intra module refs:   Font8x8_table
           ENTRY                   ADDRESS         REF BY
           =====                   =======         ======
           Font8x8_char_168        000F3690 
    -------------------------------------------------------------------------
NEAR_CONST
  Relative segment, address: 000F369A - 000F36A3 (0xa bytes), align: 1
  Segment part 171.           Intra module refs:   Font8x8_table
           ENTRY                   ADDRESS         REF BY
           =====                   =======         ======
           Font8x8_char_169        000F369A 
    -------------------------------------------------------------------------
NEAR_CONST
  Relative segment, address: 000F36A4 - 000F36AD (0xa bytes), align: 1
  Segment part 172.           Intra module refs:   Font8x8_table
           ENTRY                   ADDRESS         REF BY
           =====                   =======         ======
           Font8x8_char_170        000F36A4 
    -------------------------------------------------------------------------
NEAR_CONST
  Relative segment, address: 000F36AE - 000F36B7 (0xa bytes), align: 1
  Segment part 173.           Intra module refs:   Font8x8_table
           ENTRY                   ADDRESS         REF BY
           =====                   =======         ======
           Font8x8_char_171        000F36AE 
    -------------------------------------------------------------------------
NEAR_CONST
  Relative segment, address: 000F36B8 - 000F36C1 (0xa bytes), align: 1
  Segment part 174.           Intra module refs:   Font8x8_table
           ENTRY                   ADDRESS         REF BY
           =====                   =======         ======
           Font8x8_char_172        000F36B8 
    -------------------------------------------------------------------------
NEAR_CONST
  Relative segment, address: 000F36C2 - 000F36CB (0xa bytes), align: 1
  Segment part 175.           Intra module refs:   Font8x8_table
           ENTRY                   ADDRESS         REF BY
           =====                   =======         ======
           Font8x8_char_173        000F36C2 
    -------------------------------------------------------------------------
NEAR_CONST
  Relative segment, address: 000F36CC - 000F36D5 (0xa bytes), align: 1
  Segment part 176.           Intra module refs:   Font8x8_table
           ENTRY                   ADDRESS         REF BY
           =====                   =======         ======
           Font8x8_char_174        000F36CC 
    -------------------------------------------------------------------------
NEAR_CONST
  Relative segment, address: 000F36D6 - 000F36DF (0xa bytes), align: 1
  Segment part 177.           Intra module refs:   Font8x8_table
           ENTRY                   ADDRESS         REF BY
           =====                   =======         ======
           Font8x8_char_175        000F36D6 
    -------------------------------------------------------------------------
NEAR_CONST
  Relative segment, address: 000F36E0 - 000F36E9 (0xa bytes), align: 1
  Segment part 178.           Intra module refs:   Font8x8_table
           ENTRY                   ADDRESS         REF BY
           =====                   =======         ======
           Font8x8_char_176        000F36E0 
    -------------------------------------------------------------------------
NEAR_CONST
  Relative segment, address: 000F36EA - 000F36F3 (0xa bytes), align: 1
  Segment part 179.           Intra module refs:   Font8x8_table
           ENTRY                   ADDRESS         REF BY
           =====                   =======         ======
           Font8x8_char_177        000F36EA 
    -------------------------------------------------------------------------
NEAR_CONST
  Relative segment, address: 000F36F4 - 000F36FD (0xa bytes), align: 1
  Segment part 180.           Intra module refs:   Font8x8_table
           ENTRY                   ADDRESS         REF BY
           =====                   =======         ======
           Font8x8_char_178        000F36F4 
    -------------------------------------------------------------------------
NEAR_CONST
  Relative segment, address: 000F36FE - 000F3707 (0xa bytes), align: 1
  Segment part 181.           Intra module refs:   Font8x8_table
           ENTRY                   ADDRESS         REF BY
           =====                   =======         ======
           Font8x8_char_179        000F36FE 
    -------------------------------------------------------------------------
NEAR_CONST
  Relative segment, address: 000F3708 - 000F3711 (0xa bytes), align: 1
  Segment part 182.           Intra module refs:   Font8x8_table
           ENTRY                   ADDRESS         REF BY
           =====                   =======         ======
           Font8x8_char_180        000F3708 
    -------------------------------------------------------------------------
NEAR_CONST
  Relative segment, address: 000F3712 - 000F371B (0xa bytes), align: 1
  Segment part 183.           Intra module refs:   Font8x8_table
           ENTRY                   ADDRESS         REF BY
           =====                   =======         ======
           Font8x8_char_181        000F3712 
    -------------------------------------------------------------------------
NEAR_CONST
  Relative segment, address: 000F371C - 000F3725 (0xa bytes), align: 1
  Segment part 184.           Intra module refs:   Font8x8_table
           ENTRY                   ADDRESS         REF BY
           =====                   =======         ======
           Font8x8_char_182        000F371C 
    -------------------------------------------------------------------------
NEAR_CONST
  Relative segment, address: 000F3726 - 000F372F (0xa bytes), align: 1
  Segment part 185.           Intra module refs:   Font8x8_table
           ENTRY                   ADDRESS         REF BY
           =====                   =======         ======
           Font8x8_char_183        000F3726 
    -------------------------------------------------------------------------
NEAR_CONST
  Relative segment, address: 000F3730 - 000F3739 (0xa bytes), align: 1
  Segment part 186.           Intra module refs:   Font8x8_table
           ENTRY                   ADDRESS         REF BY
           =====                   =======         ======
           Font8x8_char_184        000F3730 
    -------------------------------------------------------------------------
NEAR_CONST
  Relative segment, address: 000F373A - 000F3743 (0xa bytes), align: 1
  Segment part 187.           Intra module refs:   Font8x8_table
           ENTRY                   ADDRESS         REF BY
           =====                   =======         ======
           Font8x8_char_185        000F373A 
    -------------------------------------------------------------------------
NEAR_CONST
  Relative segment, address: 000F3744 - 000F374D (0xa bytes), align: 1
  Segment part 188.           Intra module refs:   Font8x8_table
           ENTRY                   ADDRESS         REF BY
           =====                   =======         ======
           Font8x8_char_186        000F3744 
    -------------------------------------------------------------------------
NEAR_CONST
  Relative segment, address: 000F374E - 000F3757 (0xa bytes), align: 1
  Segment part 189.           Intra module refs:   Font8x8_table
           ENTRY                   ADDRESS         REF BY
           =====                   =======         ======
           Font8x8_char_187        000F374E 
    -------------------------------------------------------------------------
NEAR_CONST
  Relative segment, address: 000F3758 - 000F3761 (0xa bytes), align: 1
  Segment part 190.           Intra module refs:   Font8x8_table
           ENTRY                   ADDRESS         REF BY
           =====                   =======         ======
           Font8x8_char_188        000F3758 
    -------------------------------------------------------------------------
NEAR_CONST
  Relative segment, address: 000F3762 - 000F376B (0xa bytes), align: 1
  Segment part 191.           Intra module refs:   Font8x8_table
           ENTRY                   ADDRESS         REF BY
           =====                   =======         ======
           Font8x8_char_189        000F3762 
    -------------------------------------------------------------------------
NEAR_CONST
  Relative segment, address: 000F376C - 000F3775 (0xa bytes), align: 1
  Segment part 192.           Intra module refs:   Font8x8_table
           ENTRY                   ADDRESS         REF BY
           =====                   =======         ======
           Font8x8_char_190        000F376C 
    -------------------------------------------------------------------------
NEAR_CONST
  Relative segment, address: 000F3776 - 000F377F (0xa bytes), align: 1
  Segment part 193.           Intra module refs:   Font8x8_table
           ENTRY                   ADDRESS         REF BY
           =====                   =======         ======
           Font8x8_char_191        000F3776 
    -------------------------------------------------------------------------
NEAR_CONST
  Relative segment, address: 000F3780 - 000F3789 (0xa bytes), align: 1
  Segment part 194.           Intra module refs:   Font8x8_table
           ENTRY                   ADDRESS         REF BY
           =====                   =======         ======
           Font8x8_char_192        000F3780 
    -------------------------------------------------------------------------
NEAR_CONST
  Relative segment, address: 000F378A - 000F3793 (0xa bytes), align: 1
  Segment part 195.           Intra module refs:   Font8x8_table
           ENTRY                   ADDRESS         REF BY
           =====                   =======         ======
           Font8x8_char_193        000F378A 
    -------------------------------------------------------------------------
NEAR_CONST
  Relative segment, address: 000F3794 - 000F379D (0xa bytes), align: 1
  Segment part 196.           Intra module refs:   Font8x8_table
           ENTRY                   ADDRESS         REF BY
           =====                   =======         ======
           Font8x8_char_194        000F3794 
    -------------------------------------------------------------------------
NEAR_CONST
  Relative segment, address: 000F379E - 000F37A7 (0xa bytes), align: 1
  Segment part 197.           Intra module refs:   Font8x8_table
           ENTRY                   ADDRESS         REF BY
           =====                   =======         ======
           Font8x8_char_195        000F379E 
    -------------------------------------------------------------------------
NEAR_CONST
  Relative segment, address: 000F37A8 - 000F37B1 (0xa bytes), align: 1
  Segment part 198.           Intra module refs:   Font8x8_table
           ENTRY                   ADDRESS         REF BY
           =====                   =======         ======
           Font8x8_char_196        000F37A8 
    -------------------------------------------------------------------------
NEAR_CONST
  Relative segment, address: 000F37B2 - 000F37BB (0xa bytes), align: 1
  Segment part 199.           Intra module refs:   Font8x8_table
           ENTRY                   ADDRESS         REF BY
           =====                   =======         ======
           Font8x8_char_197        000F37B2 
    -------------------------------------------------------------------------
NEAR_CONST
  Relative segment, address: 000F37BC - 000F37C5 (0xa bytes), align: 1
  Segment part 200.           Intra module refs:   Font8x8_table
           ENTRY                   ADDRESS         REF BY
           =====                   =======         ======
           Font8x8_char_198        000F37BC 
    -------------------------------------------------------------------------
NEAR_CONST
  Relative segment, address: 000F37C6 - 000F37CF (0xa bytes), align: 1
  Segment part 201.           Intra module refs:   Font8x8_table
           ENTRY                   ADDRESS         REF BY
           =====                   =======         ======
           Font8x8_char_199        000F37C6 
    -------------------------------------------------------------------------
NEAR_CONST
  Relative segment, address: 000F37D0 - 000F37D9 (0xa bytes), align: 1
  Segment part 202.           Intra module refs:   Font8x8_table
           ENTRY                   ADDRESS         REF BY
           =====                   =======         ======
           Font8x8_char_200        000F37D0 
    -------------------------------------------------------------------------
NEAR_CONST
  Relative segment, address: 000F37DA - 000F37E3 (0xa bytes), align: 1
  Segment part 203.           Intra module refs:   Font8x8_table
           ENTRY                   ADDRESS         REF BY
           =====                   =======         ======
           Font8x8_char_201        000F37DA 
    -------------------------------------------------------------------------
NEAR_CONST
  Relative segment, address: 000F37E4 - 000F37ED (0xa bytes), align: 1
  Segment part 204.           Intra module refs:   Font8x8_table
           ENTRY                   ADDRESS         REF BY
           =====                   =======         ======
           Font8x8_char_202        000F37E4 
    -------------------------------------------------------------------------
NEAR_CONST
  Relative segment, address: 000F37EE - 000F37F7 (0xa bytes), align: 1
  Segment part 205.           Intra module refs:   Font8x8_table
           ENTRY                   ADDRESS         REF BY
           =====                   =======         ======
           Font8x8_char_203        000F37EE 
    -------------------------------------------------------------------------
NEAR_CONST
  Relative segment, address: 000F37F8 - 000F3801 (0xa bytes), align: 1
  Segment part 206.           Intra module refs:   Font8x8_table
           ENTRY                   ADDRESS         REF BY
           =====                   =======         ======
           Font8x8_char_204        000F37F8 
    -------------------------------------------------------------------------
NEAR_CONST
  Relative segment, address: 000F3802 - 000F380B (0xa bytes), align: 1
  Segment part 207.           Intra module refs:   Font8x8_table
           ENTRY                   ADDRESS         REF BY
           =====                   =======         ======
           Font8x8_char_205        000F3802 
    -------------------------------------------------------------------------
NEAR_CONST
  Relative segment, address: 000F380C - 000F3815 (0xa bytes), align: 1
  Segment part 208.           Intra module refs:   Font8x8_table
           ENTRY                   ADDRESS         REF BY
           =====                   =======         ======
           Font8x8_char_206        000F380C 
    -------------------------------------------------------------------------
NEAR_CONST
  Relative segment, address: 000F3816 - 000F381F (0xa bytes), align: 1
  Segment part 209.           Intra module refs:   Font8x8_table
           ENTRY                   ADDRESS         REF BY
           =====                   =======         ======
           Font8x8_char_207        000F3816 
    -------------------------------------------------------------------------
NEAR_CONST
  Relative segment, address: 000F3820 - 000F3829 (0xa bytes), align: 1
  Segment part 210.           Intra module refs:   Font8x8_table
           ENTRY                   ADDRESS         REF BY
           =====                   =======         ======
           Font8x8_char_208        000F3820 
    -------------------------------------------------------------------------
NEAR_CONST
  Relative segment, address: 000F382A - 000F3833 (0xa bytes), align: 1
  Segment part 211.           Intra module refs:   Font8x8_table
           ENTRY                   ADDRESS         REF BY
           =====                   =======         ======
           Font8x8_char_209        000F382A 
    -------------------------------------------------------------------------
NEAR_CONST
  Relative segment, address: 000F3834 - 000F383D (0xa bytes), align: 1
  Segment part 212.           Intra module refs:   Font8x8_table
           ENTRY                   ADDRESS         REF BY
           =====                   =======         ======
           Font8x8_char_210        000F3834 
    -------------------------------------------------------------------------
NEAR_CONST
  Relative segment, address: 000F383E - 000F3847 (0xa bytes), align: 1
  Segment part 213.           Intra module refs:   Font8x8_table
           ENTRY                   ADDRESS         REF BY
           =====                   =======         ======
           Font8x8_char_211        000F383E 
    -------------------------------------------------------------------------
NEAR_CONST
  Relative segment, address: 000F3848 - 000F3851 (0xa bytes), align: 1
  Segment part 214.           Intra module refs:   Font8x8_table
           ENTRY                   ADDRESS         REF BY
           =====                   =======         ======
           Font8x8_char_212        000F3848 
    -------------------------------------------------------------------------
NEAR_CONST
  Relative segment, address: 000F3852 - 000F385B (0xa bytes), align: 1
  Segment part 215.           Intra module refs:   Font8x8_table
           ENTRY                   ADDRESS         REF BY
           =====                   =======         ======
           Font8x8_char_213        000F3852 
    -------------------------------------------------------------------------
NEAR_CONST
  Relative segment, address: 000F385C - 000F3865 (0xa bytes), align: 1
  Segment part 216.           Intra module refs:   Font8x8_table
           ENTRY                   ADDRESS         REF BY
           =====                   =======         ======
           Font8x8_char_214        000F385C 
    -------------------------------------------------------------------------
NEAR_CONST
  Relative segment, address: 000F3866 - 000F386F (0xa bytes), align: 1
  Segment part 217.           Intra module refs:   Font8x8_table
           ENTRY                   ADDRESS         REF BY
           =====                   =======         ======
           Font8x8_char_215        000F3866 
    -------------------------------------------------------------------------
NEAR_CONST
  Relative segment, address: 000F3870 - 000F3879 (0xa bytes), align: 1
  Segment part 218.           Intra module refs:   Font8x8_table
           ENTRY                   ADDRESS         REF BY
           =====                   =======         ======
           Font8x8_char_216        000F3870 
    -------------------------------------------------------------------------
NEAR_CONST
  Relative segment, address: 000F387A - 000F3883 (0xa bytes), align: 1
  Segment part 219.           Intra module refs:   Font8x8_table
           ENTRY                   ADDRESS         REF BY
           =====                   =======         ======
           Font8x8_char_217        000F387A 
    -------------------------------------------------------------------------
NEAR_CONST
  Relative segment, address: 000F3884 - 000F388D (0xa bytes), align: 1
  Segment part 220.           Intra module refs:   Font8x8_table
           ENTRY                   ADDRESS         REF BY
           =====                   =======         ======
           Font8x8_char_218        000F3884 
    -------------------------------------------------------------------------
NEAR_CONST
  Relative segment, address: 000F388E - 000F3897 (0xa bytes), align: 1
  Segment part 221.           Intra module refs:   Font8x8_table
           ENTRY                   ADDRESS         REF BY
           =====                   =======         ======
           Font8x8_char_219        000F388E 
    -------------------------------------------------------------------------
NEAR_CONST
  Relative segment, address: 000F3898 - 000F38A1 (0xa bytes), align: 1
  Segment part 222.           Intra module refs:   Font8x8_table
           ENTRY                   ADDRESS         REF BY
           =====                   =======         ======
           Font8x8_char_220        000F3898 
    -------------------------------------------------------------------------
NEAR_CONST
  Relative segment, address: 000F38A2 - 000F38AB (0xa bytes), align: 1
  Segment part 223.           Intra module refs:   Font8x8_table
           ENTRY                   ADDRESS         REF BY
           =====                   =======         ======
           Font8x8_char_221        000F38A2 
    -------------------------------------------------------------------------
NEAR_CONST
  Relative segment, address: 000F38AC - 000F38B5 (0xa bytes), align: 1
  Segment part 224.           Intra module refs:   Font8x8_table
           ENTRY                   ADDRESS         REF BY
           =====                   =======         ======
           Font8x8_char_222        000F38AC 
    -------------------------------------------------------------------------
NEAR_CONST
  Relative segment, address: 000F38B6 - 000F38BF (0xa bytes), align: 1
  Segment part 225.           Intra module refs:   Font8x8_table
           ENTRY                   ADDRESS         REF BY
           =====                   =======         ======
           Font8x8_char_223        000F38B6 
    -------------------------------------------------------------------------
NEAR_CONST
  Relative segment, address: 000F38C0 - 000F38C9 (0xa bytes), align: 1
  Segment part 226.           Intra module refs:   Font8x8_table
           ENTRY                   ADDRESS         REF BY
           =====                   =======         ======
           Font8x8_char_224        000F38C0 
    -------------------------------------------------------------------------
NEAR_CONST
  Relative segment, address: 000F38CA - 000F38D3 (0xa bytes), align: 1
  Segment part 227.           Intra module refs:   Font8x8_table
           ENTRY                   ADDRESS         REF BY
           =====                   =======         ======
           Font8x8_char_225        000F38CA 
    -------------------------------------------------------------------------
NEAR_CONST
  Relative segment, address: 000F38D4 - 000F38DD (0xa bytes), align: 1
  Segment part 228.           Intra module refs:   Font8x8_table
           ENTRY                   ADDRESS         REF BY
           =====                   =======         ======
           Font8x8_char_226        000F38D4 
    -------------------------------------------------------------------------
NEAR_CONST
  Relative segment, address: 000F38DE - 000F38E7 (0xa bytes), align: 1
  Segment part 229.           Intra module refs:   Font8x8_table
           ENTRY                   ADDRESS         REF BY
           =====                   =======         ======
           Font8x8_char_227        000F38DE 
    -------------------------------------------------------------------------
NEAR_CONST
  Relative segment, address: 000F38E8 - 000F38F1 (0xa bytes), align: 1
  Segment part 230.           Intra module refs:   Font8x8_table
           ENTRY                   ADDRESS         REF BY
           =====                   =======         ======
           Font8x8_char_228        000F38E8 
    -------------------------------------------------------------------------
NEAR_CONST
  Relative segment, address: 000F38F2 - 000F38FB (0xa bytes), align: 1
  Segment part 231.           Intra module refs:   Font8x8_table
           ENTRY                   ADDRESS         REF BY
           =====                   =======         ======
           Font8x8_char_229        000F38F2 
    -------------------------------------------------------------------------
NEAR_CONST
  Relative segment, address: 000F38FC - 000F3905 (0xa bytes), align: 1
  Segment part 232.           Intra module refs:   Font8x8_table
           ENTRY                   ADDRESS         REF BY
           =====                   =======         ======
           Font8x8_char_230        000F38FC 
    -------------------------------------------------------------------------
NEAR_CONST
  Relative segment, address: 000F3906 - 000F390F (0xa bytes), align: 1
  Segment part 233.           Intra module refs:   Font8x8_table
           ENTRY                   ADDRESS         REF BY
           =====                   =======         ======
           Font8x8_char_231        000F3906 
    -------------------------------------------------------------------------
NEAR_CONST
  Relative segment, address: 000F3910 - 000F3919 (0xa bytes), align: 1
  Segment part 234.           Intra module refs:   Font8x8_table
           ENTRY                   ADDRESS         REF BY
           =====                   =======         ======
           Font8x8_char_232        000F3910 
    -------------------------------------------------------------------------
NEAR_CONST
  Relative segment, address: 000F391A - 000F3923 (0xa bytes), align: 1
  Segment part 235.           Intra module refs:   Font8x8_table
           ENTRY                   ADDRESS         REF BY
           =====                   =======         ======
           Font8x8_char_233        000F391A 
    -------------------------------------------------------------------------
NEAR_CONST
  Relative segment, address: 000F3924 - 000F392D (0xa bytes), align: 1
  Segment part 236.           Intra module refs:   Font8x8_table
           ENTRY                   ADDRESS         REF BY
           =====                   =======         ======
           Font8x8_char_234        000F3924 
    -------------------------------------------------------------------------
NEAR_CONST
  Relative segment, address: 000F392E - 000F3937 (0xa bytes), align: 1
  Segment part 237.           Intra module refs:   Font8x8_table
           ENTRY                   ADDRESS         REF BY
           =====                   =======         ======
           Font8x8_char_235        000F392E 
    -------------------------------------------------------------------------
NEAR_CONST
  Relative segment, address: 000F3938 - 000F3941 (0xa bytes), align: 1
  Segment part 238.           Intra module refs:   Font8x8_table
           ENTRY                   ADDRESS         REF BY
           =====                   =======         ======
           Font8x8_char_236        000F3938 
    -------------------------------------------------------------------------
NEAR_CONST
  Relative segment, address: 000F3942 - 000F394B (0xa bytes), align: 1
  Segment part 239.           Intra module refs:   Font8x8_table
           ENTRY                   ADDRESS         REF BY
           =====                   =======         ======
           Font8x8_char_237        000F3942 
    -------------------------------------------------------------------------
NEAR_CONST
  Relative segment, address: 000F394C - 000F3955 (0xa bytes), align: 1
  Segment part 240.           Intra module refs:   Font8x8_table
           ENTRY                   ADDRESS         REF BY
           =====                   =======         ======
           Font8x8_char_238        000F394C 
    -------------------------------------------------------------------------
NEAR_CONST
  Relative segment, address: 000F3956 - 000F395F (0xa bytes), align: 1
  Segment part 241.           Intra module refs:   Font8x8_table
           ENTRY                   ADDRESS         REF BY
           =====                   =======         ======
           Font8x8_char_239        000F3956 
    -------------------------------------------------------------------------
NEAR_CONST
  Relative segment, address: 000F3960 - 000F3969 (0xa bytes), align: 1
  Segment part 242.           Intra module refs:   Font8x8_table
           ENTRY                   ADDRESS         REF BY
           =====                   =======         ======
           Font8x8_char_240        000F3960 
    -------------------------------------------------------------------------
NEAR_CONST
  Relative segment, address: 000F396A - 000F3973 (0xa bytes), align: 1
  Segment part 243.           Intra module refs:   Font8x8_table
           ENTRY                   ADDRESS         REF BY
           =====                   =======         ======
           Font8x8_char_241        000F396A 
    -------------------------------------------------------------------------
NEAR_CONST
  Relative segment, address: 000F3974 - 000F397D (0xa bytes), align: 1
  Segment part 244.           Intra module refs:   Font8x8_table
           ENTRY                   ADDRESS         REF BY
           =====                   =======         ======
           Font8x8_char_242        000F3974 
    -------------------------------------------------------------------------
NEAR_CONST
  Relative segment, address: 000F397E - 000F3987 (0xa bytes), align: 1
  Segment part 245.           Intra module refs:   Font8x8_table
           ENTRY                   ADDRESS         REF BY
           =====                   =======         ======
           Font8x8_char_243        000F397E 
    -------------------------------------------------------------------------
NEAR_CONST
  Relative segment, address: 000F3988 - 000F3991 (0xa bytes), align: 1
  Segment part 246.           Intra module refs:   Font8x8_table
           ENTRY                   ADDRESS         REF BY
           =====                   =======         ======
           Font8x8_char_244        000F3988 
    -------------------------------------------------------------------------
NEAR_CONST
  Relative segment, address: 000F3992 - 000F399B (0xa bytes), align: 1
  Segment part 247.           Intra module refs:   Font8x8_table
           ENTRY                   ADDRESS         REF BY
           =====                   =======         ======
           Font8x8_char_245        000F3992 
    -------------------------------------------------------------------------
NEAR_CONST
  Relative segment, address: 000F399C - 000F39A5 (0xa bytes), align: 1
  Segment part 248.           Intra module refs:   Font8x8_table
           ENTRY                   ADDRESS         REF BY
           =====                   =======         ======
           Font8x8_char_246        000F399C 
    -------------------------------------------------------------------------
NEAR_CONST
  Relative segment, address: 000F39A6 - 000F39AF (0xa bytes), align: 1
  Segment part 249.           Intra module refs:   Font8x8_table
           ENTRY                   ADDRESS         REF BY
           =====                   =======         ======
           Font8x8_char_247        000F39A6 
    -------------------------------------------------------------------------
NEAR_CONST
  Relative segment, address: 000F39B0 - 000F39B9 (0xa bytes), align: 1
  Segment part 250.           Intra module refs:   Font8x8_table
           ENTRY                   ADDRESS         REF BY
           =====                   =======         ======
           Font8x8_char_248        000F39B0 
    -------------------------------------------------------------------------
NEAR_CONST
  Relative segment, address: 000F39BA - 000F39C3 (0xa bytes), align: 1
  Segment part 251.           Intra module refs:   Font8x8_table
           ENTRY                   ADDRESS         REF BY
           =====                   =======         ======
           Font8x8_char_249        000F39BA 
    -------------------------------------------------------------------------
NEAR_CONST
  Relative segment, address: 000F39C4 - 000F39CD (0xa bytes), align: 1
  Segment part 252.           Intra module refs:   Font8x8_table
           ENTRY                   ADDRESS         REF BY
           =====                   =======         ======
           Font8x8_char_250        000F39C4 
    -------------------------------------------------------------------------
NEAR_CONST
  Relative segment, address: 000F39CE - 000F39D7 (0xa bytes), align: 1
  Segment part 253.           Intra module refs:   Font8x8_table
           ENTRY                   ADDRESS         REF BY
           =====                   =======         ======
           Font8x8_char_251        000F39CE 
    -------------------------------------------------------------------------
NEAR_CONST
  Relative segment, address: 000F39D8 - 000F39E1 (0xa bytes), align: 1
  Segment part 254.           Intra module refs:   Font8x8_table
           ENTRY                   ADDRESS         REF BY
           =====                   =======         ======
           Font8x8_char_252        000F39D8 
    -------------------------------------------------------------------------
NEAR_CONST
  Relative segment, address: 000F39E2 - 000F39EB (0xa bytes), align: 1
  Segment part 255.           Intra module refs:   Font8x8_table
           ENTRY                   ADDRESS         REF BY
           =====                   =======         ======
           Font8x8_char_253        000F39E2 
    -------------------------------------------------------------------------
NEAR_CONST
  Relative segment, address: 000F39EC - 000F39F5 (0xa bytes), align: 1
  Segment part 256.           Intra module refs:   Font8x8_table
           ENTRY                   ADDRESS         REF BY
           =====                   =======         ======
           Font8x8_char_254        000F39EC 
    -------------------------------------------------------------------------
NEAR_CONST
  Relative segment, address: 000F39F6 - 000F39FF (0xa bytes), align: 1
  Segment part 257.           Intra module refs:   Font8x8_table
           ENTRY                   ADDRESS         REF BY
           =====                   =======         ======
           Font8x8_char_255        000F39F6 
    -------------------------------------------------------------------------
NEAR_CONST
  Relative segment, address: 000F3A00 - 000F3BFF (0x200 bytes), align: 1
  Segment part 258.
           ENTRY                   ADDRESS         REF BY
           =====                   =======         ======
           Font8x8_table           000F3A00        ST7579_Open (ST7579_LCD)
                                                   ST7579_Write (ST7579_LCD)
    -------------------------------------------------------------------------
NEAR_CONST_ID
  Relative segment, address: 00003000 - 00003009 (0xa bytes), align: 1
  Segment part 259.           Intra module refs:   Font8x8_char_0
    -------------------------------------------------------------------------
NEAR_CONST_ID
  Relative segment, address: 0000300A - 00003013 (0xa bytes), align: 1
  Segment part 260.           Intra module refs:   Font8x8_char_1
    -------------------------------------------------------------------------
NEAR_CONST_ID
  Relative segment, address: 00003014 - 0000301D (0xa bytes), align: 1
  Segment part 261.           Intra module refs:   Font8x8_char_2
    -------------------------------------------------------------------------
NEAR_CONST_ID
  Relative segment, address: 0000301E - 00003027 (0xa bytes), align: 1
  Segment part 262.           Intra module refs:   Font8x8_char_3
    -------------------------------------------------------------------------
NEAR_CONST_ID
  Relative segment, address: 00003028 - 00003031 (0xa bytes), align: 1
  Segment part 263.           Intra module refs:   Font8x8_char_4
    -------------------------------------------------------------------------
NEAR_CONST_ID
  Relative segment, address: 00003032 - 0000303B (0xa bytes), align: 1
  Segment part 264.           Intra module refs:   Font8x8_char_5
    -------------------------------------------------------------------------
NEAR_CONST_ID
  Relative segment, address: 0000303C - 00003045 (0xa bytes), align: 1
  Segment part 265.           Intra module refs:   Font8x8_char_6
    -------------------------------------------------------------------------
NEAR_CONST_ID
  Relative segment, address: 00003046 - 0000304F (0xa bytes), align: 1
  Segment part 266.           Intra module refs:   Font8x8_char_7
    -------------------------------------------------------------------------
NEAR_CONST_ID
  Relative segment, address: 00003050 - 00003059 (0xa bytes), align: 1
  Segment part 267.           Intra module refs:   Font8x8_char_8
    -------------------------------------------------------------------------
NEAR_CONST_ID
  Relative segment, address: 0000305A - 00003063 (0xa bytes), align: 1
  Segment part 268.           Intra module refs:   Font8x8_char_9
    -------------------------------------------------------------------------
NEAR_CONST_ID
  Relative segment, address: 00003064 - 0000306D (0xa bytes), align: 1
  Segment part 269.           Intra module refs:   Font8x8_char_10
    -------------------------------------------------------------------------
NEAR_CONST_ID
  Relative segment, address: 0000306E - 00003077 (0xa bytes), align: 1
  Segment part 270.           Intra module refs:   Font8x8_char_11
    -------------------------------------------------------------------------
NEAR_CONST_ID
  Relative segment, address: 00003078 - 00003081 (0xa bytes), align: 1
  Segment part 271.           Intra module refs:   Font8x8_char_12
    -------------------------------------------------------------------------
NEAR_CONST_ID
  Relative segment, address: 00003082 - 0000308B (0xa bytes), align: 1
  Segment part 272.           Intra module refs:   Font8x8_char_13
    -------------------------------------------------------------------------
NEAR_CONST_ID
  Relative segment, address: 0000308C - 00003095 (0xa bytes), align: 1
  Segment part 273.           Intra module refs:   Font8x8_char_14
    -------------------------------------------------------------------------
NEAR_CONST_ID
  Relative segment, address: 00003096 - 0000309F (0xa bytes), align: 1
  Segment part 274.           Intra module refs:   Font8x8_char_15
    -------------------------------------------------------------------------
NEAR_CONST_ID
  Relative segment, address: 000030A0 - 000030A9 (0xa bytes), align: 1
  Segment part 275.           Intra module refs:   Font8x8_char_16
    -------------------------------------------------------------------------
NEAR_CONST_ID
  Relative segment, address: 000030AA - 000030B3 (0xa bytes), align: 1
  Segment part 276.           Intra module refs:   Font8x8_char_17
    -------------------------------------------------------------------------
NEAR_CONST_ID
  Relative segment, address: 000030B4 - 000030BD (0xa bytes), align: 1
  Segment part 277.           Intra module refs:   Font8x8_char_18
    -------------------------------------------------------------------------
NEAR_CONST_ID
  Relative segment, address: 000030BE - 000030C7 (0xa bytes), align: 1
  Segment part 278.           Intra module refs:   Font8x8_char_19
    -------------------------------------------------------------------------
NEAR_CONST_ID
  Relative segment, address: 000030C8 - 000030D1 (0xa bytes), align: 1
  Segment part 279.           Intra module refs:   Font8x8_char_20
    -------------------------------------------------------------------------
NEAR_CONST_ID
  Relative segment, address: 000030D2 - 000030DB (0xa bytes), align: 1
  Segment part 280.           Intra module refs:   Font8x8_char_21
    -------------------------------------------------------------------------
NEAR_CONST_ID
  Relative segment, address: 000030DC - 000030E5 (0xa bytes), align: 1
  Segment part 281.           Intra module refs:   Font8x8_char_22
    -------------------------------------------------------------------------
NEAR_CONST_ID
  Relative segment, address: 000030E6 - 000030EF (0xa bytes), align: 1
  Segment part 282.           Intra module refs:   Font8x8_char_23
    -------------------------------------------------------------------------
NEAR_CONST_ID
  Relative segment, address: 000030F0 - 000030F9 (0xa bytes), align: 1
  Segment part 283.           Intra module refs:   Font8x8_char_24
    -------------------------------------------------------------------------
NEAR_CONST_ID
  Relative segment, address: 000030FA - 00003103 (0xa bytes), align: 1
  Segment part 284.           Intra module refs:   Font8x8_char_25
    -------------------------------------------------------------------------
NEAR_CONST_ID
  Relative segment, address: 00003104 - 0000310D (0xa bytes), align: 1
  Segment part 285.           Intra module refs:   Font8x8_char_26
    -------------------------------------------------------------------------
NEAR_CONST_ID
  Relative segment, address: 0000310E - 00003117 (0xa bytes), align: 1
  Segment part 286.           Intra module refs:   Font8x8_char_27
    -------------------------------------------------------------------------
NEAR_CONST_ID
  Relative segment, address: 00003118 - 00003121 (0xa bytes), align: 1
  Segment part 287.           Intra module refs:   Font8x8_char_28
    -------------------------------------------------------------------------
NEAR_CONST_ID
  Relative segment, address: 00003122 - 0000312B (0xa bytes), align: 1
  Segment part 288.           Intra module refs:   Font8x8_char_29
    -------------------------------------------------------------------------
NEAR_CONST_ID
  Relative segment, address: 0000312C - 00003135 (0xa bytes), align: 1
  Segment part 289.           Intra module refs:   Font8x8_char_30
    -------------------------------------------------------------------------
NEAR_CONST_ID
  Relative segment, address: 00003136 - 0000313F (0xa bytes), align: 1
  Segment part 290.           Intra module refs:   Font8x8_char_31
    -------------------------------------------------------------------------
NEAR_CONST_ID
  Relative segment, address: 00003140 - 00003149 (0xa bytes), align: 1
  Segment part 291.           Intra module refs:   Font8x8_char_32
    -------------------------------------------------------------------------
NEAR_CONST_ID
  Relative segment, address: 0000314A - 00003153 (0xa bytes), align: 1
  Segment part 292.           Intra module refs:   Font8x8_char_33
    -------------------------------------------------------------------------
NEAR_CONST_ID
  Relative segment, address: 00003154 - 0000315D (0xa bytes), align: 1
  Segment part 293.           Intra module refs:   Font8x8_char_34
    -------------------------------------------------------------------------
NEAR_CONST_ID
  Relative segment, address: 0000315E - 00003167 (0xa bytes), align: 1
  Segment part 294.           Intra module refs:   Font8x8_char_35
    -------------------------------------------------------------------------
NEAR_CONST_ID
  Relative segment, address: 00003168 - 00003171 (0xa bytes), align: 1
  Segment part 295.           Intra module refs:   Font8x8_char_36
    -------------------------------------------------------------------------
NEAR_CONST_ID
  Relative segment, address: 00003172 - 0000317B (0xa bytes), align: 1
  Segment part 296.           Intra module refs:   Font8x8_char_37
    -------------------------------------------------------------------------
NEAR_CONST_ID
  Relative segment, address: 0000317C - 00003185 (0xa bytes), align: 1
  Segment part 297.           Intra module refs:   Font8x8_char_38
    -------------------------------------------------------------------------
NEAR_CONST_ID
  Relative segment, address: 00003186 - 0000318F (0xa bytes), align: 1
  Segment part 298.           Intra module refs:   Font8x8_char_39
    -------------------------------------------------------------------------
NEAR_CONST_ID
  Relative segment, address: 00003190 - 00003199 (0xa bytes), align: 1
  Segment part 299.           Intra module refs:   Font8x8_char_40
    -------------------------------------------------------------------------
NEAR_CONST_ID
  Relative segment, address: 0000319A - 000031A3 (0xa bytes), align: 1
  Segment part 300.           Intra module refs:   Font8x8_char_41
    -------------------------------------------------------------------------
NEAR_CONST_ID
  Relative segment, address: 000031A4 - 000031AD (0xa bytes), align: 1
  Segment part 301.           Intra module refs:   Font8x8_char_42
    -------------------------------------------------------------------------
NEAR_CONST_ID
  Relative segment, address: 000031AE - 000031B7 (0xa bytes), align: 1
  Segment part 302.           Intra module refs:   Font8x8_char_43
    -------------------------------------------------------------------------
NEAR_CONST_ID
  Relative segment, address: 000031B8 - 000031C1 (0xa bytes), align: 1
  Segment part 303.           Intra module refs:   Font8x8_char_44
    -------------------------------------------------------------------------
NEAR_CONST_ID
  Relative segment, address: 000031C2 - 000031CB (0xa bytes), align: 1
  Segment part 304.           Intra module refs:   Font8x8_char_45
    -------------------------------------------------------------------------
NEAR_CONST_ID
  Relative segment, address: 000031CC - 000031D5 (0xa bytes), align: 1
  Segment part 305.           Intra module refs:   Font8x8_char_46
    -------------------------------------------------------------------------
NEAR_CONST_ID
  Relative segment, address: 000031D6 - 000031DF (0xa bytes), align: 1
  Segment part 306.           Intra module refs:   Font8x8_char_47
    -------------------------------------------------------------------------
NEAR_CONST_ID
  Relative segment, address: 000031E0 - 000031E9 (0xa bytes), align: 1
  Segment part 307.           Intra module refs:   Font8x8_char_48
    -------------------------------------------------------------------------
NEAR_CONST_ID
  Relative segment, address: 000031EA - 000031F3 (0xa bytes), align: 1
  Segment part 308.           Intra module refs:   Font8x8_char_49
    -------------------------------------------------------------------------
NEAR_CONST_ID
  Relative segment, address: 000031F4 - 000031FD (0xa bytes), align: 1
  Segment part 309.           Intra module refs:   Font8x8_char_50
    -------------------------------------------------------------------------
NEAR_CONST_ID
  Relative segment, address: 000031FE - 00003207 (0xa bytes), align: 1
  Segment part 310.           Intra module refs:   Font8x8_char_51
    -------------------------------------------------------------------------
NEAR_CONST_ID
  Relative segment, address: 00003208 - 00003211 (0xa bytes), align: 1
  Segment part 311.           Intra module refs:   Font8x8_char_52
    -------------------------------------------------------------------------
NEAR_CONST_ID
  Relative segment, address: 00003212 - 0000321B (0xa bytes), align: 1
  Segment part 312.           Intra module refs:   Font8x8_char_53
    -------------------------------------------------------------------------
NEAR_CONST_ID
  Relative segment, address: 0000321C - 00003225 (0xa bytes), align: 1
  Segment part 313.           Intra module refs:   Font8x8_char_54
    -------------------------------------------------------------------------
NEAR_CONST_ID
  Relative segment, address: 00003226 - 0000322F (0xa bytes), align: 1
  Segment part 314.           Intra module refs:   Font8x8_char_55
    -------------------------------------------------------------------------
NEAR_CONST_ID
  Relative segment, address: 00003230 - 00003239 (0xa bytes), align: 1
  Segment part 315.           Intra module refs:   Font8x8_char_56
    -------------------------------------------------------------------------
NEAR_CONST_ID
  Relative segment, address: 0000323A - 00003243 (0xa bytes), align: 1
  Segment part 316.           Intra module refs:   Font8x8_char_57
    -------------------------------------------------------------------------
NEAR_CONST_ID
  Relative segment, address: 00003244 - 0000324D (0xa bytes), align: 1
  Segment part 317.           Intra module refs:   Font8x8_char_58
    -------------------------------------------------------------------------
NEAR_CONST_ID
  Relative segment, address: 0000324E - 00003257 (0xa bytes), align: 1
  Segment part 318.           Intra module refs:   Font8x8_char_59
    -------------------------------------------------------------------------
NEAR_CONST_ID
  Relative segment, address: 00003258 - 00003261 (0xa bytes), align: 1
  Segment part 319.           Intra module refs:   Font8x8_char_60
    -------------------------------------------------------------------------
NEAR_CONST_ID
  Relative segment, address: 00003262 - 0000326B (0xa bytes), align: 1
  Segment part 320.           Intra module refs:   Font8x8_char_61
    -------------------------------------------------------------------------
NEAR_CONST_ID
  Relative segment, address: 0000326C - 00003275 (0xa bytes), align: 1
  Segment part 321.           Intra module refs:   Font8x8_char_62
    -------------------------------------------------------------------------
NEAR_CONST_ID
  Relative segment, address: 00003276 - 0000327F (0xa bytes), align: 1
  Segment part 322.           Intra module refs:   Font8x8_char_63
    -------------------------------------------------------------------------
NEAR_CONST_ID
  Relative segment, address: 00003280 - 00003289 (0xa bytes), align: 1
  Segment part 323.           Intra module refs:   Font8x8_char_64
    -------------------------------------------------------------------------
NEAR_CONST_ID
  Relative segment, address: 0000328A - 00003293 (0xa bytes), align: 1
  Segment part 324.           Intra module refs:   Font8x8_char_65
    -------------------------------------------------------------------------
NEAR_CONST_ID
  Relative segment, address: 00003294 - 0000329D (0xa bytes), align: 1
  Segment part 325.           Intra module refs:   Font8x8_char_66
    -------------------------------------------------------------------------
NEAR_CONST_ID
  Relative segment, address: 0000329E - 000032A7 (0xa bytes), align: 1
  Segment part 326.           Intra module refs:   Font8x8_char_67
    -------------------------------------------------------------------------
NEAR_CONST_ID
  Relative segment, address: 000032A8 - 000032B1 (0xa bytes), align: 1
  Segment part 327.           Intra module refs:   Font8x8_char_68
    -------------------------------------------------------------------------
NEAR_CONST_ID
  Relative segment, address: 000032B2 - 000032BB (0xa bytes), align: 1
  Segment part 328.           Intra module refs:   Font8x8_char_69
    -------------------------------------------------------------------------
NEAR_CONST_ID
  Relative segment, address: 000032BC - 000032C5 (0xa bytes), align: 1
  Segment part 329.           Intra module refs:   Font8x8_char_70
    -------------------------------------------------------------------------
NEAR_CONST_ID
  Relative segment, address: 000032C6 - 000032CF (0xa bytes), align: 1
  Segment part 330.           Intra module refs:   Font8x8_char_71
    -------------------------------------------------------------------------
NEAR_CONST_ID
  Relative segment, address: 000032D0 - 000032D9 (0xa bytes), align: 1
  Segment part 331.           Intra module refs:   Font8x8_char_72
    -------------------------------------------------------------------------
NEAR_CONST_ID
  Relative segment, address: 000032DA - 000032E3 (0xa bytes), align: 1
  Segment part 332.           Intra module refs:   Font8x8_char_73
    -------------------------------------------------------------------------
NEAR_CONST_ID
  Relative segment, address: 000032E4 - 000032ED (0xa bytes), align: 1
  Segment part 333.           Intra module refs:   Font8x8_char_74
    -------------------------------------------------------------------------
NEAR_CONST_ID
  Relative segment, address: 000032EE - 000032F7 (0xa bytes), align: 1
  Segment part 334.           Intra module refs:   Font8x8_char_75
    -------------------------------------------------------------------------
NEAR_CONST_ID
  Relative segment, address: 000032F8 - 00003301 (0xa bytes), align: 1
  Segment part 335.           Intra module refs:   Font8x8_char_76
    -------------------------------------------------------------------------
NEAR_CONST_ID
  Relative segment, address: 00003302 - 0000330B (0xa bytes), align: 1
  Segment part 336.           Intra module refs:   Font8x8_char_77
    -------------------------------------------------------------------------
NEAR_CONST_ID
  Relative segment, address: 0000330C - 00003315 (0xa bytes), align: 1
  Segment part 337.           Intra module refs:   Font8x8_char_78
    -------------------------------------------------------------------------
NEAR_CONST_ID
  Relative segment, address: 00003316 - 0000331F (0xa bytes), align: 1
  Segment part 338.           Intra module refs:   Font8x8_char_79
    -------------------------------------------------------------------------
NEAR_CONST_ID
  Relative segment, address: 00003320 - 00003329 (0xa bytes), align: 1
  Segment part 339.           Intra module refs:   Font8x8_char_80
    -------------------------------------------------------------------------
NEAR_CONST_ID
  Relative segment, address: 0000332A - 00003333 (0xa bytes), align: 1
  Segment part 340.           Intra module refs:   Font8x8_char_81
    -------------------------------------------------------------------------
NEAR_CONST_ID
  Relative segment, address: 00003334 - 0000333D (0xa bytes), align: 1
  Segment part 341.           Intra module refs:   Font8x8_char_82
    -------------------------------------------------------------------------
NEAR_CONST_ID
  Relative segment, address: 0000333E - 00003347 (0xa bytes), align: 1
  Segment part 342.           Intra module refs:   Font8x8_char_83
    -------------------------------------------------------------------------
NEAR_CONST_ID
  Relative segment, address: 00003348 - 00003351 (0xa bytes), align: 1
  Segment part 343.           Intra module refs:   Font8x8_char_84
    -------------------------------------------------------------------------
NEAR_CONST_ID
  Relative segment, address: 00003352 - 0000335B (0xa bytes), align: 1
  Segment part 344.           Intra module refs:   Font8x8_char_85
    -------------------------------------------------------------------------
NEAR_CONST_ID
  Relative segment, address: 0000335C - 00003365 (0xa bytes), align: 1
  Segment part 345.           Intra module refs:   Font8x8_char_86
    -------------------------------------------------------------------------
NEAR_CONST_ID
  Relative segment, address: 00003366 - 0000336F (0xa bytes), align: 1
  Segment part 346.           Intra module refs:   Font8x8_char_87
    -------------------------------------------------------------------------
NEAR_CONST_ID
  Relative segment, address: 00003370 - 00003379 (0xa bytes), align: 1
  Segment part 347.           Intra module refs:   Font8x8_char_88
    -------------------------------------------------------------------------
NEAR_CONST_ID
  Relative segment, address: 0000337A - 00003383 (0xa bytes), align: 1
  Segment part 348.           Intra module refs:   Font8x8_char_89
    -------------------------------------------------------------------------
NEAR_CONST_ID
  Relative segment, address: 00003384 - 0000338D (0xa bytes), align: 1
  Segment part 349.           Intra module refs:   Font8x8_char_90
    -------------------------------------------------------------------------
NEAR_CONST_ID
  Relative segment, address: 0000338E - 00003397 (0xa bytes), align: 1
  Segment part 350.           Intra module refs:   Font8x8_char_91
    -------------------------------------------------------------------------
NEAR_CONST_ID
  Relative segment, address: 00003398 - 000033A1 (0xa bytes), align: 1
  Segment part 351.           Intra module refs:   Font8x8_char_92
    -------------------------------------------------------------------------
NEAR_CONST_ID
  Relative segment, address: 000033A2 - 000033AB (0xa bytes), align: 1
  Segment part 352.           Intra module refs:   Font8x8_char_93
    -------------------------------------------------------------------------
NEAR_CONST_ID
  Relative segment, address: 000033AC - 000033B5 (0xa bytes), align: 1
  Segment part 353.           Intra module refs:   Font8x8_char_94
    -------------------------------------------------------------------------
NEAR_CONST_ID
  Relative segment, address: 000033B6 - 000033BF (0xa bytes), align: 1
  Segment part 354.           Intra module refs:   Font8x8_char_95
    -------------------------------------------------------------------------
NEAR_CONST_ID
  Relative segment, address: 000033C0 - 000033C9 (0xa bytes), align: 1
  Segment part 355.           Intra module refs:   Font8x8_char_96
    -------------------------------------------------------------------------
NEAR_CONST_ID
  Relative segment, address: 000033CA - 000033D3 (0xa bytes), align: 1
  Segment part 356.           Intra module refs:   Font8x8_char_97
    -------------------------------------------------------------------------
NEAR_CONST_ID
  Relative segment, address: 000033D4 - 000033DD (0xa bytes), align: 1
  Segment part 357.           Intra module refs:   Font8x8_char_98
    -------------------------------------------------------------------------
NEAR_CONST_ID
  Relative segment, address: 000033DE - 000033E7 (0xa bytes), align: 1
  Segment part 358.           Intra module refs:   Font8x8_char_99
    -------------------------------------------------------------------------
NEAR_CONST_ID
  Relative segment, address: 000033E8 - 000033F1 (0xa bytes), align: 1
  Segment part 359.           Intra module refs:   Font8x8_char_100
    -------------------------------------------------------------------------
NEAR_CONST_ID
  Relative segment, address: 000033F2 - 000033FB (0xa bytes), align: 1
  Segment part 360.           Intra module refs:   Font8x8_char_101
    -------------------------------------------------------------------------
NEAR_CONST_ID
  Relative segment, address: 000033FC - 00003405 (0xa bytes), align: 1
  Segment part 361.           Intra module refs:   Font8x8_char_102
    -------------------------------------------------------------------------
NEAR_CONST_ID
  Relative segment, address: 00003406 - 0000340F (0xa bytes), align: 1
  Segment part 362.           Intra module refs:   Font8x8_char_103
    -------------------------------------------------------------------------
NEAR_CONST_ID
  Relative segment, address: 00003410 - 00003419 (0xa bytes), align: 1
  Segment part 363.           Intra module refs:   Font8x8_char_104
    -------------------------------------------------------------------------
NEAR_CONST_ID
  Relative segment, address: 0000341A - 00003423 (0xa bytes), align: 1
  Segment part 364.           Intra module refs:   Font8x8_char_105
    -------------------------------------------------------------------------
NEAR_CONST_ID
  Relative segment, address: 00003424 - 0000342D (0xa bytes), align: 1
  Segment part 365.           Intra module refs:   Font8x8_char_106
    -------------------------------------------------------------------------
NEAR_CONST_ID
  Relative segment, address: 0000342E - 00003437 (0xa bytes), align: 1
  Segment part 366.           Intra module refs:   Font8x8_char_107
    -------------------------------------------------------------------------
NEAR_CONST_ID
  Relative segment, address: 00003438 - 00003441 (0xa bytes), align: 1
  Segment part 367.           Intra module refs:   Font8x8_char_108
    -------------------------------------------------------------------------
NEAR_CONST_ID
  Relative segment, address: 00003442 - 0000344B (0xa bytes), align: 1
  Segment part 368.           Intra module refs:   Font8x8_char_109
    -------------------------------------------------------------------------
NEAR_CONST_ID
  Relative segment, address: 0000344C - 00003455 (0xa bytes), align: 1
  Segment part 369.           Intra module refs:   Font8x8_char_110
    -------------------------------------------------------------------------
NEAR_CONST_ID
  Relative segment, address: 00003456 - 0000345F (0xa bytes), align: 1
  Segment part 370.           Intra module refs:   Font8x8_char_111
    -------------------------------------------------------------------------
NEAR_CONST_ID
  Relative segment, address: 00003460 - 00003469 (0xa bytes), align: 1
  Segment part 371.           Intra module refs:   Font8x8_char_112
    -------------------------------------------------------------------------
NEAR_CONST_ID
  Relative segment, address: 0000346A - 00003473 (0xa bytes), align: 1
  Segment part 372.           Intra module refs:   Font8x8_char_113
    -------------------------------------------------------------------------
NEAR_CONST_ID
  Relative segment, address: 00003474 - 0000347D (0xa bytes), align: 1
  Segment part 373.           Intra module refs:   Font8x8_char_114
    -------------------------------------------------------------------------
NEAR_CONST_ID
  Relative segment, address: 0000347E - 00003487 (0xa bytes), align: 1
  Segment part 374.           Intra module refs:   Font8x8_char_115
    -------------------------------------------------------------------------
NEAR_CONST_ID
  Relative segment, address: 00003488 - 00003491 (0xa bytes), align: 1
  Segment part 375.           Intra module refs:   Font8x8_char_116
    -------------------------------------------------------------------------
NEAR_CONST_ID
  Relative segment, address: 00003492 - 0000349B (0xa bytes), align: 1
  Segment part 376.           Intra module refs:   Font8x8_char_117
    -------------------------------------------------------------------------
NEAR_CONST_ID
  Relative segment, address: 0000349C - 000034A5 (0xa bytes), align: 1
  Segment part 377.           Intra module refs:   Font8x8_char_118
    -------------------------------------------------------------------------
NEAR_CONST_ID
  Relative segment, address: 000034A6 - 000034AF (0xa bytes), align: 1
  Segment part 378.           Intra module refs:   Font8x8_char_119
    -------------------------------------------------------------------------
NEAR_CONST_ID
  Relative segment, address: 000034B0 - 000034B9 (0xa bytes), align: 1
  Segment part 379.           Intra module refs:   Font8x8_char_120
    -------------------------------------------------------------------------
NEAR_CONST_ID
  Relative segment, address: 000034BA - 000034C3 (0xa bytes), align: 1
  Segment part 380.           Intra module refs:   Font8x8_char_121
    -------------------------------------------------------------------------
NEAR_CONST_ID
  Relative segment, address: 000034C4 - 000034CD (0xa bytes), align: 1
  Segment part 381.           Intra module refs:   Font8x8_char_122
    -------------------------------------------------------------------------
NEAR_CONST_ID
  Relative segment, address: 000034CE - 000034D7 (0xa bytes), align: 1
  Segment part 382.           Intra module refs:   Font8x8_char_123
    -------------------------------------------------------------------------
NEAR_CONST_ID
  Relative segment, address: 000034D8 - 000034E1 (0xa bytes), align: 1
  Segment part 383.           Intra module refs:   Font8x8_char_124
    -------------------------------------------------------------------------
NEAR_CONST_ID
  Relative segment, address: 000034E2 - 000034EB (0xa bytes), align: 1
  Segment part 384.           Intra module refs:   Font8x8_char_125
    -------------------------------------------------------------------------
NEAR_CONST_ID
  Relative segment, address: 000034EC - 000034F5 (0xa bytes), align: 1
  Segment part 385.           Intra module refs:   Font8x8_char_126
    -------------------------------------------------------------------------
NEAR_CONST_ID
  Relative segment, address: 000034F6 - 000034FF (0xa bytes), align: 1
  Segment part 386.           Intra module refs:   Font8x8_char_127
    -------------------------------------------------------------------------
NEAR_CONST_ID
  Relative segment, address: 00003500 - 00003509 (0xa bytes), align: 1
  Segment part 387.           Intra module refs:   Font8x8_char_128
    -------------------------------------------------------------------------
NEAR_CONST_ID
  Relative segment, address: 0000350A - 00003513 (0xa bytes), align: 1
  Segment part 388.           Intra module refs:   Font8x8_char_129
    -------------------------------------------------------------------------
NEAR_CONST_ID
  Relative segment, address: 00003514 - 0000351D (0xa bytes), align: 1
  Segment part 389.           Intra module refs:   Font8x8_char_130
    -------------------------------------------------------------------------
NEAR_CONST_ID
  Relative segment, address: 0000351E - 00003527 (0xa bytes), align: 1
  Segment part 390.           Intra module refs:   Font8x8_char_131
    -------------------------------------------------------------------------
NEAR_CONST_ID
  Relative segment, address: 00003528 - 00003531 (0xa bytes), align: 1
  Segment part 391.           Intra module refs:   Font8x8_char_132
    -------------------------------------------------------------------------
NEAR_CONST_ID
  Relative segment, address: 00003532 - 0000353B (0xa bytes), align: 1
  Segment part 392.           Intra module refs:   Font8x8_char_133
    -------------------------------------------------------------------------
NEAR_CONST_ID
  Relative segment, address: 0000353C - 00003545 (0xa bytes), align: 1
  Segment part 393.           Intra module refs:   Font8x8_char_134
    -------------------------------------------------------------------------
NEAR_CONST_ID
  Relative segment, address: 00003546 - 0000354F (0xa bytes), align: 1
  Segment part 394.           Intra module refs:   Font8x8_char_135
    -------------------------------------------------------------------------
NEAR_CONST_ID
  Relative segment, address: 00003550 - 00003559 (0xa bytes), align: 1
  Segment part 395.           Intra module refs:   Font8x8_char_136
    -------------------------------------------------------------------------
NEAR_CONST_ID
  Relative segment, address: 0000355A - 00003563 (0xa bytes), align: 1
  Segment part 396.           Intra module refs:   Font8x8_char_137
    -------------------------------------------------------------------------
NEAR_CONST_ID
  Relative segment, address: 00003564 - 0000356D (0xa bytes), align: 1
  Segment part 397.           Intra module refs:   Font8x8_char_138
    -------------------------------------------------------------------------
NEAR_CONST_ID
  Relative segment, address: 0000356E - 00003577 (0xa bytes), align: 1
  Segment part 398.           Intra module refs:   Font8x8_char_139
    -------------------------------------------------------------------------
NEAR_CONST_ID
  Relative segment, address: 00003578 - 00003581 (0xa bytes), align: 1
  Segment part 399.           Intra module refs:   Font8x8_char_140
    -------------------------------------------------------------------------
NEAR_CONST_ID
  Relative segment, address: 00003582 - 0000358B (0xa bytes), align: 1
  Segment part 400.           Intra module refs:   Font8x8_char_141
    -------------------------------------------------------------------------
NEAR_CONST_ID
  Relative segment, address: 0000358C - 00003595 (0xa bytes), align: 1
  Segment part 401.           Intra module refs:   Font8x8_char_142
    -------------------------------------------------------------------------
NEAR_CONST_ID
  Relative segment, address: 00003596 - 0000359F (0xa bytes), align: 1
  Segment part 402.           Intra module refs:   Font8x8_char_143
    -------------------------------------------------------------------------
NEAR_CONST_ID
  Relative segment, address: 000035A0 - 000035A9 (0xa bytes), align: 1
  Segment part 403.           Intra module refs:   Font8x8_char_144
    -------------------------------------------------------------------------
NEAR_CONST_ID
  Relative segment, address: 000035AA - 000035B3 (0xa bytes), align: 1
  Segment part 404.           Intra module refs:   Font8x8_char_145
    -------------------------------------------------------------------------
NEAR_CONST_ID
  Relative segment, address: 000035B4 - 000035BD (0xa bytes), align: 1
  Segment part 405.           Intra module refs:   Font8x8_char_146
    -------------------------------------------------------------------------
NEAR_CONST_ID
  Relative segment, address: 000035BE - 000035C7 (0xa bytes), align: 1
  Segment part 406.           Intra module refs:   Font8x8_char_147
    -------------------------------------------------------------------------
NEAR_CONST_ID
  Relative segment, address: 000035C8 - 000035D1 (0xa bytes), align: 1
  Segment part 407.           Intra module refs:   Font8x8_char_148
    -------------------------------------------------------------------------
NEAR_CONST_ID
  Relative segment, address: 000035D2 - 000035DB (0xa bytes), align: 1
  Segment part 408.           Intra module refs:   Font8x8_char_149
    -------------------------------------------------------------------------
NEAR_CONST_ID
  Relative segment, address: 000035DC - 000035E5 (0xa bytes), align: 1
  Segment part 409.           Intra module refs:   Font8x8_char_150
    -------------------------------------------------------------------------
NEAR_CONST_ID
  Relative segment, address: 000035E6 - 000035EF (0xa bytes), align: 1
  Segment part 410.           Intra module refs:   Font8x8_char_151
    -------------------------------------------------------------------------
NEAR_CONST_ID
  Relative segment, address: 000035F0 - 000035F9 (0xa bytes), align: 1
  Segment part 411.           Intra module refs:   Font8x8_char_152
    -------------------------------------------------------------------------
NEAR_CONST_ID
  Relative segment, address: 000035FA - 00003603 (0xa bytes), align: 1
  Segment part 412.           Intra module refs:   Font8x8_char_153
    -------------------------------------------------------------------------
NEAR_CONST_ID
  Relative segment, address: 00003604 - 0000360D (0xa bytes), align: 1
  Segment part 413.           Intra module refs:   Font8x8_char_154
    -------------------------------------------------------------------------
NEAR_CONST_ID
  Relative segment, address: 0000360E - 00003617 (0xa bytes), align: 1
  Segment part 414.           Intra module refs:   Font8x8_char_155
    -------------------------------------------------------------------------
NEAR_CONST_ID
  Relative segment, address: 00003618 - 00003621 (0xa bytes), align: 1
  Segment part 415.           Intra module refs:   Font8x8_char_156
    -------------------------------------------------------------------------
NEAR_CONST_ID
  Relative segment, address: 00003622 - 0000362B (0xa bytes), align: 1
  Segment part 416.           Intra module refs:   Font8x8_char_157
    -------------------------------------------------------------------------
NEAR_CONST_ID
  Relative segment, address: 0000362C - 00003635 (0xa bytes), align: 1
  Segment part 417.           Intra module refs:   Font8x8_char_158
    -------------------------------------------------------------------------
NEAR_CONST_ID
  Relative segment, address: 00003636 - 0000363F (0xa bytes), align: 1
  Segment part 418.           Intra module refs:   Font8x8_char_159
    -------------------------------------------------------------------------
NEAR_CONST_ID
  Relative segment, address: 00003640 - 00003649 (0xa bytes), align: 1
  Segment part 419.           Intra module refs:   Font8x8_char_160
    -------------------------------------------------------------------------
NEAR_CONST_ID
  Relative segment, address: 0000364A - 00003653 (0xa bytes), align: 1
  Segment part 420.           Intra module refs:   Font8x8_char_161
    -------------------------------------------------------------------------
NEAR_CONST_ID
  Relative segment, address: 00003654 - 0000365D (0xa bytes), align: 1
  Segment part 421.           Intra module refs:   Font8x8_char_162
    -------------------------------------------------------------------------
NEAR_CONST_ID
  Relative segment, address: 0000365E - 00003667 (0xa bytes), align: 1
  Segment part 422.           Intra module refs:   Font8x8_char_163
    -------------------------------------------------------------------------
NEAR_CONST_ID
  Relative segment, address: 00003668 - 00003671 (0xa bytes), align: 1
  Segment part 423.           Intra module refs:   Font8x8_char_164
    -------------------------------------------------------------------------
NEAR_CONST_ID
  Relative segment, address: 00003672 - 0000367B (0xa bytes), align: 1
  Segment part 424.           Intra module refs:   Font8x8_char_165
    -------------------------------------------------------------------------
NEAR_CONST_ID
  Relative segment, address: 0000367C - 00003685 (0xa bytes), align: 1
  Segment part 425.           Intra module refs:   Font8x8_char_166
    -------------------------------------------------------------------------
NEAR_CONST_ID
  Relative segment, address: 00003686 - 0000368F (0xa bytes), align: 1
  Segment part 426.           Intra module refs:   Font8x8_char_167
    -------------------------------------------------------------------------
NEAR_CONST_ID
  Relative segment, address: 00003690 - 00003699 (0xa bytes), align: 1
  Segment part 427.           Intra module refs:   Font8x8_char_168
    -------------------------------------------------------------------------
NEAR_CONST_ID
  Relative segment, address: 0000369A - 000036A3 (0xa bytes), align: 1
  Segment part 428.           Intra module refs:   Font8x8_char_169
    -------------------------------------------------------------------------
NEAR_CONST_ID
  Relative segment, address: 000036A4 - 000036AD (0xa bytes), align: 1
  Segment part 429.           Intra module refs:   Font8x8_char_170
    -------------------------------------------------------------------------
NEAR_CONST_ID
  Relative segment, address: 000036AE - 000036B7 (0xa bytes), align: 1
  Segment part 430.           Intra module refs:   Font8x8_char_171
    -------------------------------------------------------------------------
NEAR_CONST_ID
  Relative segment, address: 000036B8 - 000036C1 (0xa bytes), align: 1
  Segment part 431.           Intra module refs:   Font8x8_char_172
    -------------------------------------------------------------------------
NEAR_CONST_ID
  Relative segment, address: 000036C2 - 000036CB (0xa bytes), align: 1
  Segment part 432.           Intra module refs:   Font8x8_char_173
    -------------------------------------------------------------------------
NEAR_CONST_ID
  Relative segment, address: 000036CC - 000036D5 (0xa bytes), align: 1
  Segment part 433.           Intra module refs:   Font8x8_char_174
    -------------------------------------------------------------------------
NEAR_CONST_ID
  Relative segment, address: 000036D6 - 000036DF (0xa bytes), align: 1
  Segment part 434.           Intra module refs:   Font8x8_char_175
    -------------------------------------------------------------------------
NEAR_CONST_ID
  Relative segment, address: 000036E0 - 000036E9 (0xa bytes), align: 1
  Segment part 435.           Intra module refs:   Font8x8_char_176
    -------------------------------------------------------------------------
NEAR_CONST_ID
  Relative segment, address: 000036EA - 000036F3 (0xa bytes), align: 1
  Segment part 436.           Intra module refs:   Font8x8_char_177
    -------------------------------------------------------------------------
NEAR_CONST_ID
  Relative segment, address: 000036F4 - 000036FD (0xa bytes), align: 1
  Segment part 437.           Intra module refs:   Font8x8_char_178
    -------------------------------------------------------------------------
NEAR_CONST_ID
  Relative segment, address: 000036FE - 00003707 (0xa bytes), align: 1
  Segment part 438.           Intra module refs:   Font8x8_char_179
    -------------------------------------------------------------------------
NEAR_CONST_ID
  Relative segment, address: 00003708 - 00003711 (0xa bytes), align: 1
  Segment part 439.           Intra module refs:   Font8x8_char_180
    -------------------------------------------------------------------------
NEAR_CONST_ID
  Relative segment, address: 00003712 - 0000371B (0xa bytes), align: 1
  Segment part 440.           Intra module refs:   Font8x8_char_181
    -------------------------------------------------------------------------
NEAR_CONST_ID
  Relative segment, address: 0000371C - 00003725 (0xa bytes), align: 1
  Segment part 441.           Intra module refs:   Font8x8_char_182
    -------------------------------------------------------------------------
NEAR_CONST_ID
  Relative segment, address: 00003726 - 0000372F (0xa bytes), align: 1
  Segment part 442.           Intra module refs:   Font8x8_char_183
    -------------------------------------------------------------------------
NEAR_CONST_ID
  Relative segment, address: 00003730 - 00003739 (0xa bytes), align: 1
  Segment part 443.           Intra module refs:   Font8x8_char_184
    -------------------------------------------------------------------------
NEAR_CONST_ID
  Relative segment, address: 0000373A - 00003743 (0xa bytes), align: 1
  Segment part 444.           Intra module refs:   Font8x8_char_185
    -------------------------------------------------------------------------
NEAR_CONST_ID
  Relative segment, address: 00003744 - 0000374D (0xa bytes), align: 1
  Segment part 445.           Intra module refs:   Font8x8_char_186
    -------------------------------------------------------------------------
NEAR_CONST_ID
  Relative segment, address: 0000374E - 00003757 (0xa bytes), align: 1
  Segment part 446.           Intra module refs:   Font8x8_char_187
    -------------------------------------------------------------------------
NEAR_CONST_ID
  Relative segment, address: 00003758 - 00003761 (0xa bytes), align: 1
  Segment part 447.           Intra module refs:   Font8x8_char_188
    -------------------------------------------------------------------------
NEAR_CONST_ID
  Relative segment, address: 00003762 - 0000376B (0xa bytes), align: 1
  Segment part 448.           Intra module refs:   Font8x8_char_189
    -------------------------------------------------------------------------
NEAR_CONST_ID
  Relative segment, address: 0000376C - 00003775 (0xa bytes), align: 1
  Segment part 449.           Intra module refs:   Font8x8_char_190
    -------------------------------------------------------------------------
NEAR_CONST_ID
  Relative segment, address: 00003776 - 0000377F (0xa bytes), align: 1
  Segment part 450.           Intra module refs:   Font8x8_char_191
    -------------------------------------------------------------------------
NEAR_CONST_ID
  Relative segment, address: 00003780 - 00003789 (0xa bytes), align: 1
  Segment part 451.           Intra module refs:   Font8x8_char_192
    -------------------------------------------------------------------------
NEAR_CONST_ID
  Relative segment, address: 0000378A - 00003793 (0xa bytes), align: 1
  Segment part 452.           Intra module refs:   Font8x8_char_193
    -------------------------------------------------------------------------
NEAR_CONST_ID
  Relative segment, address: 00003794 - 0000379D (0xa bytes), align: 1
  Segment part 453.           Intra module refs:   Font8x8_char_194
    -------------------------------------------------------------------------
NEAR_CONST_ID
  Relative segment, address: 0000379E - 000037A7 (0xa bytes), align: 1
  Segment part 454.           Intra module refs:   Font8x8_char_195
    -------------------------------------------------------------------------
NEAR_CONST_ID
  Relative segment, address: 000037A8 - 000037B1 (0xa bytes), align: 1
  Segment part 455.           Intra module refs:   Font8x8_char_196
    -------------------------------------------------------------------------
NEAR_CONST_ID
  Relative segment, address: 000037B2 - 000037BB (0xa bytes), align: 1
  Segment part 456.           Intra module refs:   Font8x8_char_197
    -------------------------------------------------------------------------
NEAR_CONST_ID
  Relative segment, address: 000037BC - 000037C5 (0xa bytes), align: 1
  Segment part 457.           Intra module refs:   Font8x8_char_198
    -------------------------------------------------------------------------
NEAR_CONST_ID
  Relative segment, address: 000037C6 - 000037CF (0xa bytes), align: 1
  Segment part 458.           Intra module refs:   Font8x8_char_199
    -------------------------------------------------------------------------
NEAR_CONST_ID
  Relative segment, address: 000037D0 - 000037D9 (0xa bytes), align: 1
  Segment part 459.           Intra module refs:   Font8x8_char_200
    -------------------------------------------------------------------------
NEAR_CONST_ID
  Relative segment, address: 000037DA - 000037E3 (0xa bytes), align: 1
  Segment part 460.           Intra module refs:   Font8x8_char_201
    -------------------------------------------------------------------------
NEAR_CONST_ID
  Relative segment, address: 000037E4 - 000037ED (0xa bytes), align: 1
  Segment part 461.           Intra module refs:   Font8x8_char_202
    -------------------------------------------------------------------------
NEAR_CONST_ID
  Relative segment, address: 000037EE - 000037F7 (0xa bytes), align: 1
  Segment part 462.           Intra module refs:   Font8x8_char_203
    -------------------------------------------------------------------------
NEAR_CONST_ID
  Relative segment, address: 000037F8 - 00003801 (0xa bytes), align: 1
  Segment part 463.           Intra module refs:   Font8x8_char_204
    -------------------------------------------------------------------------
NEAR_CONST_ID
  Relative segment, address: 00003802 - 0000380B (0xa bytes), align: 1
  Segment part 464.           Intra module refs:   Font8x8_char_205
    -------------------------------------------------------------------------
NEAR_CONST_ID
  Relative segment, address: 0000380C - 00003815 (0xa bytes), align: 1
  Segment part 465.           Intra module refs:   Font8x8_char_206
    -------------------------------------------------------------------------
NEAR_CONST_ID
  Relative segment, address: 00003816 - 0000381F (0xa bytes), align: 1
  Segment part 466.           Intra module refs:   Font8x8_char_207
    -------------------------------------------------------------------------
NEAR_CONST_ID
  Relative segment, address: 00003820 - 00003829 (0xa bytes), align: 1
  Segment part 467.           Intra module refs:   Font8x8_char_208
    -------------------------------------------------------------------------
NEAR_CONST_ID
  Relative segment, address: 0000382A - 00003833 (0xa bytes), align: 1
  Segment part 468.           Intra module refs:   Font8x8_char_209
    -------------------------------------------------------------------------
NEAR_CONST_ID
  Relative segment, address: 00003834 - 0000383D (0xa bytes), align: 1
  Segment part 469.           Intra module refs:   Font8x8_char_210
    -------------------------------------------------------------------------
NEAR_CONST_ID
  Relative segment, address: 0000383E - 00003847 (0xa bytes), align: 1
  Segment part 470.           Intra module refs:   Font8x8_char_211
    -------------------------------------------------------------------------
NEAR_CONST_ID
  Relative segment, address: 00003848 - 00003851 (0xa bytes), align: 1
  Segment part 471.           Intra module refs:   Font8x8_char_212
    -------------------------------------------------------------------------
NEAR_CONST_ID
  Relative segment, address: 00003852 - 0000385B (0xa bytes), align: 1
  Segment part 472.           Intra module refs:   Font8x8_char_213
    -------------------------------------------------------------------------
NEAR_CONST_ID
  Relative segment, address: 0000385C - 00003865 (0xa bytes), align: 1
  Segment part 473.           Intra module refs:   Font8x8_char_214
    -------------------------------------------------------------------------
NEAR_CONST_ID
  Relative segment, address: 00003866 - 0000386F (0xa bytes), align: 1
  Segment part 474.           Intra module refs:   Font8x8_char_215
    -------------------------------------------------------------------------
NEAR_CONST_ID
  Relative segment, address: 00003870 - 00003879 (0xa bytes), align: 1
  Segment part 475.           Intra module refs:   Font8x8_char_216
    -------------------------------------------------------------------------
NEAR_CONST_ID
  Relative segment, address: 0000387A - 00003883 (0xa bytes), align: 1
  Segment part 476.           Intra module refs:   Font8x8_char_217
    -------------------------------------------------------------------------
NEAR_CONST_ID
  Relative segment, address: 00003884 - 0000388D (0xa bytes), align: 1
  Segment part 477.           Intra module refs:   Font8x8_char_218
    -------------------------------------------------------------------------
NEAR_CONST_ID
  Relative segment, address: 0000388E - 00003897 (0xa bytes), align: 1
  Segment part 478.           Intra module refs:   Font8x8_char_219
    -------------------------------------------------------------------------
NEAR_CONST_ID
  Relative segment, address: 00003898 - 000038A1 (0xa bytes), align: 1
  Segment part 479.           Intra module refs:   Font8x8_char_220
    -------------------------------------------------------------------------
NEAR_CONST_ID
  Relative segment, address: 000038A2 - 000038AB (0xa bytes), align: 1
  Segment part 480.           Intra module refs:   Font8x8_char_221
    -------------------------------------------------------------------------
NEAR_CONST_ID
  Relative segment, address: 000038AC - 000038B5 (0xa bytes), align: 1
  Segment part 481.           Intra module refs:   Font8x8_char_222
    -------------------------------------------------------------------------
NEAR_CONST_ID
  Relative segment, address: 000038B6 - 000038BF (0xa bytes), align: 1
  Segment part 482.           Intra module refs:   Font8x8_char_223
    -------------------------------------------------------------------------
NEAR_CONST_ID
  Relative segment, address: 000038C0 - 000038C9 (0xa bytes), align: 1
  Segment part 483.           Intra module refs:   Font8x8_char_224
    -------------------------------------------------------------------------
NEAR_CONST_ID
  Relative segment, address: 000038CA - 000038D3 (0xa bytes), align: 1
  Segment part 484.           Intra module refs:   Font8x8_char_225
    -------------------------------------------------------------------------
NEAR_CONST_ID
  Relative segment, address: 000038D4 - 000038DD (0xa bytes), align: 1
  Segment part 485.           Intra module refs:   Font8x8_char_226
    -------------------------------------------------------------------------
NEAR_CONST_ID
  Relative segment, address: 000038DE - 000038E7 (0xa bytes), align: 1
  Segment part 486.           Intra module refs:   Font8x8_char_227
    -------------------------------------------------------------------------
NEAR_CONST_ID
  Relative segment, address: 000038E8 - 000038F1 (0xa bytes), align: 1
  Segment part 487.           Intra module refs:   Font8x8_char_228
    -------------------------------------------------------------------------
NEAR_CONST_ID
  Relative segment, address: 000038F2 - 000038FB (0xa bytes), align: 1
  Segment part 488.           Intra module refs:   Font8x8_char_229
    -------------------------------------------------------------------------
NEAR_CONST_ID
  Relative segment, address: 000038FC - 00003905 (0xa bytes), align: 1
  Segment part 489.           Intra module refs:   Font8x8_char_230
    -------------------------------------------------------------------------
NEAR_CONST_ID
  Relative segment, address: 00003906 - 0000390F (0xa bytes), align: 1
  Segment part 490.           Intra module refs:   Font8x8_char_231
    -------------------------------------------------------------------------
NEAR_CONST_ID
  Relative segment, address: 00003910 - 00003919 (0xa bytes), align: 1
  Segment part 491.           Intra module refs:   Font8x8_char_232
    -------------------------------------------------------------------------
NEAR_CONST_ID
  Relative segment, address: 0000391A - 00003923 (0xa bytes), align: 1
  Segment part 492.           Intra module refs:   Font8x8_char_233
    -------------------------------------------------------------------------
NEAR_CONST_ID
  Relative segment, address: 00003924 - 0000392D (0xa bytes), align: 1
  Segment part 493.           Intra module refs:   Font8x8_char_234
    -------------------------------------------------------------------------
NEAR_CONST_ID
  Relative segment, address: 0000392E - 00003937 (0xa bytes), align: 1
  Segment part 494.           Intra module refs:   Font8x8_char_235
    -------------------------------------------------------------------------
NEAR_CONST_ID
  Relative segment, address: 00003938 - 00003941 (0xa bytes), align: 1
  Segment part 495.           Intra module refs:   Font8x8_char_236
    -------------------------------------------------------------------------
NEAR_CONST_ID
  Relative segment, address: 00003942 - 0000394B (0xa bytes), align: 1
  Segment part 496.           Intra module refs:   Font8x8_char_237
    -------------------------------------------------------------------------
NEAR_CONST_ID
  Relative segment, address: 0000394C - 00003955 (0xa bytes), align: 1
  Segment part 497.           Intra module refs:   Font8x8_char_238
    -------------------------------------------------------------------------
NEAR_CONST_ID
  Relative segment, address: 00003956 - 0000395F (0xa bytes), align: 1
  Segment part 498.           Intra module refs:   Font8x8_char_239
    -------------------------------------------------------------------------
NEAR_CONST_ID
  Relative segment, address: 00003960 - 00003969 (0xa bytes), align: 1
  Segment part 499.           Intra module refs:   Font8x8_char_240
    -------------------------------------------------------------------------
NEAR_CONST_ID
  Relative segment, address: 0000396A - 00003973 (0xa bytes), align: 1
  Segment part 500.           Intra module refs:   Font8x8_char_241
    -------------------------------------------------------------------------
NEAR_CONST_ID
  Relative segment, address: 00003974 - 0000397D (0xa bytes), align: 1
  Segment part 501.           Intra module refs:   Font8x8_char_242
    -------------------------------------------------------------------------
NEAR_CONST_ID
  Relative segment, address: 0000397E - 00003987 (0xa bytes), align: 1
  Segment part 502.           Intra module refs:   Font8x8_char_243
    -------------------------------------------------------------------------
NEAR_CONST_ID
  Relative segment, address: 00003988 - 00003991 (0xa bytes), align: 1
  Segment part 503.           Intra module refs:   Font8x8_char_244
    -------------------------------------------------------------------------
NEAR_CONST_ID
  Relative segment, address: 00003992 - 0000399B (0xa bytes), align: 1
  Segment part 504.           Intra module refs:   Font8x8_char_245
    -------------------------------------------------------------------------
NEAR_CONST_ID
  Relative segment, address: 0000399C - 000039A5 (0xa bytes), align: 1
  Segment part 505.           Intra module refs:   Font8x8_char_246
    -------------------------------------------------------------------------
NEAR_CONST_ID
  Relative segment, address: 000039A6 - 000039AF (0xa bytes), align: 1
  Segment part 506.           Intra module refs:   Font8x8_char_247
    -------------------------------------------------------------------------
NEAR_CONST_ID
  Relative segment, address: 000039B0 - 000039B9 (0xa bytes), align: 1
  Segment part 507.           Intra module refs:   Font8x8_char_248
    -------------------------------------------------------------------------
NEAR_CONST_ID
  Relative segment, address: 000039BA - 000039C3 (0xa bytes), align: 1
  Segment part 508.           Intra module refs:   Font8x8_char_249
    -------------------------------------------------------------------------
NEAR_CONST_ID
  Relative segment, address: 000039C4 - 000039CD (0xa bytes), align: 1
  Segment part 509.           Intra module refs:   Font8x8_char_250
    -------------------------------------------------------------------------
NEAR_CONST_ID
  Relative segment, address: 000039CE - 000039D7 (0xa bytes), align: 1
  Segment part 510.           Intra module refs:   Font8x8_char_251
    -------------------------------------------------------------------------
NEAR_CONST_ID
  Relative segment, address: 000039D8 - 000039E1 (0xa bytes), align: 1
  Segment part 511.           Intra module refs:   Font8x8_char_252
    -------------------------------------------------------------------------
NEAR_CONST_ID
  Relative segment, address: 000039E2 - 000039EB (0xa bytes), align: 1
  Segment part 512.           Intra module refs:   Font8x8_char_253
    -------------------------------------------------------------------------
NEAR_CONST_ID
  Relative segment, address: 000039EC - 000039F5 (0xa bytes), align: 1
  Segment part 513.           Intra module refs:   Font8x8_char_254
    -------------------------------------------------------------------------
NEAR_CONST_ID
  Relative segment, address: 000039F6 - 000039FF (0xa bytes), align: 1
  Segment part 514.           Intra module refs:   Font8x8_char_255
    -------------------------------------------------------------------------
NEAR_CONST_ID
  Relative segment, address: 00003A00 - 00003BFF (0x200 bytes), align: 1
  Segment part 515.           Intra module refs:   Font8x8_table

    *************************************************************************

  FILE NAME : D:\NCSU\Courses\ECE 561 Embedded System Design\Project 3\Project3\Project3\Project3Code\Debug\Obj\font_helvr10.r87
    *************************************************************************

  FILE NAME : D:\NCSU\Courses\ECE 561 Embedded System Design\Project 3\Project3\Project3\Project3Code\Debug\Obj\font_logos.r87
    *************************************************************************

  FILE NAME : D:\NCSU\Courses\ECE 561 Embedded System Design\Project 3\Project3\Project3\Project3Code\Debug\Obj\font_winfreesystem14x16.r87
    *************************************************************************

  FILE NAME : D:\NCSU\Courses\ECE 561 Embedded System Design\Project 3\Project3\Project3\Project3Code\Debug\Obj\font_x5x7.r87
  PROGRAM MODULE, NAME : font_x5x7

  SEGMENTS IN THE MODULE
  ======================
NEAR_CONST
  Relative segment, address: 000F3C00 - 000F3C07 (0x8 bytes), align: 1
  Segment part 2.             Intra module refs:   Fontx5x7_table
           ENTRY                   ADDRESS         REF BY
           =====                   =======         ======
           Fontx5x7_char_0         000F3C00 
    -------------------------------------------------------------------------
NEAR_CONST
  Relative segment, address: 000F3C08 - 000F3C0F (0x8 bytes), align: 1
  Segment part 3.             Intra module refs:   Fontx5x7_table
           ENTRY                   ADDRESS         REF BY
           =====                   =======         ======
           Fontx5x7_char_1         000F3C08 
    -------------------------------------------------------------------------
NEAR_CONST
  Relative segment, address: 000F3C10 - 000F3C17 (0x8 bytes), align: 1
  Segment part 4.             Intra module refs:   Fontx5x7_table
           ENTRY                   ADDRESS         REF BY
           =====                   =======         ======
           Fontx5x7_char_2         000F3C10 
    -------------------------------------------------------------------------
NEAR_CONST
  Relative segment, address: 000F3C18 - 000F3C1F (0x8 bytes), align: 1
  Segment part 5.             Intra module refs:   Fontx5x7_table
           ENTRY                   ADDRESS         REF BY
           =====                   =======         ======
           Fontx5x7_char_3         000F3C18 
    -------------------------------------------------------------------------
NEAR_CONST
  Relative segment, address: 000F3C20 - 000F3C27 (0x8 bytes), align: 1
  Segment part 6.             Intra module refs:   Fontx5x7_table
           ENTRY                   ADDRESS         REF BY
           =====                   =======         ======
           Fontx5x7_char_4         000F3C20 
    -------------------------------------------------------------------------
NEAR_CONST
  Relative segment, address: 000F3C28 - 000F3C2F (0x8 bytes), align: 1
  Segment part 7.             Intra module refs:   Fontx5x7_table
           ENTRY                   ADDRESS         REF BY
           =====                   =======         ======
           Fontx5x7_char_5         000F3C28 
    -------------------------------------------------------------------------
NEAR_CONST
  Relative segment, address: 000F3C30 - 000F3C37 (0x8 bytes), align: 1
  Segment part 8.             Intra module refs:   Fontx5x7_table
           ENTRY                   ADDRESS         REF BY
           =====                   =======         ======
           Fontx5x7_char_6         000F3C30 
    -------------------------------------------------------------------------
NEAR_CONST
  Relative segment, address: 000F3C38 - 000F3C3F (0x8 bytes), align: 1
  Segment part 9.             Intra module refs:   Fontx5x7_table
           ENTRY                   ADDRESS         REF BY
           =====                   =======         ======
           Fontx5x7_char_7         000F3C38 
    -------------------------------------------------------------------------
NEAR_CONST
  Relative segment, address: 000F3C40 - 000F3C47 (0x8 bytes), align: 1
  Segment part 10.            Intra module refs:   Fontx5x7_table
           ENTRY                   ADDRESS         REF BY
           =====                   =======         ======
           Fontx5x7_char_8         000F3C40 
    -------------------------------------------------------------------------
NEAR_CONST
  Relative segment, address: 000F3C48 - 000F3C4F (0x8 bytes), align: 1
  Segment part 11.            Intra module refs:   Fontx5x7_table
           ENTRY                   ADDRESS         REF BY
           =====                   =======         ======
           Fontx5x7_char_9         000F3C48 
    -------------------------------------------------------------------------
NEAR_CONST
  Relative segment, address: 000F3C50 - 000F3C57 (0x8 bytes), align: 1
  Segment part 12.            Intra module refs:   Fontx5x7_table
           ENTRY                   ADDRESS         REF BY
           =====                   =======         ======
           Fontx5x7_char_10        000F3C50 
    -------------------------------------------------------------------------
NEAR_CONST
  Relative segment, address: 000F3C58 - 000F3C5F (0x8 bytes), align: 1
  Segment part 13.            Intra module refs:   Fontx5x7_table
           ENTRY                   ADDRESS         REF BY
           =====                   =======         ======
           Fontx5x7_char_11        000F3C58 
    -------------------------------------------------------------------------
NEAR_CONST
  Relative segment, address: 000F3C60 - 000F3C67 (0x8 bytes), align: 1
  Segment part 14.            Intra module refs:   Fontx5x7_table
           ENTRY                   ADDRESS         REF BY
           =====                   =======         ======
           Fontx5x7_char_12        000F3C60 
    -------------------------------------------------------------------------
NEAR_CONST
  Relative segment, address: 000F3C68 - 000F3C6F (0x8 bytes), align: 1
  Segment part 15.            Intra module refs:   Fontx5x7_table
           ENTRY                   ADDRESS         REF BY
           =====                   =======         ======
           Fontx5x7_char_13        000F3C68 
    -------------------------------------------------------------------------
NEAR_CONST
  Relative segment, address: 000F3C70 - 000F3C77 (0x8 bytes), align: 1
  Segment part 16.            Intra module refs:   Fontx5x7_table
           ENTRY                   ADDRESS         REF BY
           =====                   =======         ======
           Fontx5x7_char_14        000F3C70 
    -------------------------------------------------------------------------
NEAR_CONST
  Relative segment, address: 000F3C78 - 000F3C7F (0x8 bytes), align: 1
  Segment part 17.            Intra module refs:   Fontx5x7_table
           ENTRY                   ADDRESS         REF BY
           =====                   =======         ======
           Fontx5x7_char_15        000F3C78 
    -------------------------------------------------------------------------
NEAR_CONST
  Relative segment, address: 000F3C80 - 000F3C87 (0x8 bytes), align: 1
  Segment part 18.            Intra module refs:   Fontx5x7_table
           ENTRY                   ADDRESS         REF BY
           =====                   =======         ======
           Fontx5x7_char_16        000F3C80 
    -------------------------------------------------------------------------
NEAR_CONST
  Relative segment, address: 000F3C88 - 000F3C8F (0x8 bytes), align: 1
  Segment part 19.            Intra module refs:   Fontx5x7_table
           ENTRY                   ADDRESS         REF BY
           =====                   =======         ======
           Fontx5x7_char_17        000F3C88 
    -------------------------------------------------------------------------
NEAR_CONST
  Relative segment, address: 000F3C90 - 000F3C97 (0x8 bytes), align: 1
  Segment part 20.            Intra module refs:   Fontx5x7_table
           ENTRY                   ADDRESS         REF BY
           =====                   =======         ======
           Fontx5x7_char_18        000F3C90 
    -------------------------------------------------------------------------
NEAR_CONST
  Relative segment, address: 000F3C98 - 000F3C9F (0x8 bytes), align: 1
  Segment part 21.            Intra module refs:   Fontx5x7_table
           ENTRY                   ADDRESS         REF BY
           =====                   =======         ======
           Fontx5x7_char_19        000F3C98 
    -------------------------------------------------------------------------
NEAR_CONST
  Relative segment, address: 000F3CA0 - 000F3CA7 (0x8 bytes), align: 1
  Segment part 22.            Intra module refs:   Fontx5x7_table
           ENTRY                   ADDRESS         REF BY
           =====                   =======         ======
           Fontx5x7_char_20        000F3CA0 
    -------------------------------------------------------------------------
NEAR_CONST
  Relative segment, address: 000F3CA8 - 000F3CAF (0x8 bytes), align: 1
  Segment part 23.            Intra module refs:   Fontx5x7_table
           ENTRY                   ADDRESS         REF BY
           =====                   =======         ======
           Fontx5x7_char_21        000F3CA8 
    -------------------------------------------------------------------------
NEAR_CONST
  Relative segment, address: 000F3CB0 - 000F3CB7 (0x8 bytes), align: 1
  Segment part 24.            Intra module refs:   Fontx5x7_table
           ENTRY                   ADDRESS         REF BY
           =====                   =======         ======
           Fontx5x7_char_22        000F3CB0 
    -------------------------------------------------------------------------
NEAR_CONST
  Relative segment, address: 000F3CB8 - 000F3CBF (0x8 bytes), align: 1
  Segment part 25.            Intra module refs:   Fontx5x7_table
           ENTRY                   ADDRESS         REF BY
           =====                   =======         ======
           Fontx5x7_char_23        000F3CB8 
    -------------------------------------------------------------------------
NEAR_CONST
  Relative segment, address: 000F3CC0 - 000F3CC7 (0x8 bytes), align: 1
  Segment part 26.            Intra module refs:   Fontx5x7_table
           ENTRY                   ADDRESS         REF BY
           =====                   =======         ======
           Fontx5x7_char_24        000F3CC0 
    -------------------------------------------------------------------------
NEAR_CONST
  Relative segment, address: 000F3CC8 - 000F3CCF (0x8 bytes), align: 1
  Segment part 27.            Intra module refs:   Fontx5x7_table
           ENTRY                   ADDRESS         REF BY
           =====                   =======         ======
           Fontx5x7_char_25        000F3CC8 
    -------------------------------------------------------------------------
NEAR_CONST
  Relative segment, address: 000F3CD0 - 000F3CD7 (0x8 bytes), align: 1
  Segment part 28.            Intra module refs:   Fontx5x7_table
           ENTRY                   ADDRESS         REF BY
           =====                   =======         ======
           Fontx5x7_char_26        000F3CD0 
    -------------------------------------------------------------------------
NEAR_CONST
  Relative segment, address: 000F3CD8 - 000F3CDF (0x8 bytes), align: 1
  Segment part 29.            Intra module refs:   Fontx5x7_table
           ENTRY                   ADDRESS         REF BY
           =====                   =======         ======
           Fontx5x7_char_27        000F3CD8 
    -------------------------------------------------------------------------
NEAR_CONST
  Relative segment, address: 000F3CE0 - 000F3CE7 (0x8 bytes), align: 1
  Segment part 30.            Intra module refs:   Fontx5x7_table
           ENTRY                   ADDRESS         REF BY
           =====                   =======         ======
           Fontx5x7_char_28        000F3CE0 
    -------------------------------------------------------------------------
NEAR_CONST
  Relative segment, address: 000F3CE8 - 000F3CEF (0x8 bytes), align: 1
  Segment part 31.            Intra module refs:   Fontx5x7_table
           ENTRY                   ADDRESS         REF BY
           =====                   =======         ======
           Fontx5x7_char_29        000F3CE8 
    -------------------------------------------------------------------------
NEAR_CONST
  Relative segment, address: 000F3CF0 - 000F3CF7 (0x8 bytes), align: 1
  Segment part 32.            Intra module refs:   Fontx5x7_table
           ENTRY                   ADDRESS         REF BY
           =====                   =======         ======
           Fontx5x7_char_30        000F3CF0 
    -------------------------------------------------------------------------
NEAR_CONST
  Relative segment, address: 000F3CF8 - 000F3CFF (0x8 bytes), align: 1
  Segment part 33.            Intra module refs:   Fontx5x7_table
           ENTRY                   ADDRESS         REF BY
           =====                   =======         ======
           Fontx5x7_char_31        000F3CF8 
    -------------------------------------------------------------------------
NEAR_CONST
  Relative segment, address: 000F3D00 - 000F3D07 (0x8 bytes), align: 1
  Segment part 34.            Intra module refs:   Fontx5x7_table
           ENTRY                   ADDRESS         REF BY
           =====                   =======         ======
           Fontx5x7_char_32        000F3D00 
    -------------------------------------------------------------------------
NEAR_CONST
  Relative segment, address: 000F3D08 - 000F3D0F (0x8 bytes), align: 1
  Segment part 35.            Intra module refs:   Fontx5x7_table
           ENTRY                   ADDRESS         REF BY
           =====                   =======         ======
           Fontx5x7_char_33        000F3D08 
    -------------------------------------------------------------------------
NEAR_CONST
  Relative segment, address: 000F3D10 - 000F3D17 (0x8 bytes), align: 1
  Segment part 36.            Intra module refs:   Fontx5x7_table
           ENTRY                   ADDRESS         REF BY
           =====                   =======         ======
           Fontx5x7_char_34        000F3D10 
    -------------------------------------------------------------------------
NEAR_CONST
  Relative segment, address: 000F3D18 - 000F3D1F (0x8 bytes), align: 1
  Segment part 37.            Intra module refs:   Fontx5x7_table
           ENTRY                   ADDRESS         REF BY
           =====                   =======         ======
           Fontx5x7_char_35        000F3D18 
    -------------------------------------------------------------------------
NEAR_CONST
  Relative segment, address: 000F3D20 - 000F3D27 (0x8 bytes), align: 1
  Segment part 38.            Intra module refs:   Fontx5x7_table
           ENTRY                   ADDRESS         REF BY
           =====                   =======         ======
           Fontx5x7_char_36        000F3D20 
    -------------------------------------------------------------------------
NEAR_CONST
  Relative segment, address: 000F3D28 - 000F3D2F (0x8 bytes), align: 1
  Segment part 39.            Intra module refs:   Fontx5x7_table
           ENTRY                   ADDRESS         REF BY
           =====                   =======         ======
           Fontx5x7_char_37        000F3D28 
    -------------------------------------------------------------------------
NEAR_CONST
  Relative segment, address: 000F3D30 - 000F3D37 (0x8 bytes), align: 1
  Segment part 40.            Intra module refs:   Fontx5x7_table
           ENTRY                   ADDRESS         REF BY
           =====                   =======         ======
           Fontx5x7_char_38        000F3D30 
    -------------------------------------------------------------------------
NEAR_CONST
  Relative segment, address: 000F3D38 - 000F3D3F (0x8 bytes), align: 1
  Segment part 41.            Intra module refs:   Fontx5x7_table
           ENTRY                   ADDRESS         REF BY
           =====                   =======         ======
           Fontx5x7_char_39        000F3D38 
    -------------------------------------------------------------------------
NEAR_CONST
  Relative segment, address: 000F3D40 - 000F3D47 (0x8 bytes), align: 1
  Segment part 42.            Intra module refs:   Fontx5x7_table
           ENTRY                   ADDRESS         REF BY
           =====                   =======         ======
           Fontx5x7_char_40        000F3D40 
    -------------------------------------------------------------------------
NEAR_CONST
  Relative segment, address: 000F3D48 - 000F3D4F (0x8 bytes), align: 1
  Segment part 43.            Intra module refs:   Fontx5x7_table
           ENTRY                   ADDRESS         REF BY
           =====                   =======         ======
           Fontx5x7_char_41        000F3D48 
    -------------------------------------------------------------------------
NEAR_CONST
  Relative segment, address: 000F3D50 - 000F3D57 (0x8 bytes), align: 1
  Segment part 44.            Intra module refs:   Fontx5x7_table
           ENTRY                   ADDRESS         REF BY
           =====                   =======         ======
           Fontx5x7_char_42        000F3D50 
    -------------------------------------------------------------------------
NEAR_CONST
  Relative segment, address: 000F3D58 - 000F3D5F (0x8 bytes), align: 1
  Segment part 45.            Intra module refs:   Fontx5x7_table
           ENTRY                   ADDRESS         REF BY
           =====                   =======         ======
           Fontx5x7_char_43        000F3D58 
    -------------------------------------------------------------------------
NEAR_CONST
  Relative segment, address: 000F3D60 - 000F3D67 (0x8 bytes), align: 1
  Segment part 46.            Intra module refs:   Fontx5x7_table
           ENTRY                   ADDRESS         REF BY
           =====                   =======         ======
           Fontx5x7_char_44        000F3D60 
    -------------------------------------------------------------------------
NEAR_CONST
  Relative segment, address: 000F3D68 - 000F3D6F (0x8 bytes), align: 1
  Segment part 47.            Intra module refs:   Fontx5x7_table
           ENTRY                   ADDRESS         REF BY
           =====                   =======         ======
           Fontx5x7_char_45        000F3D68 
    -------------------------------------------------------------------------
NEAR_CONST
  Relative segment, address: 000F3D70 - 000F3D77 (0x8 bytes), align: 1
  Segment part 48.            Intra module refs:   Fontx5x7_table
           ENTRY                   ADDRESS         REF BY
           =====                   =======         ======
           Fontx5x7_char_46        000F3D70 
    -------------------------------------------------------------------------
NEAR_CONST
  Relative segment, address: 000F3D78 - 000F3D7F (0x8 bytes), align: 1
  Segment part 49.            Intra module refs:   Fontx5x7_table
           ENTRY                   ADDRESS         REF BY
           =====                   =======         ======
           Fontx5x7_char_47        000F3D78 
    -------------------------------------------------------------------------
NEAR_CONST
  Relative segment, address: 000F3D80 - 000F3D87 (0x8 bytes), align: 1
  Segment part 50.            Intra module refs:   Fontx5x7_table
           ENTRY                   ADDRESS         REF BY
           =====                   =======         ======
           Fontx5x7_char_48        000F3D80 
    -------------------------------------------------------------------------
NEAR_CONST
  Relative segment, address: 000F3D88 - 000F3D8F (0x8 bytes), align: 1
  Segment part 51.            Intra module refs:   Fontx5x7_table
           ENTRY                   ADDRESS         REF BY
           =====                   =======         ======
           Fontx5x7_char_49        000F3D88 
    -------------------------------------------------------------------------
NEAR_CONST
  Relative segment, address: 000F3D90 - 000F3D97 (0x8 bytes), align: 1
  Segment part 52.            Intra module refs:   Fontx5x7_table
           ENTRY                   ADDRESS         REF BY
           =====                   =======         ======
           Fontx5x7_char_50        000F3D90 
    -------------------------------------------------------------------------
NEAR_CONST
  Relative segment, address: 000F3D98 - 000F3D9F (0x8 bytes), align: 1
  Segment part 53.            Intra module refs:   Fontx5x7_table
           ENTRY                   ADDRESS         REF BY
           =====                   =======         ======
           Fontx5x7_char_51        000F3D98 
    -------------------------------------------------------------------------
NEAR_CONST
  Relative segment, address: 000F3DA0 - 000F3DA7 (0x8 bytes), align: 1
  Segment part 54.            Intra module refs:   Fontx5x7_table
           ENTRY                   ADDRESS         REF BY
           =====                   =======         ======
           Fontx5x7_char_52        000F3DA0 
    -------------------------------------------------------------------------
NEAR_CONST
  Relative segment, address: 000F3DA8 - 000F3DAF (0x8 bytes), align: 1
  Segment part 55.            Intra module refs:   Fontx5x7_table
           ENTRY                   ADDRESS         REF BY
           =====                   =======         ======
           Fontx5x7_char_53        000F3DA8 
    -------------------------------------------------------------------------
NEAR_CONST
  Relative segment, address: 000F3DB0 - 000F3DB7 (0x8 bytes), align: 1
  Segment part 56.            Intra module refs:   Fontx5x7_table
           ENTRY                   ADDRESS         REF BY
           =====                   =======         ======
           Fontx5x7_char_54        000F3DB0 
    -------------------------------------------------------------------------
NEAR_CONST
  Relative segment, address: 000F3DB8 - 000F3DBF (0x8 bytes), align: 1
  Segment part 57.            Intra module refs:   Fontx5x7_table
           ENTRY                   ADDRESS         REF BY
           =====                   =======         ======
           Fontx5x7_char_55        000F3DB8 
    -------------------------------------------------------------------------
NEAR_CONST
  Relative segment, address: 000F3DC0 - 000F3DC7 (0x8 bytes), align: 1
  Segment part 58.            Intra module refs:   Fontx5x7_table
           ENTRY                   ADDRESS         REF BY
           =====                   =======         ======
           Fontx5x7_char_56        000F3DC0 
    -------------------------------------------------------------------------
NEAR_CONST
  Relative segment, address: 000F3DC8 - 000F3DCF (0x8 bytes), align: 1
  Segment part 59.            Intra module refs:   Fontx5x7_table
           ENTRY                   ADDRESS         REF BY
           =====                   =======         ======
           Fontx5x7_char_57        000F3DC8 
    -------------------------------------------------------------------------
NEAR_CONST
  Relative segment, address: 000F3DD0 - 000F3DD7 (0x8 bytes), align: 1
  Segment part 60.            Intra module refs:   Fontx5x7_table
           ENTRY                   ADDRESS         REF BY
           =====                   =======         ======
           Fontx5x7_char_58        000F3DD0 
    -------------------------------------------------------------------------
NEAR_CONST
  Relative segment, address: 000F3DD8 - 000F3DDF (0x8 bytes), align: 1
  Segment part 61.            Intra module refs:   Fontx5x7_table
           ENTRY                   ADDRESS         REF BY
           =====                   =======         ======
           Fontx5x7_char_59        000F3DD8 
    -------------------------------------------------------------------------
NEAR_CONST
  Relative segment, address: 000F3DE0 - 000F3DE7 (0x8 bytes), align: 1
  Segment part 62.            Intra module refs:   Fontx5x7_table
           ENTRY                   ADDRESS         REF BY
           =====                   =======         ======
           Fontx5x7_char_60        000F3DE0 
    -------------------------------------------------------------------------
NEAR_CONST
  Relative segment, address: 000F3DE8 - 000F3DEF (0x8 bytes), align: 1
  Segment part 63.            Intra module refs:   Fontx5x7_table
           ENTRY                   ADDRESS         REF BY
           =====                   =======         ======
           Fontx5x7_char_61        000F3DE8 
    -------------------------------------------------------------------------
NEAR_CONST
  Relative segment, address: 000F3DF0 - 000F3DF7 (0x8 bytes), align: 1
  Segment part 64.            Intra module refs:   Fontx5x7_table
           ENTRY                   ADDRESS         REF BY
           =====                   =======         ======
           Fontx5x7_char_62        000F3DF0 
    -------------------------------------------------------------------------
NEAR_CONST
  Relative segment, address: 000F3DF8 - 000F3DFF (0x8 bytes), align: 1
  Segment part 65.            Intra module refs:   Fontx5x7_table
           ENTRY                   ADDRESS         REF BY
           =====                   =======         ======
           Fontx5x7_char_63        000F3DF8 
    -------------------------------------------------------------------------
NEAR_CONST
  Relative segment, address: 000F3E00 - 000F3E07 (0x8 bytes), align: 1
  Segment part 66.            Intra module refs:   Fontx5x7_table
           ENTRY                   ADDRESS         REF BY
           =====                   =======         ======
           Fontx5x7_char_64        000F3E00 
    -------------------------------------------------------------------------
NEAR_CONST
  Relative segment, address: 000F3E08 - 000F3E0F (0x8 bytes), align: 1
  Segment part 67.            Intra module refs:   Fontx5x7_table
           ENTRY                   ADDRESS         REF BY
           =====                   =======         ======
           Fontx5x7_char_65        000F3E08 
    -------------------------------------------------------------------------
NEAR_CONST
  Relative segment, address: 000F3E10 - 000F3E17 (0x8 bytes), align: 1
  Segment part 68.            Intra module refs:   Fontx5x7_table
           ENTRY                   ADDRESS         REF BY
           =====                   =======         ======
           Fontx5x7_char_66        000F3E10 
    -------------------------------------------------------------------------
NEAR_CONST
  Relative segment, address: 000F3E18 - 000F3E1F (0x8 bytes), align: 1
  Segment part 69.            Intra module refs:   Fontx5x7_table
           ENTRY                   ADDRESS         REF BY
           =====                   =======         ======
           Fontx5x7_char_67        000F3E18 
    -------------------------------------------------------------------------
NEAR_CONST
  Relative segment, address: 000F3E20 - 000F3E27 (0x8 bytes), align: 1
  Segment part 70.            Intra module refs:   Fontx5x7_table
           ENTRY                   ADDRESS         REF BY
           =====                   =======         ======
           Fontx5x7_char_68        000F3E20 
    -------------------------------------------------------------------------
NEAR_CONST
  Relative segment, address: 000F3E28 - 000F3E2F (0x8 bytes), align: 1
  Segment part 71.            Intra module refs:   Fontx5x7_table
           ENTRY                   ADDRESS         REF BY
           =====                   =======         ======
           Fontx5x7_char_69        000F3E28 
    -------------------------------------------------------------------------
NEAR_CONST
  Relative segment, address: 000F3E30 - 000F3E37 (0x8 bytes), align: 1
  Segment part 72.            Intra module refs:   Fontx5x7_table
           ENTRY                   ADDRESS         REF BY
           =====                   =======         ======
           Fontx5x7_char_70        000F3E30 
    -------------------------------------------------------------------------
NEAR_CONST
  Relative segment, address: 000F3E38 - 000F3E3F (0x8 bytes), align: 1
  Segment part 73.            Intra module refs:   Fontx5x7_table
           ENTRY                   ADDRESS         REF BY
           =====                   =======         ======
           Fontx5x7_char_71        000F3E38 
    -------------------------------------------------------------------------
NEAR_CONST
  Relative segment, address: 000F3E40 - 000F3E47 (0x8 bytes), align: 1
  Segment part 74.            Intra module refs:   Fontx5x7_table
           ENTRY                   ADDRESS         REF BY
           =====                   =======         ======
           Fontx5x7_char_72        000F3E40 
    -------------------------------------------------------------------------
NEAR_CONST
  Relative segment, address: 000F3E48 - 000F3E4F (0x8 bytes), align: 1
  Segment part 75.            Intra module refs:   Fontx5x7_table
           ENTRY                   ADDRESS         REF BY
           =====                   =======         ======
           Fontx5x7_char_73        000F3E48 
    -------------------------------------------------------------------------
NEAR_CONST
  Relative segment, address: 000F3E50 - 000F3E57 (0x8 bytes), align: 1
  Segment part 76.            Intra module refs:   Fontx5x7_table
           ENTRY                   ADDRESS         REF BY
           =====                   =======         ======
           Fontx5x7_char_74        000F3E50 
    -------------------------------------------------------------------------
NEAR_CONST
  Relative segment, address: 000F3E58 - 000F3E5F (0x8 bytes), align: 1
  Segment part 77.            Intra module refs:   Fontx5x7_table
           ENTRY                   ADDRESS         REF BY
           =====                   =======         ======
           Fontx5x7_char_75        000F3E58 
    -------------------------------------------------------------------------
NEAR_CONST
  Relative segment, address: 000F3E60 - 000F3E67 (0x8 bytes), align: 1
  Segment part 78.            Intra module refs:   Fontx5x7_table
           ENTRY                   ADDRESS         REF BY
           =====                   =======         ======
           Fontx5x7_char_76        000F3E60 
    -------------------------------------------------------------------------
NEAR_CONST
  Relative segment, address: 000F3E68 - 000F3E6F (0x8 bytes), align: 1
  Segment part 79.            Intra module refs:   Fontx5x7_table
           ENTRY                   ADDRESS         REF BY
           =====                   =======         ======
           Fontx5x7_char_77        000F3E68 
    -------------------------------------------------------------------------
NEAR_CONST
  Relative segment, address: 000F3E70 - 000F3E77 (0x8 bytes), align: 1
  Segment part 80.            Intra module refs:   Fontx5x7_table
           ENTRY                   ADDRESS         REF BY
           =====                   =======         ======
           Fontx5x7_char_78        000F3E70 
    -------------------------------------------------------------------------
NEAR_CONST
  Relative segment, address: 000F3E78 - 000F3E7F (0x8 bytes), align: 1
  Segment part 81.            Intra module refs:   Fontx5x7_table
           ENTRY                   ADDRESS         REF BY
           =====                   =======         ======
           Fontx5x7_char_79        000F3E78 
    -------------------------------------------------------------------------
NEAR_CONST
  Relative segment, address: 000F3E80 - 000F3E87 (0x8 bytes), align: 1
  Segment part 82.            Intra module refs:   Fontx5x7_table
           ENTRY                   ADDRESS         REF BY
           =====                   =======         ======
           Fontx5x7_char_80        000F3E80 
    -------------------------------------------------------------------------
NEAR_CONST
  Relative segment, address: 000F3E88 - 000F3E8F (0x8 bytes), align: 1
  Segment part 83.            Intra module refs:   Fontx5x7_table
           ENTRY                   ADDRESS         REF BY
           =====                   =======         ======
           Fontx5x7_char_81        000F3E88 
    -------------------------------------------------------------------------
NEAR_CONST
  Relative segment, address: 000F3E90 - 000F3E97 (0x8 bytes), align: 1
  Segment part 84.            Intra module refs:   Fontx5x7_table
           ENTRY                   ADDRESS         REF BY
           =====                   =======         ======
           Fontx5x7_char_82        000F3E90 
    -------------------------------------------------------------------------
NEAR_CONST
  Relative segment, address: 000F3E98 - 000F3E9F (0x8 bytes), align: 1
  Segment part 85.            Intra module refs:   Fontx5x7_table
           ENTRY                   ADDRESS         REF BY
           =====                   =======         ======
           Fontx5x7_char_83        000F3E98 
    -------------------------------------------------------------------------
NEAR_CONST
  Relative segment, address: 000F3EA0 - 000F3EA7 (0x8 bytes), align: 1
  Segment part 86.            Intra module refs:   Fontx5x7_table
           ENTRY                   ADDRESS         REF BY
           =====                   =======         ======
           Fontx5x7_char_84        000F3EA0 
    -------------------------------------------------------------------------
NEAR_CONST
  Relative segment, address: 000F3EA8 - 000F3EAF (0x8 bytes), align: 1
  Segment part 87.            Intra module refs:   Fontx5x7_table
           ENTRY                   ADDRESS         REF BY
           =====                   =======         ======
           Fontx5x7_char_85        000F3EA8 
    -------------------------------------------------------------------------
NEAR_CONST
  Relative segment, address: 000F3EB0 - 000F3EB7 (0x8 bytes), align: 1
  Segment part 88.            Intra module refs:   Fontx5x7_table
           ENTRY                   ADDRESS         REF BY
           =====                   =======         ======
           Fontx5x7_char_86        000F3EB0 
    -------------------------------------------------------------------------
NEAR_CONST
  Relative segment, address: 000F3EB8 - 000F3EBF (0x8 bytes), align: 1
  Segment part 89.            Intra module refs:   Fontx5x7_table
           ENTRY                   ADDRESS         REF BY
           =====                   =======         ======
           Fontx5x7_char_87        000F3EB8 
    -------------------------------------------------------------------------
NEAR_CONST
  Relative segment, address: 000F3EC0 - 000F3EC7 (0x8 bytes), align: 1
  Segment part 90.            Intra module refs:   Fontx5x7_table
           ENTRY                   ADDRESS         REF BY
           =====                   =======         ======
           Fontx5x7_char_88        000F3EC0 
    -------------------------------------------------------------------------
NEAR_CONST
  Relative segment, address: 000F3EC8 - 000F3ECF (0x8 bytes), align: 1
  Segment part 91.            Intra module refs:   Fontx5x7_table
           ENTRY                   ADDRESS         REF BY
           =====                   =======         ======
           Fontx5x7_char_89        000F3EC8 
    -------------------------------------------------------------------------
NEAR_CONST
  Relative segment, address: 000F3ED0 - 000F3ED7 (0x8 bytes), align: 1
  Segment part 92.            Intra module refs:   Fontx5x7_table
           ENTRY                   ADDRESS         REF BY
           =====                   =======         ======
           Fontx5x7_char_90        000F3ED0 
    -------------------------------------------------------------------------
NEAR_CONST
  Relative segment, address: 000F3ED8 - 000F3EDF (0x8 bytes), align: 1
  Segment part 93.            Intra module refs:   Fontx5x7_table
           ENTRY                   ADDRESS         REF BY
           =====                   =======         ======
           Fontx5x7_char_91        000F3ED8 
    -------------------------------------------------------------------------
NEAR_CONST
  Relative segment, address: 000F3EE0 - 000F3EE7 (0x8 bytes), align: 1
  Segment part 94.            Intra module refs:   Fontx5x7_table
           ENTRY                   ADDRESS         REF BY
           =====                   =======         ======
           Fontx5x7_char_92        000F3EE0 
    -------------------------------------------------------------------------
NEAR_CONST
  Relative segment, address: 000F3EE8 - 000F3EEF (0x8 bytes), align: 1
  Segment part 95.            Intra module refs:   Fontx5x7_table
           ENTRY                   ADDRESS         REF BY
           =====                   =======         ======
           Fontx5x7_char_93        000F3EE8 
    -------------------------------------------------------------------------
NEAR_CONST
  Relative segment, address: 000F3EF0 - 000F3EF7 (0x8 bytes), align: 1
  Segment part 96.            Intra module refs:   Fontx5x7_table
           ENTRY                   ADDRESS         REF BY
           =====                   =======         ======
           Fontx5x7_char_94        000F3EF0 
    -------------------------------------------------------------------------
NEAR_CONST
  Relative segment, address: 000F3EF8 - 000F3EFF (0x8 bytes), align: 1
  Segment part 97.            Intra module refs:   Fontx5x7_table
           ENTRY                   ADDRESS         REF BY
           =====                   =======         ======
           Fontx5x7_char_95        000F3EF8 
    -------------------------------------------------------------------------
NEAR_CONST
  Relative segment, address: 000F3F00 - 000F3F07 (0x8 bytes), align: 1
  Segment part 98.            Intra module refs:   Fontx5x7_table
           ENTRY                   ADDRESS         REF BY
           =====                   =======         ======
           Fontx5x7_char_96        000F3F00 
    -------------------------------------------------------------------------
NEAR_CONST
  Relative segment, address: 000F3F08 - 000F3F0F (0x8 bytes), align: 1
  Segment part 99.            Intra module refs:   Fontx5x7_table
           ENTRY                   ADDRESS         REF BY
           =====                   =======         ======
           Fontx5x7_char_97        000F3F08 
    -------------------------------------------------------------------------
NEAR_CONST
  Relative segment, address: 000F3F10 - 000F3F17 (0x8 bytes), align: 1
  Segment part 100.           Intra module refs:   Fontx5x7_table
           ENTRY                   ADDRESS         REF BY
           =====                   =======         ======
           Fontx5x7_char_98        000F3F10 
    -------------------------------------------------------------------------
NEAR_CONST
  Relative segment, address: 000F3F18 - 000F3F1F (0x8 bytes), align: 1
  Segment part 101.           Intra module refs:   Fontx5x7_table
           ENTRY                   ADDRESS         REF BY
           =====                   =======         ======
           Fontx5x7_char_99        000F3F18 
    -------------------------------------------------------------------------
NEAR_CONST
  Relative segment, address: 000F3F20 - 000F3F27 (0x8 bytes), align: 1
  Segment part 102.           Intra module refs:   Fontx5x7_table
           ENTRY                   ADDRESS         REF BY
           =====                   =======         ======
           Fontx5x7_char_100       000F3F20 
    -------------------------------------------------------------------------
NEAR_CONST
  Relative segment, address: 000F3F28 - 000F3F2F (0x8 bytes), align: 1
  Segment part 103.           Intra module refs:   Fontx5x7_table
           ENTRY                   ADDRESS         REF BY
           =====                   =======         ======
           Fontx5x7_char_101       000F3F28 
    -------------------------------------------------------------------------
NEAR_CONST
  Relative segment, address: 000F3F30 - 000F3F37 (0x8 bytes), align: 1
  Segment part 104.           Intra module refs:   Fontx5x7_table
           ENTRY                   ADDRESS         REF BY
           =====                   =======         ======
           Fontx5x7_char_102       000F3F30 
    -------------------------------------------------------------------------
NEAR_CONST
  Relative segment, address: 000F3F38 - 000F3F3F (0x8 bytes), align: 1
  Segment part 105.           Intra module refs:   Fontx5x7_table
           ENTRY                   ADDRESS         REF BY
           =====                   =======         ======
           Fontx5x7_char_103       000F3F38 
    -------------------------------------------------------------------------
NEAR_CONST
  Relative segment, address: 000F3F40 - 000F3F47 (0x8 bytes), align: 1
  Segment part 106.           Intra module refs:   Fontx5x7_table
           ENTRY                   ADDRESS         REF BY
           =====                   =======         ======
           Fontx5x7_char_104       000F3F40 
    -------------------------------------------------------------------------
NEAR_CONST
  Relative segment, address: 000F3F48 - 000F3F4F (0x8 bytes), align: 1
  Segment part 107.           Intra module refs:   Fontx5x7_table
           ENTRY                   ADDRESS         REF BY
           =====                   =======         ======
           Fontx5x7_char_105       000F3F48 
    -------------------------------------------------------------------------
NEAR_CONST
  Relative segment, address: 000F3F50 - 000F3F57 (0x8 bytes), align: 1
  Segment part 108.           Intra module refs:   Fontx5x7_table
           ENTRY                   ADDRESS         REF BY
           =====                   =======         ======
           Fontx5x7_char_106       000F3F50 
    -------------------------------------------------------------------------
NEAR_CONST
  Relative segment, address: 000F3F58 - 000F3F5F (0x8 bytes), align: 1
  Segment part 109.           Intra module refs:   Fontx5x7_table
           ENTRY                   ADDRESS         REF BY
           =====                   =======         ======
           Fontx5x7_char_107       000F3F58 
    -------------------------------------------------------------------------
NEAR_CONST
  Relative segment, address: 000F3F60 - 000F3F67 (0x8 bytes), align: 1
  Segment part 110.           Intra module refs:   Fontx5x7_table
           ENTRY                   ADDRESS         REF BY
           =====                   =======         ======
           Fontx5x7_char_108       000F3F60 
    -------------------------------------------------------------------------
NEAR_CONST
  Relative segment, address: 000F3F68 - 000F3F6F (0x8 bytes), align: 1
  Segment part 111.           Intra module refs:   Fontx5x7_table
           ENTRY                   ADDRESS         REF BY
           =====                   =======         ======
           Fontx5x7_char_109       000F3F68 
    -------------------------------------------------------------------------
NEAR_CONST
  Relative segment, address: 000F3F70 - 000F3F77 (0x8 bytes), align: 1
  Segment part 112.           Intra module refs:   Fontx5x7_table
           ENTRY                   ADDRESS         REF BY
           =====                   =======         ======
           Fontx5x7_char_110       000F3F70 
    -------------------------------------------------------------------------
NEAR_CONST
  Relative segment, address: 000F3F78 - 000F3F7F (0x8 bytes), align: 1
  Segment part 113.           Intra module refs:   Fontx5x7_table
           ENTRY                   ADDRESS         REF BY
           =====                   =======         ======
           Fontx5x7_char_111       000F3F78 
    -------------------------------------------------------------------------
NEAR_CONST
  Relative segment, address: 000F3F80 - 000F3F87 (0x8 bytes), align: 1
  Segment part 114.           Intra module refs:   Fontx5x7_table
           ENTRY                   ADDRESS         REF BY
           =====                   =======         ======
           Fontx5x7_char_112       000F3F80 
    -------------------------------------------------------------------------
NEAR_CONST
  Relative segment, address: 000F3F88 - 000F3F8F (0x8 bytes), align: 1
  Segment part 115.           Intra module refs:   Fontx5x7_table
           ENTRY                   ADDRESS         REF BY
           =====                   =======         ======
           Fontx5x7_char_113       000F3F88 
    -------------------------------------------------------------------------
NEAR_CONST
  Relative segment, address: 000F3F90 - 000F3F97 (0x8 bytes), align: 1
  Segment part 116.           Intra module refs:   Fontx5x7_table
           ENTRY                   ADDRESS         REF BY
           =====                   =======         ======
           Fontx5x7_char_114       000F3F90 
    -------------------------------------------------------------------------
NEAR_CONST
  Relative segment, address: 000F3F98 - 000F3F9F (0x8 bytes), align: 1
  Segment part 117.           Intra module refs:   Fontx5x7_table
           ENTRY                   ADDRESS         REF BY
           =====                   =======         ======
           Fontx5x7_char_115       000F3F98 
    -------------------------------------------------------------------------
NEAR_CONST
  Relative segment, address: 000F3FA0 - 000F3FA7 (0x8 bytes), align: 1
  Segment part 118.           Intra module refs:   Fontx5x7_table
           ENTRY                   ADDRESS         REF BY
           =====                   =======         ======
           Fontx5x7_char_116       000F3FA0 
    -------------------------------------------------------------------------
NEAR_CONST
  Relative segment, address: 000F3FA8 - 000F3FAF (0x8 bytes), align: 1
  Segment part 119.           Intra module refs:   Fontx5x7_table
           ENTRY                   ADDRESS         REF BY
           =====                   =======         ======
           Fontx5x7_char_117       000F3FA8 
    -------------------------------------------------------------------------
NEAR_CONST
  Relative segment, address: 000F3FB0 - 000F3FB7 (0x8 bytes), align: 1
  Segment part 120.           Intra module refs:   Fontx5x7_table
           ENTRY                   ADDRESS         REF BY
           =====                   =======         ======
           Fontx5x7_char_118       000F3FB0 
    -------------------------------------------------------------------------
NEAR_CONST
  Relative segment, address: 000F3FB8 - 000F3FBF (0x8 bytes), align: 1
  Segment part 121.           Intra module refs:   Fontx5x7_table
           ENTRY                   ADDRESS         REF BY
           =====                   =======         ======
           Fontx5x7_char_119       000F3FB8 
    -------------------------------------------------------------------------
NEAR_CONST
  Relative segment, address: 000F3FC0 - 000F3FC7 (0x8 bytes), align: 1
  Segment part 122.           Intra module refs:   Fontx5x7_table
           ENTRY                   ADDRESS         REF BY
           =====                   =======         ======
           Fontx5x7_char_120       000F3FC0 
    -------------------------------------------------------------------------
NEAR_CONST
  Relative segment, address: 000F3FC8 - 000F3FCF (0x8 bytes), align: 1
  Segment part 123.           Intra module refs:   Fontx5x7_table
           ENTRY                   ADDRESS         REF BY
           =====                   =======         ======
           Fontx5x7_char_121       000F3FC8 
    -------------------------------------------------------------------------
NEAR_CONST
  Relative segment, address: 000F3FD0 - 000F3FD7 (0x8 bytes), align: 1
  Segment part 124.           Intra module refs:   Fontx5x7_table
           ENTRY                   ADDRESS         REF BY
           =====                   =======         ======
           Fontx5x7_char_122       000F3FD0 
    -------------------------------------------------------------------------
NEAR_CONST
  Relative segment, address: 000F3FD8 - 000F3FDF (0x8 bytes), align: 1
  Segment part 125.           Intra module refs:   Fontx5x7_table
           ENTRY                   ADDRESS         REF BY
           =====                   =======         ======
           Fontx5x7_char_123       000F3FD8 
    -------------------------------------------------------------------------
NEAR_CONST
  Relative segment, address: 000F3FE0 - 000F3FE7 (0x8 bytes), align: 1
  Segment part 126.           Intra module refs:   Fontx5x7_table
           ENTRY                   ADDRESS         REF BY
           =====                   =======         ======
           Fontx5x7_char_124       000F3FE0 
    -------------------------------------------------------------------------
NEAR_CONST
  Relative segment, address: 000F3FE8 - 000F3FEF (0x8 bytes), align: 1
  Segment part 127.           Intra module refs:   Fontx5x7_table
           ENTRY                   ADDRESS         REF BY
           =====                   =======         ======
           Fontx5x7_char_125       000F3FE8 
    -------------------------------------------------------------------------
NEAR_CONST
  Relative segment, address: 000F3FF0 - 000F3FF7 (0x8 bytes), align: 1
  Segment part 128.           Intra module refs:   Fontx5x7_table
           ENTRY                   ADDRESS         REF BY
           =====                   =======         ======
           Fontx5x7_char_126       000F3FF0 
    -------------------------------------------------------------------------
NEAR_CONST
  Relative segment, address: 000F3FF8 - 000F41F7 (0x200 bytes), align: 1
  Segment part 129.
           ENTRY                   ADDRESS         REF BY
           =====                   =======         ======
           Fontx5x7_table          000F3FF8        ST7579_Write (ST7579_LCD)
    -------------------------------------------------------------------------
NEAR_CONST_ID
  Relative segment, address: 00003C00 - 00003C07 (0x8 bytes), align: 1
  Segment part 130.           Intra module refs:   Fontx5x7_char_0
    -------------------------------------------------------------------------
NEAR_CONST_ID
  Relative segment, address: 00003C08 - 00003C0F (0x8 bytes), align: 1
  Segment part 131.           Intra module refs:   Fontx5x7_char_1
    -------------------------------------------------------------------------
NEAR_CONST_ID
  Relative segment, address: 00003C10 - 00003C17 (0x8 bytes), align: 1
  Segment part 132.           Intra module refs:   Fontx5x7_char_2
    -------------------------------------------------------------------------
NEAR_CONST_ID
  Relative segment, address: 00003C18 - 00003C1F (0x8 bytes), align: 1
  Segment part 133.           Intra module refs:   Fontx5x7_char_3
    -------------------------------------------------------------------------
NEAR_CONST_ID
  Relative segment, address: 00003C20 - 00003C27 (0x8 bytes), align: 1
  Segment part 134.           Intra module refs:   Fontx5x7_char_4
    -------------------------------------------------------------------------
NEAR_CONST_ID
  Relative segment, address: 00003C28 - 00003C2F (0x8 bytes), align: 1
  Segment part 135.           Intra module refs:   Fontx5x7_char_5
    -------------------------------------------------------------------------
NEAR_CONST_ID
  Relative segment, address: 00003C30 - 00003C37 (0x8 bytes), align: 1
  Segment part 136.           Intra module refs:   Fontx5x7_char_6
    -------------------------------------------------------------------------
NEAR_CONST_ID
  Relative segment, address: 00003C38 - 00003C3F (0x8 bytes), align: 1
  Segment part 137.           Intra module refs:   Fontx5x7_char_7
    -------------------------------------------------------------------------
NEAR_CONST_ID
  Relative segment, address: 00003C40 - 00003C47 (0x8 bytes), align: 1
  Segment part 138.           Intra module refs:   Fontx5x7_char_8
    -------------------------------------------------------------------------
NEAR_CONST_ID
  Relative segment, address: 00003C48 - 00003C4F (0x8 bytes), align: 1
  Segment part 139.           Intra module refs:   Fontx5x7_char_9
    -------------------------------------------------------------------------
NEAR_CONST_ID
  Relative segment, address: 00003C50 - 00003C57 (0x8 bytes), align: 1
  Segment part 140.           Intra module refs:   Fontx5x7_char_10
    -------------------------------------------------------------------------
NEAR_CONST_ID
  Relative segment, address: 00003C58 - 00003C5F (0x8 bytes), align: 1
  Segment part 141.           Intra module refs:   Fontx5x7_char_11
    -------------------------------------------------------------------------
NEAR_CONST_ID
  Relative segment, address: 00003C60 - 00003C67 (0x8 bytes), align: 1
  Segment part 142.           Intra module refs:   Fontx5x7_char_12
    -------------------------------------------------------------------------
NEAR_CONST_ID
  Relative segment, address: 00003C68 - 00003C6F (0x8 bytes), align: 1
  Segment part 143.           Intra module refs:   Fontx5x7_char_13
    -------------------------------------------------------------------------
NEAR_CONST_ID
  Relative segment, address: 00003C70 - 00003C77 (0x8 bytes), align: 1
  Segment part 144.           Intra module refs:   Fontx5x7_char_14
    -------------------------------------------------------------------------
NEAR_CONST_ID
  Relative segment, address: 00003C78 - 00003C7F (0x8 bytes), align: 1
  Segment part 145.           Intra module refs:   Fontx5x7_char_15
    -------------------------------------------------------------------------
NEAR_CONST_ID
  Relative segment, address: 00003C80 - 00003C87 (0x8 bytes), align: 1
  Segment part 146.           Intra module refs:   Fontx5x7_char_16
    -------------------------------------------------------------------------
NEAR_CONST_ID
  Relative segment, address: 00003C88 - 00003C8F (0x8 bytes), align: 1
  Segment part 147.           Intra module refs:   Fontx5x7_char_17
    -------------------------------------------------------------------------
NEAR_CONST_ID
  Relative segment, address: 00003C90 - 00003C97 (0x8 bytes), align: 1
  Segment part 148.           Intra module refs:   Fontx5x7_char_18
    -------------------------------------------------------------------------
NEAR_CONST_ID
  Relative segment, address: 00003C98 - 00003C9F (0x8 bytes), align: 1
  Segment part 149.           Intra module refs:   Fontx5x7_char_19
    -------------------------------------------------------------------------
NEAR_CONST_ID
  Relative segment, address: 00003CA0 - 00003CA7 (0x8 bytes), align: 1
  Segment part 150.           Intra module refs:   Fontx5x7_char_20
    -------------------------------------------------------------------------
NEAR_CONST_ID
  Relative segment, address: 00003CA8 - 00003CAF (0x8 bytes), align: 1
  Segment part 151.           Intra module refs:   Fontx5x7_char_21
    -------------------------------------------------------------------------
NEAR_CONST_ID
  Relative segment, address: 00003CB0 - 00003CB7 (0x8 bytes), align: 1
  Segment part 152.           Intra module refs:   Fontx5x7_char_22
    -------------------------------------------------------------------------
NEAR_CONST_ID
  Relative segment, address: 00003CB8 - 00003CBF (0x8 bytes), align: 1
  Segment part 153.           Intra module refs:   Fontx5x7_char_23
    -------------------------------------------------------------------------
NEAR_CONST_ID
  Relative segment, address: 00003CC0 - 00003CC7 (0x8 bytes), align: 1
  Segment part 154.           Intra module refs:   Fontx5x7_char_24
    -------------------------------------------------------------------------
NEAR_CONST_ID
  Relative segment, address: 00003CC8 - 00003CCF (0x8 bytes), align: 1
  Segment part 155.           Intra module refs:   Fontx5x7_char_25
    -------------------------------------------------------------------------
NEAR_CONST_ID
  Relative segment, address: 00003CD0 - 00003CD7 (0x8 bytes), align: 1
  Segment part 156.           Intra module refs:   Fontx5x7_char_26
    -------------------------------------------------------------------------
NEAR_CONST_ID
  Relative segment, address: 00003CD8 - 00003CDF (0x8 bytes), align: 1
  Segment part 157.           Intra module refs:   Fontx5x7_char_27
    -------------------------------------------------------------------------
NEAR_CONST_ID
  Relative segment, address: 00003CE0 - 00003CE7 (0x8 bytes), align: 1
  Segment part 158.           Intra module refs:   Fontx5x7_char_28
    -------------------------------------------------------------------------
NEAR_CONST_ID
  Relative segment, address: 00003CE8 - 00003CEF (0x8 bytes), align: 1
  Segment part 159.           Intra module refs:   Fontx5x7_char_29
    -------------------------------------------------------------------------
NEAR_CONST_ID
  Relative segment, address: 00003CF0 - 00003CF7 (0x8 bytes), align: 1
  Segment part 160.           Intra module refs:   Fontx5x7_char_30
    -------------------------------------------------------------------------
NEAR_CONST_ID
  Relative segment, address: 00003CF8 - 00003CFF (0x8 bytes), align: 1
  Segment part 161.           Intra module refs:   Fontx5x7_char_31
    -------------------------------------------------------------------------
NEAR_CONST_ID
  Relative segment, address: 00003D00 - 00003D07 (0x8 bytes), align: 1
  Segment part 162.           Intra module refs:   Fontx5x7_char_32
    -------------------------------------------------------------------------
NEAR_CONST_ID
  Relative segment, address: 00003D08 - 00003D0F (0x8 bytes), align: 1
  Segment part 163.           Intra module refs:   Fontx5x7_char_33
    -------------------------------------------------------------------------
NEAR_CONST_ID
  Relative segment, address: 00003D10 - 00003D17 (0x8 bytes), align: 1
  Segment part 164.           Intra module refs:   Fontx5x7_char_34
    -------------------------------------------------------------------------
NEAR_CONST_ID
  Relative segment, address: 00003D18 - 00003D1F (0x8 bytes), align: 1
  Segment part 165.           Intra module refs:   Fontx5x7_char_35
    -------------------------------------------------------------------------
NEAR_CONST_ID
  Relative segment, address: 00003D20 - 00003D27 (0x8 bytes), align: 1
  Segment part 166.           Intra module refs:   Fontx5x7_char_36
    -------------------------------------------------------------------------
NEAR_CONST_ID
  Relative segment, address: 00003D28 - 00003D2F (0x8 bytes), align: 1
  Segment part 167.           Intra module refs:   Fontx5x7_char_37
    -------------------------------------------------------------------------
NEAR_CONST_ID
  Relative segment, address: 00003D30 - 00003D37 (0x8 bytes), align: 1
  Segment part 168.           Intra module refs:   Fontx5x7_char_38
    -------------------------------------------------------------------------
NEAR_CONST_ID
  Relative segment, address: 00003D38 - 00003D3F (0x8 bytes), align: 1
  Segment part 169.           Intra module refs:   Fontx5x7_char_39
    -------------------------------------------------------------------------
NEAR_CONST_ID
  Relative segment, address: 00003D40 - 00003D47 (0x8 bytes), align: 1
  Segment part 170.           Intra module refs:   Fontx5x7_char_40
    -------------------------------------------------------------------------
NEAR_CONST_ID
  Relative segment, address: 00003D48 - 00003D4F (0x8 bytes), align: 1
  Segment part 171.           Intra module refs:   Fontx5x7_char_41
    -------------------------------------------------------------------------
NEAR_CONST_ID
  Relative segment, address: 00003D50 - 00003D57 (0x8 bytes), align: 1
  Segment part 172.           Intra module refs:   Fontx5x7_char_42
    -------------------------------------------------------------------------
NEAR_CONST_ID
  Relative segment, address: 00003D58 - 00003D5F (0x8 bytes), align: 1
  Segment part 173.           Intra module refs:   Fontx5x7_char_43
    -------------------------------------------------------------------------
NEAR_CONST_ID
  Relative segment, address: 00003D60 - 00003D67 (0x8 bytes), align: 1
  Segment part 174.           Intra module refs:   Fontx5x7_char_44
    -------------------------------------------------------------------------
NEAR_CONST_ID
  Relative segment, address: 00003D68 - 00003D6F (0x8 bytes), align: 1
  Segment part 175.           Intra module refs:   Fontx5x7_char_45
    -------------------------------------------------------------------------
NEAR_CONST_ID
  Relative segment, address: 00003D70 - 00003D77 (0x8 bytes), align: 1
  Segment part 176.           Intra module refs:   Fontx5x7_char_46
    -------------------------------------------------------------------------
NEAR_CONST_ID
  Relative segment, address: 00003D78 - 00003D7F (0x8 bytes), align: 1
  Segment part 177.           Intra module refs:   Fontx5x7_char_47
    -------------------------------------------------------------------------
NEAR_CONST_ID
  Relative segment, address: 00003D80 - 00003D87 (0x8 bytes), align: 1
  Segment part 178.           Intra module refs:   Fontx5x7_char_48
    -------------------------------------------------------------------------
NEAR_CONST_ID
  Relative segment, address: 00003D88 - 00003D8F (0x8 bytes), align: 1
  Segment part 179.           Intra module refs:   Fontx5x7_char_49
    -------------------------------------------------------------------------
NEAR_CONST_ID
  Relative segment, address: 00003D90 - 00003D97 (0x8 bytes), align: 1
  Segment part 180.           Intra module refs:   Fontx5x7_char_50
    -------------------------------------------------------------------------
NEAR_CONST_ID
  Relative segment, address: 00003D98 - 00003D9F (0x8 bytes), align: 1
  Segment part 181.           Intra module refs:   Fontx5x7_char_51
    -------------------------------------------------------------------------
NEAR_CONST_ID
  Relative segment, address: 00003DA0 - 00003DA7 (0x8 bytes), align: 1
  Segment part 182.           Intra module refs:   Fontx5x7_char_52
    -------------------------------------------------------------------------
NEAR_CONST_ID
  Relative segment, address: 00003DA8 - 00003DAF (0x8 bytes), align: 1
  Segment part 183.           Intra module refs:   Fontx5x7_char_53
    -------------------------------------------------------------------------
NEAR_CONST_ID
  Relative segment, address: 00003DB0 - 00003DB7 (0x8 bytes), align: 1
  Segment part 184.           Intra module refs:   Fontx5x7_char_54
    -------------------------------------------------------------------------
NEAR_CONST_ID
  Relative segment, address: 00003DB8 - 00003DBF (0x8 bytes), align: 1
  Segment part 185.           Intra module refs:   Fontx5x7_char_55
    -------------------------------------------------------------------------
NEAR_CONST_ID
  Relative segment, address: 00003DC0 - 00003DC7 (0x8 bytes), align: 1
  Segment part 186.           Intra module refs:   Fontx5x7_char_56
    -------------------------------------------------------------------------
NEAR_CONST_ID
  Relative segment, address: 00003DC8 - 00003DCF (0x8 bytes), align: 1
  Segment part 187.           Intra module refs:   Fontx5x7_char_57
    -------------------------------------------------------------------------
NEAR_CONST_ID
  Relative segment, address: 00003DD0 - 00003DD7 (0x8 bytes), align: 1
  Segment part 188.           Intra module refs:   Fontx5x7_char_58
    -------------------------------------------------------------------------
NEAR_CONST_ID
  Relative segment, address: 00003DD8 - 00003DDF (0x8 bytes), align: 1
  Segment part 189.           Intra module refs:   Fontx5x7_char_59
    -------------------------------------------------------------------------
NEAR_CONST_ID
  Relative segment, address: 00003DE0 - 00003DE7 (0x8 bytes), align: 1
  Segment part 190.           Intra module refs:   Fontx5x7_char_60
    -------------------------------------------------------------------------
NEAR_CONST_ID
  Relative segment, address: 00003DE8 - 00003DEF (0x8 bytes), align: 1
  Segment part 191.           Intra module refs:   Fontx5x7_char_61
    -------------------------------------------------------------------------
NEAR_CONST_ID
  Relative segment, address: 00003DF0 - 00003DF7 (0x8 bytes), align: 1
  Segment part 192.           Intra module refs:   Fontx5x7_char_62
    -------------------------------------------------------------------------
NEAR_CONST_ID
  Relative segment, address: 00003DF8 - 00003DFF (0x8 bytes), align: 1
  Segment part 193.           Intra module refs:   Fontx5x7_char_63
    -------------------------------------------------------------------------
NEAR_CONST_ID
  Relative segment, address: 00003E00 - 00003E07 (0x8 bytes), align: 1
  Segment part 194.           Intra module refs:   Fontx5x7_char_64
    -------------------------------------------------------------------------
NEAR_CONST_ID
  Relative segment, address: 00003E08 - 00003E0F (0x8 bytes), align: 1
  Segment part 195.           Intra module refs:   Fontx5x7_char_65
    -------------------------------------------------------------------------
NEAR_CONST_ID
  Relative segment, address: 00003E10 - 00003E17 (0x8 bytes), align: 1
  Segment part 196.           Intra module refs:   Fontx5x7_char_66
    -------------------------------------------------------------------------
NEAR_CONST_ID
  Relative segment, address: 00003E18 - 00003E1F (0x8 bytes), align: 1
  Segment part 197.           Intra module refs:   Fontx5x7_char_67
    -------------------------------------------------------------------------
NEAR_CONST_ID
  Relative segment, address: 00003E20 - 00003E27 (0x8 bytes), align: 1
  Segment part 198.           Intra module refs:   Fontx5x7_char_68
    -------------------------------------------------------------------------
NEAR_CONST_ID
  Relative segment, address: 00003E28 - 00003E2F (0x8 bytes), align: 1
  Segment part 199.           Intra module refs:   Fontx5x7_char_69
    -------------------------------------------------------------------------
NEAR_CONST_ID
  Relative segment, address: 00003E30 - 00003E37 (0x8 bytes), align: 1
  Segment part 200.           Intra module refs:   Fontx5x7_char_70
    -------------------------------------------------------------------------
NEAR_CONST_ID
  Relative segment, address: 00003E38 - 00003E3F (0x8 bytes), align: 1
  Segment part 201.           Intra module refs:   Fontx5x7_char_71
    -------------------------------------------------------------------------
NEAR_CONST_ID
  Relative segment, address: 00003E40 - 00003E47 (0x8 bytes), align: 1
  Segment part 202.           Intra module refs:   Fontx5x7_char_72
    -------------------------------------------------------------------------
NEAR_CONST_ID
  Relative segment, address: 00003E48 - 00003E4F (0x8 bytes), align: 1
  Segment part 203.           Intra module refs:   Fontx5x7_char_73
    -------------------------------------------------------------------------
NEAR_CONST_ID
  Relative segment, address: 00003E50 - 00003E57 (0x8 bytes), align: 1
  Segment part 204.           Intra module refs:   Fontx5x7_char_74
    -------------------------------------------------------------------------
NEAR_CONST_ID
  Relative segment, address: 00003E58 - 00003E5F (0x8 bytes), align: 1
  Segment part 205.           Intra module refs:   Fontx5x7_char_75
    -------------------------------------------------------------------------
NEAR_CONST_ID
  Relative segment, address: 00003E60 - 00003E67 (0x8 bytes), align: 1
  Segment part 206.           Intra module refs:   Fontx5x7_char_76
    -------------------------------------------------------------------------
NEAR_CONST_ID
  Relative segment, address: 00003E68 - 00003E6F (0x8 bytes), align: 1
  Segment part 207.           Intra module refs:   Fontx5x7_char_77
    -------------------------------------------------------------------------
NEAR_CONST_ID
  Relative segment, address: 00003E70 - 00003E77 (0x8 bytes), align: 1
  Segment part 208.           Intra module refs:   Fontx5x7_char_78
    -------------------------------------------------------------------------
NEAR_CONST_ID
  Relative segment, address: 00003E78 - 00003E7F (0x8 bytes), align: 1
  Segment part 209.           Intra module refs:   Fontx5x7_char_79
    -------------------------------------------------------------------------
NEAR_CONST_ID
  Relative segment, address: 00003E80 - 00003E87 (0x8 bytes), align: 1
  Segment part 210.           Intra module refs:   Fontx5x7_char_80
    -------------------------------------------------------------------------
NEAR_CONST_ID
  Relative segment, address: 00003E88 - 00003E8F (0x8 bytes), align: 1
  Segment part 211.           Intra module refs:   Fontx5x7_char_81
    -------------------------------------------------------------------------
NEAR_CONST_ID
  Relative segment, address: 00003E90 - 00003E97 (0x8 bytes), align: 1
  Segment part 212.           Intra module refs:   Fontx5x7_char_82
    -------------------------------------------------------------------------
NEAR_CONST_ID
  Relative segment, address: 00003E98 - 00003E9F (0x8 bytes), align: 1
  Segment part 213.           Intra module refs:   Fontx5x7_char_83
    -------------------------------------------------------------------------
NEAR_CONST_ID
  Relative segment, address: 00003EA0 - 00003EA7 (0x8 bytes), align: 1
  Segment part 214.           Intra module refs:   Fontx5x7_char_84
    -------------------------------------------------------------------------
NEAR_CONST_ID
  Relative segment, address: 00003EA8 - 00003EAF (0x8 bytes), align: 1
  Segment part 215.           Intra module refs:   Fontx5x7_char_85
    -------------------------------------------------------------------------
NEAR_CONST_ID
  Relative segment, address: 00003EB0 - 00003EB7 (0x8 bytes), align: 1
  Segment part 216.           Intra module refs:   Fontx5x7_char_86
    -------------------------------------------------------------------------
NEAR_CONST_ID
  Relative segment, address: 00003EB8 - 00003EBF (0x8 bytes), align: 1
  Segment part 217.           Intra module refs:   Fontx5x7_char_87
    -------------------------------------------------------------------------
NEAR_CONST_ID
  Relative segment, address: 00003EC0 - 00003EC7 (0x8 bytes), align: 1
  Segment part 218.           Intra module refs:   Fontx5x7_char_88
    -------------------------------------------------------------------------
NEAR_CONST_ID
  Relative segment, address: 00003EC8 - 00003ECF (0x8 bytes), align: 1
  Segment part 219.           Intra module refs:   Fontx5x7_char_89
    -------------------------------------------------------------------------
NEAR_CONST_ID
  Relative segment, address: 00003ED0 - 00003ED7 (0x8 bytes), align: 1
  Segment part 220.           Intra module refs:   Fontx5x7_char_90
    -------------------------------------------------------------------------
NEAR_CONST_ID
  Relative segment, address: 00003ED8 - 00003EDF (0x8 bytes), align: 1
  Segment part 221.           Intra module refs:   Fontx5x7_char_91
    -------------------------------------------------------------------------
NEAR_CONST_ID
  Relative segment, address: 00003EE0 - 00003EE7 (0x8 bytes), align: 1
  Segment part 222.           Intra module refs:   Fontx5x7_char_92
    -------------------------------------------------------------------------
NEAR_CONST_ID
  Relative segment, address: 00003EE8 - 00003EEF (0x8 bytes), align: 1
  Segment part 223.           Intra module refs:   Fontx5x7_char_93
    -------------------------------------------------------------------------
NEAR_CONST_ID
  Relative segment, address: 00003EF0 - 00003EF7 (0x8 bytes), align: 1
  Segment part 224.           Intra module refs:   Fontx5x7_char_94
    -------------------------------------------------------------------------
NEAR_CONST_ID
  Relative segment, address: 00003EF8 - 00003EFF (0x8 bytes), align: 1
  Segment part 225.           Intra module refs:   Fontx5x7_char_95
    -------------------------------------------------------------------------
NEAR_CONST_ID
  Relative segment, address: 00003F00 - 00003F07 (0x8 bytes), align: 1
  Segment part 226.           Intra module refs:   Fontx5x7_char_96
    -------------------------------------------------------------------------
NEAR_CONST_ID
  Relative segment, address: 00003F08 - 00003F0F (0x8 bytes), align: 1
  Segment part 227.           Intra module refs:   Fontx5x7_char_97
    -------------------------------------------------------------------------
NEAR_CONST_ID
  Relative segment, address: 00003F10 - 00003F17 (0x8 bytes), align: 1
  Segment part 228.           Intra module refs:   Fontx5x7_char_98
    -------------------------------------------------------------------------
NEAR_CONST_ID
  Relative segment, address: 00003F18 - 00003F1F (0x8 bytes), align: 1
  Segment part 229.           Intra module refs:   Fontx5x7_char_99
    -------------------------------------------------------------------------
NEAR_CONST_ID
  Relative segment, address: 00003F20 - 00003F27 (0x8 bytes), align: 1
  Segment part 230.           Intra module refs:   Fontx5x7_char_100
    -------------------------------------------------------------------------
NEAR_CONST_ID
  Relative segment, address: 00003F28 - 00003F2F (0x8 bytes), align: 1
  Segment part 231.           Intra module refs:   Fontx5x7_char_101
    -------------------------------------------------------------------------
NEAR_CONST_ID
  Relative segment, address: 00003F30 - 00003F37 (0x8 bytes), align: 1
  Segment part 232.           Intra module refs:   Fontx5x7_char_102
    -------------------------------------------------------------------------
NEAR_CONST_ID
  Relative segment, address: 00003F38 - 00003F3F (0x8 bytes), align: 1
  Segment part 233.           Intra module refs:   Fontx5x7_char_103
    -------------------------------------------------------------------------
NEAR_CONST_ID
  Relative segment, address: 00003F40 - 00003F47 (0x8 bytes), align: 1
  Segment part 234.           Intra module refs:   Fontx5x7_char_104
    -------------------------------------------------------------------------
NEAR_CONST_ID
  Relative segment, address: 00003F48 - 00003F4F (0x8 bytes), align: 1
  Segment part 235.           Intra module refs:   Fontx5x7_char_105
    -------------------------------------------------------------------------
NEAR_CONST_ID
  Relative segment, address: 00003F50 - 00003F57 (0x8 bytes), align: 1
  Segment part 236.           Intra module refs:   Fontx5x7_char_106
    -------------------------------------------------------------------------
NEAR_CONST_ID
  Relative segment, address: 00003F58 - 00003F5F (0x8 bytes), align: 1
  Segment part 237.           Intra module refs:   Fontx5x7_char_107
    -------------------------------------------------------------------------
NEAR_CONST_ID
  Relative segment, address: 00003F60 - 00003F67 (0x8 bytes), align: 1
  Segment part 238.           Intra module refs:   Fontx5x7_char_108
    -------------------------------------------------------------------------
NEAR_CONST_ID
  Relative segment, address: 00003F68 - 00003F6F (0x8 bytes), align: 1
  Segment part 239.           Intra module refs:   Fontx5x7_char_109
    -------------------------------------------------------------------------
NEAR_CONST_ID
  Relative segment, address: 00003F70 - 00003F77 (0x8 bytes), align: 1
  Segment part 240.           Intra module refs:   Fontx5x7_char_110
    -------------------------------------------------------------------------
NEAR_CONST_ID
  Relative segment, address: 00003F78 - 00003F7F (0x8 bytes), align: 1
  Segment part 241.           Intra module refs:   Fontx5x7_char_111
    -------------------------------------------------------------------------
NEAR_CONST_ID
  Relative segment, address: 00003F80 - 00003F87 (0x8 bytes), align: 1
  Segment part 242.           Intra module refs:   Fontx5x7_char_112
    -------------------------------------------------------------------------
NEAR_CONST_ID
  Relative segment, address: 00003F88 - 00003F8F (0x8 bytes), align: 1
  Segment part 243.           Intra module refs:   Fontx5x7_char_113
    -------------------------------------------------------------------------
NEAR_CONST_ID
  Relative segment, address: 00003F90 - 00003F97 (0x8 bytes), align: 1
  Segment part 244.           Intra module refs:   Fontx5x7_char_114
    -------------------------------------------------------------------------
NEAR_CONST_ID
  Relative segment, address: 00003F98 - 00003F9F (0x8 bytes), align: 1
  Segment part 245.           Intra module refs:   Fontx5x7_char_115
    -------------------------------------------------------------------------
NEAR_CONST_ID
  Relative segment, address: 00003FA0 - 00003FA7 (0x8 bytes), align: 1
  Segment part 246.           Intra module refs:   Fontx5x7_char_116
    -------------------------------------------------------------------------
NEAR_CONST_ID
  Relative segment, address: 00003FA8 - 00003FAF (0x8 bytes), align: 1
  Segment part 247.           Intra module refs:   Fontx5x7_char_117
    -------------------------------------------------------------------------
NEAR_CONST_ID
  Relative segment, address: 00003FB0 - 00003FB7 (0x8 bytes), align: 1
  Segment part 248.           Intra module refs:   Fontx5x7_char_118
    -------------------------------------------------------------------------
NEAR_CONST_ID
  Relative segment, address: 00003FB8 - 00003FBF (0x8 bytes), align: 1
  Segment part 249.           Intra module refs:   Fontx5x7_char_119
    -------------------------------------------------------------------------
NEAR_CONST_ID
  Relative segment, address: 00003FC0 - 00003FC7 (0x8 bytes), align: 1
  Segment part 250.           Intra module refs:   Fontx5x7_char_120
    -------------------------------------------------------------------------
NEAR_CONST_ID
  Relative segment, address: 00003FC8 - 00003FCF (0x8 bytes), align: 1
  Segment part 251.           Intra module refs:   Fontx5x7_char_121
    -------------------------------------------------------------------------
NEAR_CONST_ID
  Relative segment, address: 00003FD0 - 00003FD7 (0x8 bytes), align: 1
  Segment part 252.           Intra module refs:   Fontx5x7_char_122
    -------------------------------------------------------------------------
NEAR_CONST_ID
  Relative segment, address: 00003FD8 - 00003FDF (0x8 bytes), align: 1
  Segment part 253.           Intra module refs:   Fontx5x7_char_123
    -------------------------------------------------------------------------
NEAR_CONST_ID
  Relative segment, address: 00003FE0 - 00003FE7 (0x8 bytes), align: 1
  Segment part 254.           Intra module refs:   Fontx5x7_char_124
    -------------------------------------------------------------------------
NEAR_CONST_ID
  Relative segment, address: 00003FE8 - 00003FEF (0x8 bytes), align: 1
  Segment part 255.           Intra module refs:   Fontx5x7_char_125
    -------------------------------------------------------------------------
NEAR_CONST_ID
  Relative segment, address: 00003FF0 - 00003FF7 (0x8 bytes), align: 1
  Segment part 256.           Intra module refs:   Fontx5x7_char_126
    -------------------------------------------------------------------------
NEAR_CONST_ID
  Relative segment, address: 00003FF8 - 000041F7 (0x200 bytes), align: 1
  Segment part 257.           Intra module refs:   Fontx5x7_table

    *************************************************************************

  FILE NAME : D:\NCSU\Courses\ECE 561 Embedded System Design\Project 3\Project3\Project3\Project3Code\Debug\Obj\font_x6x13.r87
    *************************************************************************

  FILE NAME : D:\NCSU\Courses\ECE 561 Embedded System Design\Project 3\Project3\Project3\Project3Code\Debug\Obj\glyph.r87
  PROGRAM MODULE, NAME : glyph

  SEGMENTS IN THE MODULE
  ======================
CODE
  Relative segment, address: 00005B73 - 00005BD3 (0x61 bytes), align: 0
  Segment part 4.
           ENTRY                   ADDRESS         REF BY
           =====                   =======         ======
           GlyphOpen               00005B73        LCDInit (lcd)
               calls direct and indirect
               CSTACK = 00000000 ( 0000000A )
    -------------------------------------------------------------------------
CODE
  Relative segment, address: 00005BD4 - 00005C00 (0x2d bytes), align: 0
  Segment part 15.
           ENTRY                   ADDRESS         REF BY
           =====                   =======         ======
           GlyphSetXY              00005BD4        ?Subroutine0 (lcd)
                                                   LCDPrintf (lcd)
               calls indirect
               CSTACK = 00000000 ( 00000006 )
    -------------------------------------------------------------------------
CODE
  Relative segment, address: 00005C01 - 00005C10 (0x10 bytes), align: 0
  Segment part 17.
           ENTRY                   ADDRESS         REF BY
           =====                   =======         ======
           GlyphSetFont            00005C01        LCDFont (lcd)
                                                   LCDInit (lcd)
               calls indirect
               CSTACK = 00000000 ( 00000006 )
    -------------------------------------------------------------------------
CODE
  Relative segment, address: 00005C11 - 00005C4F (0x3f bytes), align: 0
  Segment part 21.
           ENTRY                   ADDRESS         REF BY
           =====                   =======         ======
           GlyphString             00005C11        ?Subroutine0 (lcd)
                                                   LCDPrintf (lcd)
               calls indirect
               CSTACK = 00000000 ( 0000000A )
    -------------------------------------------------------------------------
CODE
  Relative segment, address: 00005C50 - 00005C57 (0x8 bytes), align: 0
  Segment part 23.
           ENTRY                   ADDRESS         REF BY
           =====                   =======         ======
           GlyphClearScreen        00005C50        LCDClearScreen (lcd)
                                                   LCDInit (lcd)
               calls indirect
               CSTACK = 00000000 ( 00000006 )
    -------------------------------------------------------------------------
CODE
  Relative segment, address: 00005C58 - 00005C60 (0x9 bytes), align: 0
  Segment part 25.
           ENTRY                   ADDRESS         REF BY
           =====                   =======         ======
           GlyphNormalScreen       00005C58        LCDInit (lcd)
               calls indirect
               CSTACK = 00000000 ( 00000006 )
    -------------------------------------------------------------------------
CODE
  Relative segment, address: 00005C61 - 00005C66 (0x6 bytes), align: 0
  Segment part 29.            Intra module refs:   GlyphClearScreen
                                                   GlyphNormalScreen
           LOCAL                   ADDRESS         
           =====                   =======         
           ?Subroutine0            00005C61 
    -------------------------------------------------------------------------
CODE
  Relative segment, address: 00005C67 - 00005C6C (0x6 bytes), align: 0
  Segment part 30.            Intra module refs:   ?Subroutine0
                                                   GlyphSetFont
    -------------------------------------------------------------------------
CODE
  Relative segment, address: 00005C6D - 00005C72 (0x6 bytes), align: 0
  Segment part 31.            Intra module refs:   Segment part 30

    *************************************************************************

  FILE NAME : D:\NCSU\Courses\ECE 561 Embedded System Design\Project 3\Project3\Project3\Project3Code\Debug\Obj\glyph_register.r87
  PROGRAM MODULE, NAME : glyph_register

  SEGMENTS IN THE MODULE
  ======================
CODE
  Relative segment, address: 00005C73 - 00005CA9 (0x37 bytes), align: 0
  Segment part 2.
           ENTRY                   ADDRESS         REF BY
           =====                   =======         ======
           GlyphCommOpen           00005C73        GlyphOpen (glyph)
               calls indirect
               CSTACK = 00000000 ( 00000004 )
    -------------------------------------------------------------------------
CODE
  Relative segment, address: 00005CAA - 00005CD7 (0x2e bytes), align: 0
  Segment part 3.
           ENTRY                   ADDRESS         REF BY
           =====                   =======         ======
           GlyphLCDOpen            00005CAA        GlyphOpen (glyph)
               CSTACK = 00000000 ( 00000002 )

    *************************************************************************

  FILE NAME : D:\NCSU\Courses\ECE 561 Embedded System Design\Project 3\Project3\Project3\Project3Code\Debug\Obj\lcd.r87
  PROGRAM MODULE, NAME : lcd

  SEGMENTS IN THE MODULE
  ======================
NEAR_Z
  Relative segment, address: 000FCE00 - 000FCE01 (0x2 bytes), align: 1
  Segment part 2.             Intra module refs:   ?Subroutine0
                                                   LCDClearScreen
                                                   LCDFont
                                                   LCDInit
                                                   LCDPrintf
           LOCAL                   ADDRESS         
           =====                   =======         
           G_lcd                   000FCE00 
    -------------------------------------------------------------------------
NEAR_I
  Relative segment, address: 000F9F20 - 000F9F20 (0x1 bytes), align: 0
  Segment part 3.             Intra module refs:   LCDFont
                                                   LCDInit
                                                   LCDPrintf
           ENTRY                   ADDRESS         REF BY
           =====                   =======         ======
           G_CharWidth             000F9F20 
    -------------------------------------------------------------------------
NEAR_I
  Relative segment, address: 000F9F21 - 000F9F21 (0x1 bytes), align: 0
  Segment part 5.             Intra module refs:   LCDFont
                                                   LCDInit
                                                   LCDPrintf
           ENTRY                   ADDRESS         REF BY
           =====                   =======         ======
           G_CharHeight            000F9F21 
    -------------------------------------------------------------------------
CODE
  Relative segment, address: 00005CD8 - 00005CFF (0x28 bytes), align: 0
  Segment part 7.
           ENTRY                   ADDRESS         REF BY
           =====                   =======         ======
           LCDInit                 00005CD8        main (r_main)
               calls direct
               CSTACK = 00000000 ( 00000002 )
    -------------------------------------------------------------------------
CODE
  Relative segment, address: 00005D00 - 00005D05 (0x6 bytes), align: 0
  Segment part 8.
           ENTRY                   ADDRESS         REF BY
           =====                   =======         ======
           LCDClearScreen          00005D00        main (r_main)
               calls direct
    -------------------------------------------------------------------------
CODE
  Relative segment, address: 00005D06 - 00005D44 (0x3f bytes), align: 0
  Segment part 9.
           ENTRY                   ADDRESS         REF BY
           =====                   =======         ======
           LCDFont                 00005D06        Print_Results (profile)
                                                   main (r_main)
               calls direct
               CSTACK = 00000000 ( 00000002 )
    -------------------------------------------------------------------------
CODE
  Relative segment, address: 00005D45 - 00005D4C (0x8 bytes), align: 0
  Segment part 11.
           ENTRY                   ADDRESS         REF BY
           =====                   =======         ======
           LCDString               00005D45        main (r_main)
               calls direct
               CSTACK = 00000000 ( 00000004 )
    -------------------------------------------------------------------------
CODE
  Relative segment, address: 00005D4D - 00005D67 (0x1b bytes), align: 0
  Segment part 12.            Intra module refs:   LCDString
           LOCAL                   ADDRESS         
           =====                   =======         
           ?Subroutine0            00005D4D 
    -------------------------------------------------------------------------
CODE
  Relative segment, address: 00005D68 - 00005DB8 (0x51 bytes), align: 0
  Segment part 17.
           ENTRY                   ADDRESS         REF BY
           =====                   =======         ======
           LCDPrintf               00005D68        Print_Results (profile)
               calls direct
               CSTACK = 00000000 ( 0000006A )
    -------------------------------------------------------------------------
NEAR_ID
  Relative segment, address: 00008782 - 00008782 (0x1 bytes), align: 0
  Segment part 4.             Intra module refs:   G_CharWidth
    -------------------------------------------------------------------------
NEAR_ID
  Relative segment, address: 00008783 - 00008783 (0x1 bytes), align: 0
  Segment part 6.             Intra module refs:   G_CharHeight

    *************************************************************************

  FILE NAME : D:\NCSU\Courses\ECE 561 Embedded System Design\Project 3\Project3\Project3\Project3Code\Debug\Obj\profile.r87
  PROGRAM MODULE, NAME : profile

  SEGMENTS IN THE MODULE
  ======================
NEAR_Z
  Relative segment, address: 000FCE02 - 000FCE05 (0x4 bytes), align: 1
  Segment part 6.             Intra module refs:   Print_Results
           ENTRY                   ADDRESS         REF BY
           =====                   =======         ======
           profile_ticks           000FCE02        r_tau0_channel0_interrupt (r_cg_timer_user)
    -------------------------------------------------------------------------
NEAR_Z
  Relative segment, address: 000FCF3A - 000FCF3A (0x1 bytes), align: 0
  Segment part 7.             Intra module refs:   Disable_Profiling
                                                   Enable_Profiling
           ENTRY                   ADDRESS         REF BY
           =====                   =======         ======
           profiling_enabled       000FCF3A        r_tau0_channel0_interrupt (r_cg_timer_user)
    -------------------------------------------------------------------------
NEAR_Z
  Relative segment, address: 000FCE06 - 000FCE07 (0x2 bytes), align: 1
  Segment part 8.
           ENTRY                   ADDRESS         REF BY
           =====                   =======         ======
           PC_val_low              000FCE06        r_tau0_channel0_interrupt (r_cg_timer_user)
    -------------------------------------------------------------------------
NEAR_Z
  Relative segment, address: 000FCE08 - 000FCE09 (0x2 bytes), align: 1
  Segment part 9.
           ENTRY                   ADDRESS         REF BY
           =====                   =======         ======
           lost                    000FCE08        r_tau0_channel0_interrupt (r_cg_timer_user)
    -------------------------------------------------------------------------
NEAR_Z
  Relative segment, address: 000FCE0A - 000FCE0B (0x2 bytes), align: 1
  Segment part 10.
           ENTRY                   ADDRESS         REF BY
           =====                   =======         ======
           num_lost                000FCE0A        r_tau0_channel0_interrupt (r_cg_timer_user)
    -------------------------------------------------------------------------
CODE
  Relative segment, address: 00005DB9 - 00005DFD (0x45 bytes), align: 0
  Segment part 11.
           ENTRY                   ADDRESS         REF BY
           =====                   =======         ======
           Init_Profiling          00005DB9        main (r_main)
               calls direct
               CSTACK = 00000000 ( 00000004 )
    -------------------------------------------------------------------------
CODE
  Relative segment, address: 00005DFE - 00005E01 (0x4 bytes), align: 0
  Segment part 12.
           ENTRY                   ADDRESS         REF BY
           =====                   =======         ======
           Disable_Profiling       00005DFE        main (r_main)
    -------------------------------------------------------------------------
CODE
  Relative segment, address: 00005E02 - 00005E05 (0x4 bytes), align: 0
  Segment part 13.
           ENTRY                   ADDRESS         REF BY
           =====                   =======         ======
           Enable_Profiling        00005E02        main (r_main)
    -------------------------------------------------------------------------
CODE
  Relative segment, address: 00005E06 - 00005EBD (0xb8 bytes), align: 0
  Segment part 15.
           ENTRY                   ADDRESS         REF BY
           =====                   =======         ======
           Print_Results           00005E06        main (r_main)
               calls direct
               CSTACK = 00000000 ( 00000012 )
    -------------------------------------------------------------------------
NEAR_CONST
  Relative segment, address: 000F41F8 - 000F4209 (0x12 bytes), align: 1
  Segment part 2.             Intra module refs:   Print_Results
    -------------------------------------------------------------------------
NEAR_CONST
  Relative segment, address: 000F420A - 000F4219 (0x10 bytes), align: 1
  Segment part 3.             Intra module refs:   Print_Results
    -------------------------------------------------------------------------
NEAR_CONST
  Relative segment, address: 000F421A - 000F422D (0x14 bytes), align: 1
  Segment part 4.             Intra module refs:   Print_Results
    -------------------------------------------------------------------------
NEAR_CONST
  Relative segment, address: 000F422E - 000F4233 (0x6 bytes), align: 1
  Segment part 5.             Intra module refs:   Print_Results
    -------------------------------------------------------------------------
NEAR_CONST_ID
  Relative segment, address: 000041F8 - 00004209 (0x12 bytes), align: 1
  Segment part 16.            Intra module refs:   Segment part 2
    -------------------------------------------------------------------------
NEAR_CONST_ID
  Relative segment, address: 0000420A - 00004219 (0x10 bytes), align: 1
  Segment part 17.            Intra module refs:   Segment part 3
    -------------------------------------------------------------------------
NEAR_CONST_ID
  Relative segment, address: 0000421A - 0000422D (0x14 bytes), align: 1
  Segment part 18.            Intra module refs:   Segment part 4
    -------------------------------------------------------------------------
NEAR_CONST_ID
  Relative segment, address: 0000422E - 00004233 (0x6 bytes), align: 1
  Segment part 19.            Intra module refs:   Segment part 5

    *************************************************************************

  FILE NAME : D:\NCSU\Courses\ECE 561 Embedded System Design\Project 3\Project3\Project3\Project3Code\Debug\Obj\r_cg_adc.r87
  PROGRAM MODULE, NAME : r_cg_adc

  SEGMENTS IN THE MODULE
  ======================
SADDR_A
  Relative segment, address: 000FFF1E - 000FFF1F (0x2 bytes), align: 0
  Segment part 1. ROOT.
           ENTRY                   ADDRESS         REF BY
           =====                   =======         ======
           _A_ADCR                 000FFF1E 
           LOCAL                   ADDRESS         
           =====                   =======         
           ADCR                    000FFF1E 
           ADCRH                   000FFF1F 
           ADCRH_bit               000FFF1F 
           ADCR_bit                000FFF1E 
           dummy                   000FFF1E 
           dummy_bit               000FFF1E 
    -------------------------------------------------------------------------
NEAR_A
  Relative segment, address: 000FFF20 - 000FFF20 (0x1 bytes), align: 0
  Segment part 2. ROOT.       Intra module refs:   R_ADC_Create
                                                   R_PORT_Create (r_cg_port)
           ENTRY                   ADDRESS         REF BY
           =====                   =======         ======
           _A_PM0                  000FFF20 
           LOCAL                   ADDRESS         
           =====                   =======         
           PM0                     000FFF20 
           PM0_bit                 000FFF20 
    -------------------------------------------------------------------------
NEAR_A
  Relative segment, address: 000FFF22 - 000FFF22 (0x1 bytes), align: 0
  Segment part 3. ROOT.       Intra module refs:   R_ADC_Create
           ENTRY                   ADDRESS         REF BY
           =====                   =======         ======
           _A_PM2                  000FFF22 
           LOCAL                   ADDRESS         
           =====                   =======         
           PM2                     000FFF22 
           PM2_bit                 000FFF22 
    -------------------------------------------------------------------------
NEAR_A
  Relative segment, address: 000FFF2A - 000FFF2A (0x1 bytes), align: 0
  Segment part 4. ROOT.       Intra module refs:   R_ADC_Create
                                                   R_PORT_Create (r_cg_port)
           ENTRY                   ADDRESS         REF BY
           =====                   =======         ======
           _A_PM10                 000FFF2A 
           LOCAL                   ADDRESS         
           =====                   =======         
           PM10                    000FFF2A 
           PM10_bit                000FFF2A 
    -------------------------------------------------------------------------
NEAR_A
  Relative segment, address: 000FFF2C - 000FFF2C (0x1 bytes), align: 0
  Segment part 5. ROOT.       Intra module refs:   R_ADC_Create
           ENTRY                   ADDRESS         REF BY
           =====                   =======         ======
           _A_PM12                 000FFF2C 
           LOCAL                   ADDRESS         
           =====                   =======         
           PM12                    000FFF2C 
           PM12_bit                000FFF2C 
    -------------------------------------------------------------------------
NEAR_A
  Relative segment, address: 000FFF2E - 000FFF2E (0x1 bytes), align: 0
  Segment part 6. ROOT.       Intra module refs:   R_ADC_Create
                                                   R_PORT_Create (r_cg_port)
           ENTRY                   ADDRESS         REF BY
           =====                   =======         ======
           _A_PM14                 000FFF2E 
           LOCAL                   ADDRESS         
           =====                   =======         
           PM14                    000FFF2E 
           PM14_bit                000FFF2E 
    -------------------------------------------------------------------------
NEAR_A
  Relative segment, address: 000FFF2F - 000FFF2F (0x1 bytes), align: 0
  Segment part 7. ROOT.       Intra module refs:   R_ADC_Create
                                                   R_PORT_Create (r_cg_port)
           ENTRY                   ADDRESS         REF BY
           =====                   =======         ======
           _A_PM15                 000FFF2F 
           LOCAL                   ADDRESS         
           =====                   =======         
           PM15                    000FFF2F 
           PM15_bit                000FFF2F 
    -------------------------------------------------------------------------
NEAR_A
  Relative segment, address: 000FFF30 - 000FFF30 (0x1 bytes), align: 0
  Segment part 8. ROOT.       Intra module refs:   R_ADC_Create
           ENTRY                   ADDRESS         REF BY
           =====                   =======         ======
           _A_ADM0                 000FFF30 
           LOCAL                   ADDRESS         
           =====                   =======         
           ADM0                    000FFF30 
           ADM0_bit                000FFF30 
    -------------------------------------------------------------------------
NEAR_A
  Relative segment, address: 000FFF31 - 000FFF31 (0x1 bytes), align: 0
  Segment part 9. ROOT.       Intra module refs:   R_ADC_Create
           ENTRY                   ADDRESS         REF BY
           =====                   =======         ======
           _A_ADS                  000FFF31 
           LOCAL                   ADDRESS         
           =====                   =======         
           ADS                     000FFF31 
           ADS_bit                 000FFF31 
    -------------------------------------------------------------------------
NEAR_A
  Relative segment, address: 000FFF32 - 000FFF32 (0x1 bytes), align: 0
  Segment part 10. ROOT.      Intra module refs:   R_ADC_Create
           ENTRY                   ADDRESS         REF BY
           =====                   =======         ======
           _A_ADM1                 000FFF32 
           LOCAL                   ADDRESS         
           =====                   =======         
           ADM1                    000FFF32 
           ADM1_bit                000FFF32 
    -------------------------------------------------------------------------
NEAR_A
  Relative segment, address: 000FFFE2 - 000FFFE3 (0x2 bytes), align: 0
  Segment part 11. ROOT.      Intra module refs:   R_ADC_Create
                                                   R_IT_Create (r_cg_it)
                                                   R_IT_Start (r_cg_it)
                                                   R_TAU0_Channel0_Start (r_cg_timer)
                                                   R_TAU0_Create (r_cg_timer)
           ENTRY                   ADDRESS         REF BY
           =====                   =======         ======
           _A_IF1                  000FFFE2 
           LOCAL                   ADDRESS         
           =====                   =======         
           IF1                     000FFFE2 
           IF1H                    000FFFE3 
           IF1H_bit                000FFFE3 
           IF1L                    000FFFE2 
           IF1L_bit                000FFFE2 
    -------------------------------------------------------------------------
NEAR_A
  Relative segment, address: 000FFFE6 - 000FFFE7 (0x2 bytes), align: 0
  Segment part 12. ROOT.      Intra module refs:   R_ADC_Create
                                                   R_IT_Create (r_cg_it)
                                                   R_IT_Start (r_cg_it)
                                                   R_TAU0_Channel0_Start (r_cg_timer)
                                                   R_TAU0_Create (r_cg_timer)
           ENTRY                   ADDRESS         REF BY
           =====                   =======         ======
           _A_MK1                  000FFFE6 
           LOCAL                   ADDRESS         
           =====                   =======         
           MK1                     000FFFE6 
           MK1H                    000FFFE7 
           MK1H_bit                000FFFE7 
           MK1L                    000FFFE6 
           MK1L_bit                000FFFE6 
    -------------------------------------------------------------------------
NEAR_A
  Relative segment, address: 000FFFEA - 000FFFEB (0x2 bytes), align: 0
  Segment part 13. ROOT.      Intra module refs:   R_ADC_Create
                                                   R_IT_Create (r_cg_it)
                                                   R_TAU0_Create (r_cg_timer)
           ENTRY                   ADDRESS         REF BY
           =====                   =======         ======
           _A_PR01                 000FFFEA 
           LOCAL                   ADDRESS         
           =====                   =======         
           PR01                    000FFFEA 
           PR01H                   000FFFEB 
           PR01H_bit               000FFFEB 
           PR01L                   000FFFEA 
           PR01L_bit               000FFFEA 
    -------------------------------------------------------------------------
NEAR_A
  Relative segment, address: 000FFFEE - 000FFFEF (0x2 bytes), align: 0
  Segment part 14. ROOT.      Intra module refs:   R_ADC_Create
                                                   R_IT_Create (r_cg_it)
                                                   R_TAU0_Create (r_cg_timer)
           ENTRY                   ADDRESS         REF BY
           =====                   =======         ======
           _A_PR11                 000FFFEE 
           LOCAL                   ADDRESS         
           =====                   =======         
           PR11                    000FFFEE 
           PR11H                   000FFFEF 
           PR11H_bit               000FFFEF 
           PR11L                   000FFFEE 
           PR11L_bit               000FFFEE 
    -------------------------------------------------------------------------
NEAR_A
  Relative segment, address: 000F0010 - 000F0010 (0x1 bytes), align: 0
  Segment part 15. ROOT.      Intra module refs:   R_ADC_Create
           ENTRY                   ADDRESS         REF BY
           =====                   =======         ======
           _A_ADM2                 000F0010 
           LOCAL                   ADDRESS         
           =====                   =======         
           ADM2                    000F0010 
           ADM2_bit                000F0010 
    -------------------------------------------------------------------------
NEAR_A
  Relative segment, address: 000F0011 - 000F0011 (0x1 bytes), align: 0
  Segment part 16. ROOT.      Intra module refs:   R_ADC_Create
           ENTRY                   ADDRESS         REF BY
           =====                   =======         ======
           _A_ADUL                 000F0011 
           LOCAL                   ADDRESS         
           =====                   =======         
           ADUL                    000F0011 
           ADUL_bit                000F0011 
    -------------------------------------------------------------------------
NEAR_A
  Relative segment, address: 000F0012 - 000F0012 (0x1 bytes), align: 0
  Segment part 17. ROOT.      Intra module refs:   R_ADC_Create
           ENTRY                   ADDRESS         REF BY
           =====                   =======         ======
           _A_ADLL                 000F0012 
           LOCAL                   ADDRESS         
           =====                   =======         
           ADLL                    000F0012 
           ADLL_bit                000F0012 
    -------------------------------------------------------------------------
NEAR_A
  Relative segment, address: 000F0060 - 000F0060 (0x1 bytes), align: 0
  Segment part 18. ROOT.      Intra module refs:   R_ADC_Create
           ENTRY                   ADDRESS         REF BY
           =====                   =======         ======
           _A_PMC0                 000F0060 
           LOCAL                   ADDRESS         
           =====                   =======         
           PMC0                    000F0060 
           PMC0_bit                000F0060 
    -------------------------------------------------------------------------
NEAR_A
  Relative segment, address: 000F006A - 000F006A (0x1 bytes), align: 0
  Segment part 19. ROOT.      Intra module refs:   R_ADC_Create
           ENTRY                   ADDRESS         REF BY
           =====                   =======         ======
           _A_PMC10                000F006A 
           LOCAL                   ADDRESS         
           =====                   =======         
           PMC10                   000F006A 
           PMC10_bit               000F006A 
    -------------------------------------------------------------------------
NEAR_A
  Relative segment, address: 000F006C - 000F006C (0x1 bytes), align: 0
  Segment part 20. ROOT.      Intra module refs:   R_ADC_Create
           ENTRY                   ADDRESS         REF BY
           =====                   =======         ======
           _A_PMC12                000F006C 
           LOCAL                   ADDRESS         
           =====                   =======         
           PMC12                   000F006C 
           PMC12_bit               000F006C 
    -------------------------------------------------------------------------
NEAR_A
  Relative segment, address: 000F006E - 000F006E (0x1 bytes), align: 0
  Segment part 21. ROOT.      Intra module refs:   R_ADC_Create
           ENTRY                   ADDRESS         REF BY
           =====                   =======         ======
           _A_PMC14                000F006E 
           LOCAL                   ADDRESS         
           =====                   =======         
           PMC14                   000F006E 
           PMC14_bit               000F006E 
    -------------------------------------------------------------------------
NEAR_A
  Relative segment, address: 000F00F0 - 000F00F0 (0x1 bytes), align: 0
  Segment part 22. ROOT.      Intra module refs:   R_ADC_Create
                                                   R_IT_Create (r_cg_it)
                                                   R_SAU1_Create (r_cg_serial)
                                                   R_TAU0_Create (r_cg_timer)
           ENTRY                   ADDRESS         REF BY
           =====                   =======         ======
           _A_PER0                 000F00F0 
           LOCAL                   ADDRESS         
           =====                   =======         
           PER0                    000F00F0 
           PER0_bit                000F00F0 
    -------------------------------------------------------------------------
CODE
  Relative segment, address: 00005EBE - 00005F16 (0x59 bytes), align: 0
  Segment part 24.
           ENTRY                   ADDRESS         REF BY
           =====                   =======         ======
           R_ADC_Create            00005EBE        __low_level_init (r_systeminit)

    *************************************************************************

  FILE NAME : D:\NCSU\Courses\ECE 561 Embedded System Design\Project 3\Project3\Project3\Project3Code\Debug\Obj\r_cg_adc_user.r87
  PROGRAM MODULE, NAME : r_cg_adc_user

  SEGMENTS IN THE MODULE
  ======================
CODE
  Relative segment, address: 00005F17 - 00005F18 (0x2 bytes), align: 0
  Segment part 3.             Intra module refs:   r_adc_interrupt::??INTVEC 52
           LOCAL                   ADDRESS         
           =====                   =======         
           r_adc_interrupt         00005F17 
               interrupt function
    -------------------------------------------------------------------------
INTVEC
  Common segment, address: 00000000 - 00000035 (0x36 bytes), align: 1
  Segment part 1. ROOT.
           LOCAL                   ADDRESS         
           =====                   =======         
           r_adc_interrupt::??INTVEC 52
                                   00000034 

    *************************************************************************

  FILE NAME : D:\NCSU\Courses\ECE 561 Embedded System Design\Project 3\Project3\Project3\Project3Code\Debug\Obj\r_cg_cgc.r87
  PROGRAM MODULE, NAME : r_cg_cgc

  SEGMENTS IN THE MODULE
  ======================
NEAR_A
  Relative segment, address: 000FFFA0 - 000FFFA0 (0x1 bytes), align: 0
  Segment part 1. ROOT.       Intra module refs:   R_CGC_Create
           ENTRY                   ADDRESS         REF BY
           =====                   =======         ======
           _A_CMC                  000FFFA0 
           LOCAL                   ADDRESS         
           =====                   =======         
           CMC                     000FFFA0 
           CMC_bit                 000FFFA0 
    -------------------------------------------------------------------------
NEAR_A
  Relative segment, address: 000FFFA1 - 000FFFA1 (0x1 bytes), align: 0
  Segment part 2. ROOT.       Intra module refs:   R_CGC_Create
           ENTRY                   ADDRESS         REF BY
           =====                   =======         ======
           _A_CSC                  000FFFA1 
           LOCAL                   ADDRESS         
           =====                   =======         
           CSC                     000FFFA1 
           CSC_bit                 000FFFA1 
    -------------------------------------------------------------------------
NEAR_A
  Relative segment, address: 000FFFA4 - 000FFFA4 (0x1 bytes), align: 0
  Segment part 3. ROOT.       Intra module refs:   R_CGC_Create
           ENTRY                   ADDRESS         REF BY
           =====                   =======         ======
           _A_CKC                  000FFFA4 
           LOCAL                   ADDRESS         
           =====                   =======         
           CKC                     000FFFA4 
           CKC_bit                 000FFFA4 
    -------------------------------------------------------------------------
NEAR_A
  Relative segment, address: 000F00F3 - 000F00F3 (0x1 bytes), align: 0
  Segment part 4. ROOT.       Intra module refs:   R_CGC_Create
           ENTRY                   ADDRESS         REF BY
           =====                   =======         ======
           _A_OSMC                 000F00F3 
           LOCAL                   ADDRESS         
           =====                   =======         
           OSMC                    000F00F3 
           OSMC_bit                000F00F3 
    -------------------------------------------------------------------------
CODE
  Relative segment, address: 00005F19 - 00005F42 (0x2a bytes), align: 0
  Segment part 6.
           ENTRY                   ADDRESS         REF BY
           =====                   =======         ======
           R_CGC_Create            00005F19        __low_level_init (r_systeminit)
               CSTACK = 00000000 ( 00000002 )

    *************************************************************************

  FILE NAME : D:\NCSU\Courses\ECE 561 Embedded System Design\Project 3\Project3\Project3\Project3Code\Debug\Obj\r_cg_cgc_user.r87
    *************************************************************************

  FILE NAME : D:\NCSU\Courses\ECE 561 Embedded System Design\Project 3\Project3\Project3\Project3Code\Debug\Obj\r_cg_it.r87
  PROGRAM MODULE, NAME : r_cg_it

  SEGMENTS IN THE MODULE
  ======================
NEAR_A
  Relative segment, address: 000FFF90 - 000FFF91 (0x2 bytes), align: 0
  Segment part 1. ROOT.       Intra module refs:   R_IT_Create
                                                   R_IT_Start
           ENTRY                   ADDRESS         REF BY
           =====                   =======         ======
           _A_ITMC                 000FFF90 
           LOCAL                   ADDRESS         
           =====                   =======         
           ITMC                    000FFF90 
           ITMC_bit                000FFF90 
    -------------------------------------------------------------------------
CODE
  Relative segment, address: 00005F43 - 00005F5C (0x1a bytes), align: 0
  Segment part 8.
           ENTRY                   ADDRESS         REF BY
           =====                   =======         ======
           R_IT_Create             00005F43        __low_level_init (r_systeminit)
    -------------------------------------------------------------------------
CODE
  Relative segment, address: 00005F5D - 00005F69 (0xd bytes), align: 0
  Segment part 9.
           ENTRY                   ADDRESS         REF BY
           =====                   =======         ======
           R_IT_Start              00005F5D        main (r_main)

    *************************************************************************

  FILE NAME : D:\NCSU\Courses\ECE 561 Embedded System Design\Project 3\Project3\Project3\Project3Code\Debug\Obj\r_cg_it_user.r87
  PROGRAM MODULE, NAME : r_cg_it_user

  SEGMENTS IN THE MODULE
  ======================
CODE
  Relative segment, address: 00005F6A - 00005F78 (0xf bytes), align: 0
  Segment part 3.             Intra module refs:   r_it_interrupt::??INTVEC 56
           LOCAL                   ADDRESS         
           =====                   =======         
           r_it_interrupt          00005F6A 
               interrupt function
               calls direct
               CSTACK = 00000000 ( 00000006 )
    -------------------------------------------------------------------------
INTVEC
  Common segment, address: 00000000 - 00000039 (0x3a bytes), align: 1
  Segment part 1. ROOT.
           LOCAL                   ADDRESS         
           =====                   =======         
           r_it_interrupt::??INTVEC 56
                                   00000038 

    *************************************************************************

  FILE NAME : D:\NCSU\Courses\ECE 561 Embedded System Design\Project 3\Project3\Project3\Project3Code\Debug\Obj\r_cg_port.r87
  PROGRAM MODULE, NAME : r_cg_port

  SEGMENTS IN THE MODULE
  ======================
SADDR_A
  Relative segment, address: 000FFF00 - 000FFF00 (0x1 bytes), align: 0
  Segment part 1. ROOT.       Intra module refs:   R_PORT_Create
           ENTRY                   ADDRESS         REF BY
           =====                   =======         ======
           _A_P0                   000FFF00 
           LOCAL                   ADDRESS         
           =====                   =======         
           P0                      000FFF00 
           P0_bit                  000FFF00 
    -------------------------------------------------------------------------
SADDR_A
  Relative segment, address: 000FFF01 - 000FFF01 (0x1 bytes), align: 0
  Segment part 2. ROOT.       Intra module refs:   R_PORT_Create
           ENTRY                   ADDRESS         REF BY
           =====                   =======         ======
           _A_P1                   000FFF01 
           LOCAL                   ADDRESS         
           =====                   =======         
           P1                      000FFF01 
           P1_bit                  000FFF01 
    -------------------------------------------------------------------------
SADDR_A
  Relative segment, address: 000FFF04 - 000FFF04 (0x1 bytes), align: 0
  Segment part 3. ROOT.       Intra module refs:   R_PORT_Create
           ENTRY                   ADDRESS         REF BY
           =====                   =======         ======
           _A_P4                   000FFF04 
           LOCAL                   ADDRESS         
           =====                   =======         
           P4                      000FFF04 
           P4_bit                  000FFF04 
    -------------------------------------------------------------------------
SADDR_A
  Relative segment, address: 000FFF06 - 000FFF06 (0x1 bytes), align: 0
  Segment part 4. ROOT.       Intra module refs:   R_PORT_Create
           ENTRY                   ADDRESS         REF BY
           =====                   =======         ======
           _A_P6                   000FFF06 
           LOCAL                   ADDRESS         
           =====                   =======         
           P6                      000FFF06 
           P6_bit                  000FFF06 
    -------------------------------------------------------------------------
SADDR_A
  Relative segment, address: 000FFF0A - 000FFF0A (0x1 bytes), align: 0
  Segment part 5. ROOT.       Intra module refs:   R_PORT_Create
           ENTRY                   ADDRESS         REF BY
           =====                   =======         ======
           _A_P10                  000FFF0A 
           LOCAL                   ADDRESS         
           =====                   =======         
           P10                     000FFF0A 
           P10_bit                 000FFF0A 
    -------------------------------------------------------------------------
SADDR_A
  Relative segment, address: 000FFF0F - 000FFF0F (0x1 bytes), align: 0
  Segment part 8. ROOT.       Intra module refs:   R_PORT_Create
           ENTRY                   ADDRESS         REF BY
           =====                   =======         ======
           _A_P15                  000FFF0F 
           LOCAL                   ADDRESS         
           =====                   =======         
           P15                     000FFF0F 
           P15_bit                 000FFF0F 
    -------------------------------------------------------------------------
NEAR_A
  Relative segment, address: 000FFF21 - 000FFF21 (0x1 bytes), align: 0
  Segment part 10. ROOT.      Intra module refs:   R_PORT_Create
           ENTRY                   ADDRESS         REF BY
           =====                   =======         ======
           _A_PM1                  000FFF21 
           LOCAL                   ADDRESS         
           =====                   =======         
           PM1                     000FFF21 
           PM1_bit                 000FFF21 
    -------------------------------------------------------------------------
NEAR_A
  Relative segment, address: 000FFF24 - 000FFF24 (0x1 bytes), align: 0
  Segment part 11. ROOT.      Intra module refs:   R_PORT_Create
           ENTRY                   ADDRESS         REF BY
           =====                   =======         ======
           _A_PM4                  000FFF24 
           LOCAL                   ADDRESS         
           =====                   =======         
           PM4                     000FFF24 
           PM4_bit                 000FFF24 
    -------------------------------------------------------------------------
NEAR_A
  Relative segment, address: 000FFF26 - 000FFF26 (0x1 bytes), align: 0
  Segment part 12. ROOT.      Intra module refs:   R_PORT_Create
           ENTRY                   ADDRESS         REF BY
           =====                   =======         ======
           _A_PM6                  000FFF26 
           LOCAL                   ADDRESS         
           =====                   =======         
           PM6                     000FFF26 
           PM6_bit                 000FFF26 
    -------------------------------------------------------------------------
NEAR_A
  Relative segment, address: 000FFF27 - 000FFF27 (0x1 bytes), align: 0
  Segment part 13. ROOT.      Intra module refs:   R_CSI21_Create (r_cg_serial)
                                                   R_PORT_Create
                                                   R_SAU1_Create (r_cg_serial)
           ENTRY                   ADDRESS         REF BY
           =====                   =======         ======
           _A_PM7                  000FFF27 
           LOCAL                   ADDRESS         
           =====                   =======         
           PM7                     000FFF27 
           PM7_bit                 000FFF27 
    -------------------------------------------------------------------------
NEAR_A
  Relative segment, address: 000F0076 - 000F0076 (0x1 bytes), align: 0
  Segment part 17. ROOT.      Intra module refs:   R_PORT_Create
           ENTRY                   ADDRESS         REF BY
           =====                   =======         ======
           _A_ADPC                 000F0076 
           LOCAL                   ADDRESS         
           =====                   =======         
           ADPC                    000F0076 
           ADPC_bit                000F0076 
    -------------------------------------------------------------------------
CODE
  Relative segment, address: 00005F79 - 00005FAB (0x33 bytes), align: 0
  Segment part 19.
           ENTRY                   ADDRESS         REF BY
           =====                   =======         ======
           R_PORT_Create           00005F79        __low_level_init (r_systeminit)

    *************************************************************************

  FILE NAME : D:\NCSU\Courses\ECE 561 Embedded System Design\Project 3\Project3\Project3\Project3Code\Debug\Obj\r_cg_port_user.r87
    *************************************************************************

  FILE NAME : D:\NCSU\Courses\ECE 561 Embedded System Design\Project 3\Project3\Project3\Project3Code\Debug\Obj\r_cg_serial.r87
  PROGRAM MODULE, NAME : r_cg_serial

  SEGMENTS IN THE MODULE
  ======================
SADDR_A
  Relative segment, address: 000FFF07 - 000FFF07 (0x1 bytes), align: 0
  Segment part 1. ROOT.       Intra module refs:   R_CSI21_Create
                                                   R_SAU1_Create
           ENTRY                   ADDRESS         REF BY
           =====                   =======         ======
           _A_P7                   000FFF07 
           LOCAL                   ADDRESS         
           =====                   =======         
           P7                      000FFF07 
           P7_bit                  000FFF07 
    -------------------------------------------------------------------------
NEAR_A
  Relative segment, address: 000FFF4A - 000FFF4B (0x2 bytes), align: 0
  Segment part 3. ROOT.       Intra module refs:   R_CSI21_Create
                                                   R_CSI21_Send_Receive
                                                   R_SAU1_Create
                                                   r_csi21_interrupt (r_cg_serial_user)
           ENTRY                   ADDRESS         REF BY
           =====                   =======         ======
           _A_SDR11                000FFF4A 
           LOCAL                   ADDRESS         
           =====                   =======         
           RXD2                    000FFF4A 
           RXD2_bit                000FFF4A 
           SDR11                   000FFF4A 
           SDR11_bit               000FFF4A 
           SIO21                   000FFF4A 
           SIO21_bit               000FFF4A 
    -------------------------------------------------------------------------
NEAR_A
  Relative segment, address: 000FFFE0 - 000FFFE1 (0x2 bytes), align: 0
  Segment part 4. ROOT.       Intra module refs:   R_CSI21_Create
                                                   R_CSI21_Start
                                                   R_SAU1_Create
                                                   R_TAU0_Create (r_cg_timer)
           ENTRY                   ADDRESS         REF BY
           =====                   =======         ======
           _A_IF0                  000FFFE0 
           LOCAL                   ADDRESS         
           =====                   =======         
           IF0                     000FFFE0 
           IF0H                    000FFFE1 
           IF0H_bit                000FFFE1 
           IF0L                    000FFFE0 
           IF0L_bit                000FFFE0 
    -------------------------------------------------------------------------
NEAR_A
  Relative segment, address: 000FFFE4 - 000FFFE5 (0x2 bytes), align: 0
  Segment part 5. ROOT.       Intra module refs:   R_CSI21_Create
                                                   R_CSI21_Send_Receive
                                                   R_CSI21_Start
                                                   R_SAU1_Create
                                                   R_TAU0_Create (r_cg_timer)
           ENTRY                   ADDRESS         REF BY
           =====                   =======         ======
           _A_MK0                  000FFFE4 
           LOCAL                   ADDRESS         
           =====                   =======         
           MK0                     000FFFE4 
           MK0H                    000FFFE5 
           MK0H_bit                000FFFE5 
           MK0L                    000FFFE4 
           MK0L_bit                000FFFE4 
    -------------------------------------------------------------------------
NEAR_A
  Relative segment, address: 000FFFE8 - 000FFFE9 (0x2 bytes), align: 0
  Segment part 6. ROOT.       Intra module refs:   R_CSI21_Create
                                                   R_SAU1_Create
           ENTRY                   ADDRESS         REF BY
           =====                   =======         ======
           _A_PR00                 000FFFE8 
           LOCAL                   ADDRESS         
           =====                   =======         
           PR00                    000FFFE8 
           PR00H                   000FFFE9 
           PR00H_bit               000FFFE9 
           PR00L                   000FFFE8 
           PR00L_bit               000FFFE8 
    -------------------------------------------------------------------------
NEAR_A
  Relative segment, address: 000FFFEC - 000FFFED (0x2 bytes), align: 0
  Segment part 7. ROOT.       Intra module refs:   R_CSI21_Create
                                                   R_SAU1_Create
           ENTRY                   ADDRESS         REF BY
           =====                   =======         ======
           _A_PR10                 000FFFEC 
           LOCAL                   ADDRESS         
           =====                   =======         
           PR10                    000FFFEC 
           PR10H                   000FFFED 
           PR10H_bit               000FFFED 
           PR10L                   000FFFEC 
           PR10L_bit               000FFFEC 
    -------------------------------------------------------------------------
NEAR_A
  Relative segment, address: 000F014A - 000F014B (0x2 bytes), align: 0
  Segment part 9. ROOT.       Intra module refs:   R_CSI21_Create
                                                   R_SAU1_Create
                                                   r_csi21_interrupt (r_cg_serial_user)
           ENTRY                   ADDRESS         REF BY
           =====                   =======         ======
           _A_SIR11                000F014A 
           LOCAL                   ADDRESS         
           =====                   =======         
           SIR11                   000F014A 
           SIR11L                  000F014A 
           SIR11L_bit              000F014A 
           SIR11_bit               000F014A 
    -------------------------------------------------------------------------
NEAR_A
  Relative segment, address: 000F0152 - 000F0153 (0x2 bytes), align: 0
  Segment part 10. ROOT.      Intra module refs:   R_CSI21_Create
                                                   R_CSI21_Send_Receive
                                                   R_SAU1_Create
                                                   r_csi21_interrupt (r_cg_serial_user)
           ENTRY                   ADDRESS         REF BY
           =====                   =======         ======
           _A_SMR11                000F0152 
           LOCAL                   ADDRESS         
           =====                   =======         
           SMR11                   000F0152 
           SMR11_bit               000F0152 
    -------------------------------------------------------------------------
NEAR_A
  Relative segment, address: 000F015A - 000F015B (0x2 bytes), align: 0
  Segment part 11. ROOT.      Intra module refs:   R_CSI21_Create
                                                   R_SAU1_Create
           ENTRY                   ADDRESS         REF BY
           =====                   =======         ======
           _A_SCR11                000F015A 
           LOCAL                   ADDRESS         
           =====                   =======         
           SCR11                   000F015A 
           SCR11_bit               000F015A 
    -------------------------------------------------------------------------
NEAR_A
  Relative segment, address: 000F0162 - 000F0163 (0x2 bytes), align: 0
  Segment part 12. ROOT.      Intra module refs:   R_CSI21_Start
           ENTRY                   ADDRESS         REF BY
           =====                   =======         ======
           _A_SS1                  000F0162 
           LOCAL                   ADDRESS         
           =====                   =======         
           SS1                     000F0162 
           SS1L                    000F0162 
           SS1L_bit                000F0162 
    -------------------------------------------------------------------------
NEAR_A
  Relative segment, address: 000F0164 - 000F0165 (0x2 bytes), align: 0
  Segment part 13. ROOT.      Intra module refs:   R_CSI21_Create
                                                   R_SAU1_Create
           ENTRY                   ADDRESS         REF BY
           =====                   =======         ======
           _A_ST1                  000F0164 
           LOCAL                   ADDRESS         
           =====                   =======         
           ST1                     000F0164 
           ST1L                    000F0164 
           ST1L_bit                000F0164 
    -------------------------------------------------------------------------
NEAR_A
  Relative segment, address: 000F0166 - 000F0167 (0x2 bytes), align: 0
  Segment part 14. ROOT.      Intra module refs:   R_SAU1_Create
           ENTRY                   ADDRESS         REF BY
           =====                   =======         ======
           _A_SPS1                 000F0166 
           LOCAL                   ADDRESS         
           =====                   =======         
           SPS1                    000F0166 
           SPS1L                   000F0166 
           SPS1L_bit               000F0166 
           SPS1_bit                000F0166 
    -------------------------------------------------------------------------
NEAR_A
  Relative segment, address: 000F0168 - 000F0169 (0x2 bytes), align: 0
  Segment part 15. ROOT.      Intra module refs:   R_CSI21_Create
                                                   R_CSI21_Start
                                                   R_SAU1_Create
           ENTRY                   ADDRESS         REF BY
           =====                   =======         ======
           _A_SO1                  000F0168 
           LOCAL                   ADDRESS         
           =====                   =======         
           SO1                     000F0168 
           SO1_bit                 000F0168 
    -------------------------------------------------------------------------
NEAR_A
  Relative segment, address: 000F016A - 000F016B (0x2 bytes), align: 0
  Segment part 16. ROOT.      Intra module refs:   R_CSI21_Create
                                                   R_CSI21_Start
                                                   R_SAU1_Create
           ENTRY                   ADDRESS         REF BY
           =====                   =======         ======
           _A_SOE1                 000F016A 
           LOCAL                   ADDRESS         
           =====                   =======         
           SOE1                    000F016A 
           SOE1L                   000F016A 
           SOE1L_bit               000F016A 
    -------------------------------------------------------------------------
NEAR_Z
  Relative segment, address: 000FCE0C - 000FCE0D (0x2 bytes), align: 1
  Segment part 18.            Intra module refs:   R_CSI21_Send_Receive
           ENTRY                   ADDRESS         REF BY
           =====                   =======         ======
           gp_csi21_rx_address     000FCE0C        r_csi21_interrupt (r_cg_serial_user)
    -------------------------------------------------------------------------
NEAR_Z
  Relative segment, address: 000FCE0E - 000FCE0F (0x2 bytes), align: 1
  Segment part 21.            Intra module refs:   R_CSI21_Send_Receive
           ENTRY                   ADDRESS         REF BY
           =====                   =======         ======
           gp_csi21_tx_address     000FCE0E        r_csi21_interrupt (r_cg_serial_user)
    -------------------------------------------------------------------------
NEAR_Z
  Relative segment, address: 000FCE10 - 000FCE11 (0x2 bytes), align: 1
  Segment part 22.            Intra module refs:   R_CSI21_Send_Receive
           ENTRY                   ADDRESS         REF BY
           =====                   =======         ======
           g_csi21_send_length     000FCE10        r_csi21_interrupt (r_cg_serial_user)
    -------------------------------------------------------------------------
NEAR_Z
  Relative segment, address: 000FCE12 - 000FCE13 (0x2 bytes), align: 1
  Segment part 23.            Intra module refs:   R_CSI21_Send_Receive
           ENTRY                   ADDRESS         REF BY
           =====                   =======         ======
           g_csi21_tx_count        000FCE12        r_csi21_interrupt (r_cg_serial_user)
    -------------------------------------------------------------------------
CODE
  Relative segment, address: 00005FAC - 00005FCB (0x20 bytes), align: 0
  Segment part 24.
           ENTRY                   ADDRESS         REF BY
           =====                   =======         ======
           R_SAU1_Create           00005FAC        __low_level_init (r_systeminit)
    -------------------------------------------------------------------------
CODE
  Relative segment, address: 00005FCC - 00006003 (0x38 bytes), align: 0
  Segment part 25.            Intra module refs:   R_CSI21_Create
                                                   R_SAU1_Create
           LOCAL                   ADDRESS         
           =====                   =======         
           ?Subroutine0            00005FCC 
    -------------------------------------------------------------------------
CODE
  Relative segment, address: 00006004 - 0000601A (0x17 bytes), align: 0
  Segment part 26.
           ENTRY                   ADDRESS         REF BY
           =====                   =======         ======
           R_CSI21_Create          00006004        SPI_Init (RDKRL78_spi)
    -------------------------------------------------------------------------
CODE
  Relative segment, address: 0000601B - 0000603C (0x22 bytes), align: 0
  Segment part 27.
           ENTRY                   ADDRESS         REF BY
           =====                   =======         ======
           R_CSI21_Start           0000601B        SPI_Init (RDKRL78_spi)
    -------------------------------------------------------------------------
CODE
  Relative segment, address: 0000603D - 00006078 (0x3c bytes), align: 0
  Segment part 29.
           ENTRY                   ADDRESS         REF BY
           =====                   =======         ======
           R_CSI21_Send_Receive    0000603D        SPI_Send (RDKRL78_spi)
               CSTACK = 00000000 ( 00000002 )

    *************************************************************************

  FILE NAME : D:\NCSU\Courses\ECE 561 Embedded System Design\Project 3\Project3\Project3\Project3Code\Debug\Obj\r_cg_serial_user.r87
  PROGRAM MODULE, NAME : r_cg_serial_user

  SEGMENTS IN THE MODULE
  ======================
NEAR_A
  Relative segment, address: 000F0142 - 000F0143 (0x2 bytes), align: 0
  Segment part 2. ROOT.       Intra module refs:   r_csi21_interrupt
           ENTRY                   ADDRESS         REF BY
           =====                   =======         ======
           _A_SSR11                000F0142 
           LOCAL                   ADDRESS         
           =====                   =======         
           SSR11                   000F0142 
           SSR11L                  000F0142 
           SSR11L_bit              000F0142 
           SSR11_bit               000F0142 
    -------------------------------------------------------------------------
NEAR_Z
  Relative segment, address: 000FCF3B - 000FCF3B (0x1 bytes), align: 0
  Segment part 9.             Intra module refs:   r_csi21_interrupt
           ENTRY                   ADDRESS         REF BY
           =====                   =======         ======
           G_SPI_SendingData       000FCF3B        SPI_Send (RDKRL78_spi)
    -------------------------------------------------------------------------
NEAR_Z
  Relative segment, address: 000FCF3C - 000FCF3C (0x1 bytes), align: 0
  Segment part 10.            Intra module refs:   r_csi21_interrupt
           ENTRY                   ADDRESS         REF BY
           =====                   =======         ======
           G_SPI_ReceivingData     000FCF3C        SPI_Send (RDKRL78_spi)
    -------------------------------------------------------------------------
CODE
  Relative segment, address: 00006079 - 000060F8 (0x80 bytes), align: 0
  Segment part 13.            Intra module refs:   r_csi21_interrupt::??INTVEC 22
           LOCAL                   ADDRESS         
           =====                   =======         
           r_csi21_interrupt       00006079 
               interrupt function
               CSTACK = 00000000 ( 00000006 )
    -------------------------------------------------------------------------
INTVEC
  Common segment, address: 00000000 - 00000017 (0x18 bytes), align: 1
  Segment part 5. ROOT.
           LOCAL                   ADDRESS         
           =====                   =======         
           r_csi21_interrupt::??INTVEC 22
                                   00000016 

    *************************************************************************

  FILE NAME : D:\NCSU\Courses\ECE 561 Embedded System Design\Project 3\Project3\Project3\Project3Code\Debug\Obj\r_cg_timer.r87
  PROGRAM MODULE, NAME : r_cg_timer

  SEGMENTS IN THE MODULE
  ======================
SADDR_A
  Relative segment, address: 000FFF18 - 000FFF19 (0x2 bytes), align: 0
  Segment part 1. ROOT.       Intra module refs:   R_TAU0_Create
           ENTRY                   ADDRESS         REF BY
           =====                   =======         ======
           _A_TDR00                000FFF18 
           LOCAL                   ADDRESS         
           =====                   =======         
           TDR00                   000FFF18 
           TDR00_bit               000FFF18 
    -------------------------------------------------------------------------
NEAR_A
  Relative segment, address: 000F0190 - 000F0191 (0x2 bytes), align: 0
  Segment part 9. ROOT.       Intra module refs:   R_TAU0_Create
           ENTRY                   ADDRESS         REF BY
           =====                   =======         ======
           _A_TMR00                000F0190 
           LOCAL                   ADDRESS         
           =====                   =======         
           TMR00                   000F0190 
           TMR00_bit               000F0190 
    -------------------------------------------------------------------------
NEAR_A
  Relative segment, address: 000F01B2 - 000F01B3 (0x2 bytes), align: 0
  Segment part 10. ROOT.      Intra module refs:   R_TAU0_Channel0_Start
           ENTRY                   ADDRESS         REF BY
           =====                   =======         ======
           _A_TS0                  000F01B2 
           LOCAL                   ADDRESS         
           =====                   =======         
           TS0                     000F01B2 
           TS0L                    000F01B2 
           TS0L_bit                000F01B2 
    -------------------------------------------------------------------------
NEAR_A
  Relative segment, address: 000F01B4 - 000F01B5 (0x2 bytes), align: 0
  Segment part 11. ROOT.      Intra module refs:   R_TAU0_Create
           ENTRY                   ADDRESS         REF BY
           =====                   =======         ======
           _A_TT0                  000F01B4 
           LOCAL                   ADDRESS         
           =====                   =======         
           TT0                     000F01B4 
           TT0L                    000F01B4 
           TT0L_bit                000F01B4 
    -------------------------------------------------------------------------
NEAR_A
  Relative segment, address: 000F01B6 - 000F01B7 (0x2 bytes), align: 0
  Segment part 12. ROOT.      Intra module refs:   R_TAU0_Create
           ENTRY                   ADDRESS         REF BY
           =====                   =======         ======
           _A_TPS0                 000F01B6 
           LOCAL                   ADDRESS         
           =====                   =======         
           TPS0                    000F01B6 
           TPS0_bit                000F01B6 
    -------------------------------------------------------------------------
NEAR_A
  Relative segment, address: 000F01B8 - 000F01B9 (0x2 bytes), align: 0
  Segment part 13. ROOT.      Intra module refs:   R_TAU0_Create
           ENTRY                   ADDRESS         REF BY
           =====                   =======         ======
           _A_TO0                  000F01B8 
           LOCAL                   ADDRESS         
           =====                   =======         
           TO0                     000F01B8 
           TO0L                    000F01B8 
           TO0L_bit                000F01B8 
           TO0_bit                 000F01B8 
    -------------------------------------------------------------------------
NEAR_A
  Relative segment, address: 000F01BA - 000F01BB (0x2 bytes), align: 0
  Segment part 14. ROOT.      Intra module refs:   R_TAU0_Create
           ENTRY                   ADDRESS         REF BY
           =====                   =======         ======
           _A_TOE0                 000F01BA 
           LOCAL                   ADDRESS         
           =====                   =======         
           TOE0                    000F01BA 
           TOE0L                   000F01BA 
           TOE0L_bit               000F01BA 
    -------------------------------------------------------------------------
CODE
  Relative segment, address: 000060F9 - 00006149 (0x51 bytes), align: 0
  Segment part 16.
           ENTRY                   ADDRESS         REF BY
           =====                   =======         ======
           R_TAU0_Create           000060F9        __low_level_init (r_systeminit)
    -------------------------------------------------------------------------
CODE
  Relative segment, address: 0000614A - 00006155 (0xc bytes), align: 0
  Segment part 17.
           ENTRY                   ADDRESS         REF BY
           =====                   =======         ======
           R_TAU0_Channel0_Start   0000614A        Init_Profiling (profile)

    *************************************************************************

  FILE NAME : D:\NCSU\Courses\ECE 561 Embedded System Design\Project 3\Project3\Project3\Project3Code\Debug\Obj\r_cg_timer_user.r87
  PROGRAM MODULE, NAME : r_cg_timer_user

  SEGMENTS IN THE MODULE
  ======================
CODE
  Relative segment, address: 00006156 - 000061B6 (0x61 bytes), align: 0
  Segment part 3.             Intra module refs:   r_tau0_channel0_interrupt::??INTVEC 44
           LOCAL                   ADDRESS         
           =====                   =======         
           r_tau0_channel0_interrupt
                                   00006156 
               interrupt function
               CSTACK = 00000000 ( 00000008 )
    -------------------------------------------------------------------------
INTVEC
  Common segment, address: 00000000 - 0000002D (0x2e bytes), align: 1
  Segment part 1. ROOT.
           LOCAL                   ADDRESS         
           =====                   =======         
           r_tau0_channel0_interrupt::??INTVEC 44
                                   0000002C 

    *************************************************************************

  FILE NAME : D:\NCSU\Courses\ECE 561 Embedded System Design\Project 3\Project3\Project3\Project3Code\Debug\Obj\r_main.r87
  PROGRAM MODULE, NAME : r_main

  SEGMENTS IN THE MODULE
  ======================
OPTBYTE
  Relative segment, address: 000000C0 - 000000C0 (0x1 bytes), align: 0
  Segment part 5. ROOT.
           ENTRY                   ADDRESS         REF BY
           =====                   =======         ======
           opbyte0                 000000C0 
    -------------------------------------------------------------------------
OPTBYTE
  Relative segment, address: 000000C1 - 000000C1 (0x1 bytes), align: 0
  Segment part 6. ROOT.
           ENTRY                   ADDRESS         REF BY
           =====                   =======         ======
           opbyte1                 000000C1 
    -------------------------------------------------------------------------
OPTBYTE
  Relative segment, address: 000000C2 - 000000C2 (0x1 bytes), align: 0
  Segment part 7. ROOT.
           ENTRY                   ADDRESS         REF BY
           =====                   =======         ======
           opbyte2                 000000C2 
    -------------------------------------------------------------------------
OPTBYTE
  Relative segment, address: 000000C3 - 000000C3 (0x1 bytes), align: 0
  Segment part 8. ROOT.
           ENTRY                   ADDRESS         REF BY
           =====                   =======         ======
           opbyte3                 000000C3 
    -------------------------------------------------------------------------
SECUID
  Relative segment, address: 000000C4 - 000000CD (0xa bytes), align: 1
  Segment part 9. ROOT.
           ENTRY                   ADDRESS         REF BY
           =====                   =======         ======
           secuid                  000000C4 
    -------------------------------------------------------------------------
NEAR_A
  Relative segment, address: 000FA300 - 000FA6FF (0x400 bytes), align: 0
  Segment part 1. ROOT.
           ENTRY                   ADDRESS         REF BY
           =====                   =======         ======
           ocdtraceram             000FA300 
    -------------------------------------------------------------------------
CODE
  Relative segment, address: 000061B7 - 00006266 (0xb0 bytes), align: 0
  Segment part 10.
           ENTRY                   ADDRESS         REF BY
           =====                   =======         ======
           main                    000061B7        Segment part 1 (?__MAIN_CALL)
               calls direct
               CSTACK = 00000000 ( 00000006 )
    -------------------------------------------------------------------------
NEAR_CONST
  Relative segment, address: 000F4234 - 000F423D (0xa bytes), align: 1
  Segment part 3.             Intra module refs:   main
    -------------------------------------------------------------------------
NEAR_CONST
  Relative segment, address: 000F423E - 000F4247 (0xa bytes), align: 1
  Segment part 4.             Intra module refs:   main
    -------------------------------------------------------------------------
NEAR_CONST_ID
  Relative segment, address: 00004234 - 0000423D (0xa bytes), align: 1
  Segment part 12.            Intra module refs:   Segment part 3
    -------------------------------------------------------------------------
NEAR_CONST_ID
  Relative segment, address: 0000423E - 00004247 (0xa bytes), align: 1
  Segment part 13.            Intra module refs:   Segment part 4

    *************************************************************************

  FILE NAME : D:\NCSU\Courses\ECE 561 Embedded System Design\Project 3\Project3\Project3\Project3Code\Debug\Obj\r_systeminit.r87
  PROGRAM MODULE, NAME : r_systeminit

  SEGMENTS IN THE MODULE
  ======================
NEAR_A
  Relative segment, address: 000F0077 - 000F0077 (0x1 bytes), align: 0
  Segment part 1. ROOT.       Intra module refs:   __low_level_init
           ENTRY                   ADDRESS         REF BY
           =====                   =======         ======
           _A_PIOR0                000F0077 
           LOCAL                   ADDRESS         
           =====                   =======         
           PIOR0                   000F0077 
           PIOR0_bit               000F0077 
    -------------------------------------------------------------------------
NEAR_A
  Relative segment, address: 000F0078 - 000F0078 (0x1 bytes), align: 0
  Segment part 2. ROOT.       Intra module refs:   __low_level_init
           ENTRY                   ADDRESS         REF BY
           =====                   =======         ======
           _A_IAWCTL               000F0078 
           LOCAL                   ADDRESS         
           =====                   =======         
           IAWCTL                  000F0078 
           IAWCTL_bit              000F0078 
    -------------------------------------------------------------------------
NEAR_A
  Relative segment, address: 000F0079 - 000F0079 (0x1 bytes), align: 0
  Segment part 3. ROOT.       Intra module refs:   __low_level_init
           ENTRY                   ADDRESS         REF BY
           =====                   =======         ======
           _A_PIOR1                000F0079 
           LOCAL                   ADDRESS         
           =====                   =======         
           PIOR1                   000F0079 
           PIOR1_bit               000F0079 
    -------------------------------------------------------------------------
NEAR_A
  Relative segment, address: 000F007B - 000F007B (0x1 bytes), align: 0
  Segment part 4. ROOT.       Intra module refs:   __low_level_init
           ENTRY                   ADDRESS         REF BY
           =====                   =======         ======
           _A_PMS                  000F007B 
           LOCAL                   ADDRESS         
           =====                   =======         
           PMS                     000F007B 
           PMS_bit                 000F007B 
    -------------------------------------------------------------------------
NEAR_A
  Relative segment, address: 000F02F0 - 000F02F0 (0x1 bytes), align: 0
  Segment part 5. ROOT.       Intra module refs:   __low_level_init
           ENTRY                   ADDRESS         REF BY
           =====                   =======         ======
           _A_CRC0CTL              000F02F0 
           LOCAL                   ADDRESS         
           =====                   =======         
           CRC0CTL                 000F02F0 
           CRC0CTL_bit             000F02F0 
    -------------------------------------------------------------------------
CODE
  Relative segment, address: 00006267 - 0000626B (0x5 bytes), align: 0
  Segment part 8.             Intra module refs:   __low_level_init
           LOCAL                   ADDRESS         
           =====                   =======         
           ?Subroutine0            00006267 
    -------------------------------------------------------------------------
CODE
  Relative segment, address: 0000626C - 00006294 (0x29 bytes), align: 0
  Segment part 9. ROOT.
           ENTRY                   ADDRESS         REF BY
           =====                   =======         ======
           __low_level_init        0000626C        Segment part 3 (?CSTARTUP)
               calls direct

    *************************************************************************

  FILE NAME : D:\NCSU\Courses\ECE 561 Embedded System Design\Project 3\Project3\Project3\Project3Code\Debug\Obj\region.r87
  PROGRAM MODULE, NAME : region

  SEGMENTS IN THE MODULE
  ======================
NEAR_CONST
  Relative segment, address: 000F4248 - 000F498B (0x744 bytes), align: 1
  Segment part 2.
           ENTRY                   ADDRESS         REF BY
           =====                   =======         ======
           RegionTable             000F4248        Print_Results (profile)
                                                   r_tau0_channel0_interrupt (r_cg_timer_user)
    -------------------------------------------------------------------------
NEAR_CONST
  Relative segment, address: 000F498C - 000F498D (0x2 bytes), align: 1
  Segment part 3.
           ENTRY                   ADDRESS         REF BY
           =====                   =======         ======
           NumProfileRegions       000F498C        Init_Profiling (profile)
                                                   Print_Results (profile)
                                                   r_tau0_channel0_interrupt (r_cg_timer_user)
    -------------------------------------------------------------------------
NEAR_Z
  Relative segment, address: 000FCE14 - 000FCECD (0xba bytes), align: 1
  Segment part 4.
           ENTRY                   ADDRESS         REF BY
           =====                   =======         ======
           RegionCount             000FCE14        Init_Profiling (profile)
                                                   Print_Results (profile)
                                                   r_tau0_channel0_interrupt (r_cg_timer_user)
    -------------------------------------------------------------------------
NEAR_CONST_ID
  Relative segment, address: 00004248 - 0000498B (0x744 bytes), align: 1
  Segment part 5.             Intra module refs:   RegionTable
    -------------------------------------------------------------------------
NEAR_CONST_ID
  Relative segment, address: 0000498C - 0000498D (0x2 bytes), align: 1
  Segment part 6.             Intra module refs:   NumProfileRegions

    *************************************************************************

  FILE NAME : D:\NCSU\Courses\ECE 561 Embedded System Design\Project 3\Project3\Project3\Project3Code\Debug\Obj\rtc_sched.r87
  PROGRAM MODULE, NAME : rtc_sched

  SEGMENTS IN THE MODULE
  ======================
NEAR_Z
  Relative segment, address: 000FCECE - 000FCF31 (0x64 bytes), align: 1
  Segment part 4.             Intra module refs:   tick_timer_intr
           ENTRY                   ADDRESS         REF BY
           =====                   =======         ======
           GBL_task_list           000FCECE 
    -------------------------------------------------------------------------
NEAR_Z
  Relative segment, address: 000FCF32 - 000FCF33 (0x2 bytes), align: 1
  Segment part 6.             Intra module refs:   tick_timer_intr
           ENTRY                   ADDRESS         REF BY
           =====                   =======         ======
           num_ticks               000FCF32 
    -------------------------------------------------------------------------
CODE
  Relative segment, address: 00006295 - 000062FC (0x68 bytes), align: 0
  Segment part 10.
           ENTRY                   ADDRESS         REF BY
           =====                   =======         ======
           tick_timer_intr         00006295        r_it_interrupt (r_cg_it_user)
               CSTACK = 00000000 ( 00000002 )
    -------------------------------------------------------------------------
NEAR_Z
  Relative segment, address: 000FCF3D - 000FCF3D (0x1 bytes), align: 0
  Segment part 8.             Intra module refs:   tick_timer_intr
           LOCAL                   ADDRESS         
           =====                   =======         
           tick_timer_intr::i      000FCF3D 

    *************************************************************************

  FILE NAME : D:\NCSU\Courses\ECE 561 Embedded System Design\Project 3\Project3\Project3\Project3Code\Debug\Obj\skumar15_graphics.r87
  PROGRAM MODULE, NAME : skumar15_graphics

  SEGMENTS IN THE MODULE
  ======================
CODE
  Relative segment, address: 000062FD - 000066B8 (0x3bc bytes), align: 0
  Segment part 6.             Intra module refs:   TestMyCode
           ENTRY                   ADDRESS         REF BY
           =====                   =======         ======
           LCDDrawDialBackground   000062FD 
               calls direct
               CSTACK = 00000000 ( 00000028 )
    -------------------------------------------------------------------------
CODE
  Relative segment, address: 000066B9 - 00006B45 (0x48d bytes), align: 0
  Segment part 8.             Intra module refs:   TestMyCode
           ENTRY                   ADDRESS         REF BY
           =====                   =======         ======
           DrawNeedleFiller        000066B9 
               calls direct
               CSTACK = 00000006 ( 00000024 )
    -------------------------------------------------------------------------
CODE
  Relative segment, address: 00006B46 - 00007652 (0xb0d bytes), align: 0
  Segment part 9.
           ENTRY                   ADDRESS         REF BY
           =====                   =======         ======
           TestMyCode              00006B46        main (r_main)
               calls direct
               CSTACK = 00000000 ( 00000042 )

    *************************************************************************

  FILE NAME : D:\NCSU\Courses\ECE 561 Embedded System Design\Project 3\Project3\Project3\Project3Code\Debug\Obj\tasks.r87
  PROGRAM MODULE, NAME : tasks

  SEGMENTS IN THE MODULE
  ======================

    *************************************************************************

  FILE NAME : C:\Program Files (x86)\IAR Systems\Embedded Workbench 6.5\rl78\LIB\dlrl78nn2n.r87
  LIBRARY MODULE, NAME : ?__dbg_break

  SEGMENTS IN THE MODULE
  ======================
CODE
  Relative segment, address: 00007653 - 00007655 (0x3 bytes), align: 0
  Segment part 2.
           ENTRY                   ADDRESS         REF BY
           =====                   =======         ======
           __DebugBreak            00007653        __exit (?__exit)

    -------------------------------------------------------------------------
  LIBRARY MODULE, NAME : ?__exit

  SEGMENTS IN THE MODULE
  ======================
CODE
  Relative segment, address: 00007656 - 00007665 (0x10 bytes), align: 0
  Segment part 2.
           ENTRY                   ADDRESS         REF BY
           =====                   =======         ======
           __exit                  00007656        Segment part 4 (?_exit)
               calls direct

    -------------------------------------------------------------------------
  LIBRARY MODULE, NAME : ?_exit

  SEGMENTS IN THE MODULE
  ======================
RCODE
  Relative segment, address: 0000021F - 0000021F (0x1 bytes), align: 0
  Segment part 1.
           ENTRY                   ADDRESS         REF BY
           =====                   =======         ======
           _exit                   0000021F        exit (?exit)
    -------------------------------------------------------------------------
RCODE
  Relative segment, address: 00000220 - 00000223 (0x4 bytes), align: 0
  Segment part 4.             Intra module refs:   _exit

    -------------------------------------------------------------------------
  LIBRARY MODULE, NAME : ?CSTARTUP

  SEGMENTS IN THE MODULE
  ======================
CSTACK
  Relative segment, address: 000FD03E, align: 1
  Segment part 1. ROOT.
    -------------------------------------------------------------------------
INTVEC
  Common segment, address: 00000000 - 00000001 (0x2 bytes), align: 1
  Segment part 2. ROOT.
    -------------------------------------------------------------------------
RCODE
  Relative segment, address: 00000224 - 00000252 (0x2f bytes), align: 0
  Segment part 3. ROOT.       Intra module refs:   Segment part 2
           ENTRY                   ADDRESS         REF BY
           =====                   =======         ======
           ?C_STARTUP              00000224 
           @cstart                 00000224 
           __program_start         00000224        Absolute parts (?ABS_ENTRY_MOD)

    -------------------------------------------------------------------------
  LIBRARY MODULE, NAME : ?__INIT_FAR_Z

  SEGMENTS IN THE MODULE
  ======================
FAR_Z
  Relative segment, address: 000FCF3E, align: 0
  Segment part 1. ROOT.

    -------------------------------------------------------------------------
  LIBRARY MODULE, NAME : ?__INIT_NEAR_Z

  SEGMENTS IN THE MODULE
  ======================
NEAR_Z
  Relative segment, address: 000FCF3E, align: 0
  Segment part 1. ROOT.
    -------------------------------------------------------------------------
RCODE
  Relative segment, address: 00000253 - 00000265 (0x13 bytes), align: 0
  Segment part 2.
           ENTRY                   ADDRESS         REF BY
           =====                   =======         ======
           __INIT_NEAR_Z           00000253        GBL_task_list (rtc_sched)
                                                   G_SPI_ReceivingData (r_cg_serial_user)
                                                   G_SPI_SendingData (r_cg_serial_user)
                                                   G_lcd (lcd)
                                                   PC_val_low (profile)
                                                   RegionCount (region)
                                                   Segment part 2 (?xgetmemchunk)
                                                   __near_Aldata (?xxmemxmalloc)
                                                   fbuf_BG (fbuf_graphics)
                                                   fbuf_FG (fbuf_graphics)
                                                   fbuf_FG_prev (fbuf_graphics)
                                                   fbuf_chk (fbuf_graphics)
                                                   fbuf_chk_bg (fbuf_graphics)
                                                   fbuf_chk_fg (fbuf_graphics)
                                                   g_csi21_send_length (r_cg_serial)
                                                   g_csi21_tx_count (r_cg_serial)
                                                   gp_csi21_rx_address (r_cg_serial)
                                                   gp_csi21_tx_address (r_cg_serial)
                                                   lost (profile)
                                                   num_lost (profile)
                                                   num_ticks (rtc_sched)
                                                   profile_ticks (profile)
                                                   profiling_enabled (profile)
                                                   tick_timer_intr::i (rtc_sched)

    -------------------------------------------------------------------------
  LIBRARY MODULE, NAME : ?__INIT_WRKSEG

  SEGMENTS IN THE MODULE
  ======================
WRKSEG
  Relative segment, address: 000FFE20, align: 0
  Segment part 1. ROOT.
    -------------------------------------------------------------------------
RCODE
  Relative segment, address: 00000266 - 00000270 (0xb bytes), align: 0
  Segment part 2.
           ENTRY                   ADDRESS         REF BY
           =====                   =======         ======
           __INIT_WRKSEG           00000266        ?F_DIV (?FLOAT_DIV)
                                                   ?F_MUL (?FLOAT_MUL)
                                                   ?F_SL2F (?SIGNED_LONG_2_FLOAT)
                                                   ?F_UL2F (?SIGNED_LONG_2_FLOAT)
                                                   Segment part 2 (?FLOAT_2_SIGNED_LONG)
                                                   Segment part 2 (?FLOAT_ADD_SUB)

    -------------------------------------------------------------------------
  LIBRARY MODULE, NAME : ?__INIT_NEAR_I

  SEGMENTS IN THE MODULE
  ======================
NEAR_I
  Relative segment, address: 000F9F22, align: 0
  Segment part 1. ROOT.
    -------------------------------------------------------------------------
NEAR_ID
  Relative segment, address: 00008784, align: 0
  Segment part 2. ROOT.
    -------------------------------------------------------------------------
RCODE
  Relative segment, address: 00000271 - 0000028A (0x1a bytes), align: 0
  Segment part 3.
           ENTRY                   ADDRESS         REF BY
           =====                   =======         ======
           __INIT_NEAR_I           00000271        G_CharHeight (lcd)
                                                   G_CharWidth (lcd)
                                                   SPI_CS_Pin (RDKRL78_spi)
                                                   SPI_CS_Port (RDKRL78_spi)
                                                   Segment part 10 (?xprintflarge_nomb)
                                                   Segment part 12 (?xprintflarge_nomb)
                                                   Segment part 2 (?xprintflarge_nomb)
                                                   Segment part 4 (?xprintflarge_nomb)
                                                   Segment part 6 (?xprintflarge_nomb)
                                                   Segment part 8 (?xprintflarge_nomb)

    -------------------------------------------------------------------------
  LIBRARY MODULE, NAME : ?__MAIN_CALL

  SEGMENTS IN THE MODULE
  ======================
RCODE
  Relative segment, address: 0000028B - 00000290 (0x6 bytes), align: 0
  Segment part 1.
           ENTRY                   ADDRESS         REF BY
           =====                   =======         ======
           @cend                   00000291 
           __MAIN_CALL             0000028B        Segment part 3 (?CSTARTUP)

    -------------------------------------------------------------------------
  LIBRARY MODULE, NAME : ?div

  SEGMENTS IN THE MODULE
  ======================
CODE
  Relative segment, address: 00007666 - 00007681 (0x1c bytes), align: 0
  Segment part 2.
           ENTRY                   ADDRESS         REF BY
           =====                   =======         ======
           div                     00007666        _GenldLargeNoMb (?xprintflarge_nomb)
               CSTACK = 00000000 ( 00000006 )

    -------------------------------------------------------------------------
  LIBRARY MODULE, NAME : ?exit

  SEGMENTS IN THE MODULE
  ======================
CODE
  Relative segment, address: 00007682 - 00007684 (0x3 bytes), align: 0
  Segment part 2.
           ENTRY                   ADDRESS         REF BY
           =====                   =======         ======
           exit                    00007682        Segment part 1 (?__MAIN_CALL)
               calls direct

    -------------------------------------------------------------------------
  LIBRARY MODULE, NAME : ?FLOAT_ADD_SUB

  SEGMENTS IN THE MODULE
  ======================
__aseg
  Relative segment, address: 00000000, align: 0
  Segment part 1. ROOT.
    -------------------------------------------------------------------------
RCODE
  Relative segment, address: 00000291 - 000004EC (0x25c bytes), align: 0
  Segment part 2.
           ENTRY                   ADDRESS         REF BY
           =====                   =======         ======
           ?F_ADD                  000002D2        LCDDrawDialBackground (skumar15_graphics)
                                                   TestMyCode (skumar15_graphics)
           ?F_SUB                  000003F1        LCDDrawDialBackground (skumar15_graphics)
                                                   TestMyCode (skumar15_graphics)
                                                   _LdtobLargeNoMb (?xprintflarge_nomb)

    -------------------------------------------------------------------------
  LIBRARY MODULE, NAME : ?FCMP_GE

  SEGMENTS IN THE MODULE
  ======================
__aseg
  Relative segment, address: 00000000, align: 0
  Segment part 1. ROOT.
    -------------------------------------------------------------------------
RCODE
  Relative segment, address: 000004ED - 00000534 (0x48 bytes), align: 0
  Segment part 2.
           ENTRY                   ADDRESS         REF BY
           =====                   =======         ======
           ?FCMP_EQ                000004ED 
           ?FCMP_GE                000004ED        LCDDrawDialBackground (skumar15_graphics)
                                                   TestMyCode (skumar15_graphics)

    -------------------------------------------------------------------------
  LIBRARY MODULE, NAME : ?FCMP_LT

  SEGMENTS IN THE MODULE
  ======================
__aseg
  Relative segment, address: 00000000, align: 0
  Segment part 1. ROOT.
    -------------------------------------------------------------------------
RCODE
  Relative segment, address: 00000535 - 00000581 (0x4d bytes), align: 0
  Segment part 2.
           ENTRY                   ADDRESS         REF BY
           =====                   =======         ======
           ?FCMP_LT                00000535        LCDDrawDialBackground (skumar15_graphics)
                                                   TestMyCode (skumar15_graphics)
                                                   _LdtobLargeNoMb (?xprintflarge_nomb)

    -------------------------------------------------------------------------
  LIBRARY MODULE, NAME : ?FLOAT_DIV

  SEGMENTS IN THE MODULE
  ======================
__aseg
  Relative segment, address: 00000000, align: 0
  Segment part 1. ROOT.
    -------------------------------------------------------------------------
RCODE
  Relative segment, address: 00000582 - 000006F9 (0x178 bytes), align: 0
  Segment part 2.
           ENTRY                   ADDRESS         REF BY
           =====                   =======         ======
           ?F_DIV                  000005EB        _LdtobLargeNoMb (?xprintflarge_nomb)

    -------------------------------------------------------------------------
  LIBRARY MODULE, NAME : ?FLOAT_2_SIGNED_LONG

  SEGMENTS IN THE MODULE
  ======================
__aseg
  Relative segment, address: 00000000, align: 0
  Segment part 1. ROOT.
    -------------------------------------------------------------------------
RCODE
  Relative segment, address: 000006FA - 00000764 (0x6b bytes), align: 0
  Segment part 2.
           ENTRY                   ADDRESS         REF BY
           =====                   =======         ======
           ?F_F2SL                 000006FA        LCDDrawDialBackground (skumar15_graphics)
                                                   TestMyCode (skumar15_graphics)
           ?F_F2UL                 000006FA        _LdtobLargeNoMb (?xprintflarge_nomb)

    -------------------------------------------------------------------------
  LIBRARY MODULE, NAME : ?SIGNED_LONG_2_FLOAT

  SEGMENTS IN THE MODULE
  ======================
__aseg
  Relative segment, address: 00000000, align: 0
  Segment part 1. ROOT.
    -------------------------------------------------------------------------
RCODE
  Relative segment, address: 00000765 - 00000778 (0x14 bytes), align: 0
  Segment part 2.
           ENTRY                   ADDRESS         REF BY
           =====                   =======         ======
           ?F_SL2F                 00000765        LCDDrawDialBackground (skumar15_graphics)
    -------------------------------------------------------------------------
RCODE
  Relative segment, address: 00000779 - 000007CD (0x55 bytes), align: 0
  Segment part 3.             Intra module refs:   ?F_SL2F
           ENTRY                   ADDRESS         REF BY
           =====                   =======         ======
           ?F_UL2F                 00000779        _LdtobLargeNoMb (?xprintflarge_nomb)

    -------------------------------------------------------------------------
  LIBRARY MODULE, NAME : ?SUBN_ARG

  SEGMENTS IN THE MODULE
  ======================
__aseg
  Relative segment, address: 00000000, align: 0
  Segment part 1. ROOT.
    -------------------------------------------------------------------------
RCODE
  Relative segment, address: 000007CE - 000007D8 (0xb bytes), align: 0
  Segment part 2.
           ENTRY                   ADDRESS         REF BY
           =====                   =======         ======
           __iar_norm_arg          000007CE        ?F_DIV (?FLOAT_DIV)
                                                   ?F_MUL (?FLOAT_MUL)
                                                   Segment part 2 (?FLOAT_ADD_SUB)

    -------------------------------------------------------------------------
  LIBRARY MODULE, NAME : ?FLOAT_MUL

  SEGMENTS IN THE MODULE
  ======================
__aseg
  Relative segment, address: 00000000, align: 0
  Segment part 1. ROOT.
    -------------------------------------------------------------------------
RCODE
  Relative segment, address: 000007D9 - 0000092D (0x155 bytes), align: 0
  Segment part 2.
           ENTRY                   ADDRESS         REF BY
           =====                   =======         ======
           ?F_MUL                  00000840        LCDDrawDialBackground (skumar15_graphics)
                                                   TestMyCode (skumar15_graphics)
                                                   _LdtobLargeNoMb (?xprintflarge_nomb)
                                                   scale (?xprintflarge_nomb)

    -------------------------------------------------------------------------
  PROGRAM MODULE, NAME : m_fcom5

  SEGMENTS IN THE MODULE
  ======================
__aseg
  Relative segment, address: 00000000, align: 0
  Segment part 1. ROOT.

    -------------------------------------------------------------------------
  LIBRARY MODULE, NAME : ?CLRL78_V1_0_L00

Absolute parts
           ENTRY                   ADDRESS         REF BY
           =====                   =======         ======
           ?CLRL78_V1_0_L00        FFFFFFFF        ?Subroutine0 (RDKRL78_spi)
                                                   ?Subroutine0 (ST7579_LCD)
                                                   ?Subroutine0 (YRDKRL78_LCD)
                                                   ?Subroutine0 (fbuf_graphics)
                                                   ?Subroutine0 (glyph)
                                                   ?Subroutine0 (lcd)
                                                   ?Subroutine0 (r_cg_serial)
                                                   ?Subroutine0 (r_systeminit)
                                                   Disable_Profiling (profile)
                                                   DrawNeedleFiller (skumar15_graphics)
                                                   Enable_Profiling (profile)
                                                   FBG_InitFB (fbuf_graphics)
                                                   FBG_RefreshLCD_BG (fbuf_graphics)
                                                   FBG_RefreshLCD_FG (fbuf_graphics)
                                                   FBG_SetPixel (fbuf_graphics)
                                                   GlyphClearScreen (glyph)
                                                   GlyphCommOpen (glyph_register)
                                                   GlyphLCDOpen (glyph_register)
                                                   GlyphNormalScreen (glyph)
                                                   GlyphOpen (glyph)
                                                   GlyphSetFont (glyph)
                                                   GlyphSetXY (glyph)
                                                   GlyphString (glyph)
                                                   Init_Profiling (profile)
                                                   LCDClearScreen (lcd)
                                                   LCDDrawDialBackground (skumar15_graphics)
                                                   LCDFont (lcd)
                                                   LCDInit (lcd)
                                                   LCDPrintf (lcd)
                                                   LCDString (lcd)
                                                   LoadInt (?xprintflarge_nomb)
                                                   Print_Results (profile)
                                                   R_ADC_Create (r_cg_adc)
                                                   R_CGC_Create (r_cg_cgc)
                                                   R_CSI21_Create (r_cg_serial)
                                                   R_CSI21_Send_Receive (r_cg_serial)
                                                   R_CSI21_Start (r_cg_serial)
                                                   R_IT_Create (r_cg_it)
                                                   R_IT_Start (r_cg_it)
                                                   R_PORT_Create (r_cg_port)
                                                   R_SAU1_Create (r_cg_serial)
                                                   R_TAU0_Channel0_Start (r_cg_timer)
                                                   R_TAU0_Create (r_cg_timer)
                                                   SPI_Init (RDKRL78_spi)
                                                   SPI_Send (RDKRL78_spi)
                                                   ST7579_Close (ST7579_LCD)
                                                   ST7579_Open (ST7579_LCD)
                                                   ST7579_Read (ST7579_LCD)
                                                   ST7579_Write (ST7579_LCD)
                                                   Segment part 12 (?xxmemxmalloc)
                                                   Segment part 15 (?xprintflarge_nomb)
                                                   Segment part 16 (?xprintflarge_nomb)
                                                   Segment part 17 (?xprintflarge_nomb)
                                                   Segment part 19 (?xprintflarge_nomb)
                                                   Segment part 22 (?xprintflarge_nomb)
                                                   Segment part 23 (?xprintflarge_nomb)
                                                   Segment part 26 (?xprintflarge_nomb)
                                                   Segment part 27 (?xprintflarge_nomb)
                                                   Segment part 29 (?xprintflarge_nomb)
                                                   Segment part 30 (?xprintflarge_nomb)
                                                   Segment part 30 (glyph)
                                                   Segment part 31 (glyph)
                                                   TestMyCode (skumar15_graphics)
                                                   YRDKRL78_CommandSend (YRDKRL78_LCD)
                                                   YRDKRL78_DataSend (YRDKRL78_LCD)
                                                   YRDKRL78_RSPIOpen (YRDKRL78_LCD)
                                                   _GenldLargeNoMb (?xprintflarge_nomb)
                                                   _LdtobLargeNoMb (?xprintflarge_nomb)
                                                   _LitobLargeNoMb (?xprintflarge_nomb)
                                                   _PrintfLargeNoMb (?xprintflarge_nomb)
                                                   _PutcharLargeNoMb (?xprintflarge_nomb)
                                                   _PutcharsLargeNoMb (?xprintflarge_nomb)
                                                   _SProut (?xsprout)
                                                   __DebugBreak (?__dbg_break)
                                                   __exit (?__exit)
                                                   __iar_Dnorm (?xdnorm)
                                                   __iar_Dunscale (?xdunscal)
                                                   __iar_Memchr (?memchr)
                                                   __iar_Strchr (?strchr)
                                                   __low_level_init (r_systeminit)
                                                   __near_GetMemChunk (?xgetmemchunk)
                                                   __near_findmem (?xxmemxmalloc)
                                                   __near_free (?xxmemxfree)
                                                   __near_malloc (?xxmemxmalloc)
                                                   div (?div)
                                                   exit (?exit)
                                                   main (r_main)
                                                   pad (?xprintflarge_nomb)
                                                   r_adc_interrupt (r_cg_adc_user)
                                                   r_csi21_interrupt (r_cg_serial_user)
                                                   r_it_interrupt (r_cg_it_user)
                                                   r_tau0_channel0_interrupt (r_cg_timer_user)
                                                   scale (?xprintflarge_nomb)
                                                   strlen (?strlen)
                                                   tick_timer_intr (rtc_sched)
                                                   vsprintf (?vsprintf)
  SEGMENTS IN THE MODULE
  ======================
__aseg
  Relative segment, address: 00000000, align: 0
  Segment part 1. ROOT.

    -------------------------------------------------------------------------
  LIBRARY MODULE, NAME : ?INT_LSH_L02

  SEGMENTS IN THE MODULE
  ======================
__aseg
  Relative segment, address: 00000000, align: 0
  Segment part 1. ROOT.
    -------------------------------------------------------------------------
RCODE
  Relative segment, address: 0000092E - 00000939 (0xc bytes), align: 0
  Segment part 2.
           ENTRY                   ADDRESS         REF BY
           =====                   =======         ======
           ?I_LSH_L02              0000092E        SPI_Send (RDKRL78_spi)
                                                   ST7579_Write (ST7579_LCD)

    -------------------------------------------------------------------------
  LIBRARY MODULE, NAME : ?SINT_RSH_L02

  SEGMENTS IN THE MODULE
  ======================
__aseg
  Relative segment, address: 00000000, align: 0
  Segment part 1. ROOT.
    -------------------------------------------------------------------------
RCODE
  Relative segment, address: 0000093A - 00000946 (0xd bytes), align: 0
  Segment part 2.
           ENTRY                   ADDRESS         REF BY
           =====                   =======         ======
           ?SI_RSH_L02             0000093A        ST7579_Write (ST7579_LCD)

    -------------------------------------------------------------------------
  LIBRARY MODULE, NAME : ?SINT_CMP_L02

  SEGMENTS IN THE MODULE
  ======================
__aseg
  Relative segment, address: 00000000, align: 0
  Segment part 1. ROOT.
    -------------------------------------------------------------------------
RCODE
  Relative segment, address: 00000947 - 00000952 (0xc bytes), align: 0
  Segment part 2.
           ENTRY                   ADDRESS         REF BY
           =====                   =======         ======
           ?SI_CMP_L02             00000947        DrawNeedleFiller (skumar15_graphics)
                                                   LCDDrawDialBackground (skumar15_graphics)
                                                   TestMyCode (skumar15_graphics)
                                                   _GenldLargeNoMb (?xprintflarge_nomb)
                                                   _LdtobLargeNoMb (?xprintflarge_nomb)
                                                   _LitobLargeNoMb (?xprintflarge_nomb)
                                                   pad (?xprintflarge_nomb)

    -------------------------------------------------------------------------
  LIBRARY MODULE, NAME : ?SLONG_CMP_L03

  SEGMENTS IN THE MODULE
  ======================
__aseg
  Relative segment, address: 00000000, align: 0
  Segment part 1. ROOT.
    -------------------------------------------------------------------------
RCODE
  Relative segment, address: 00000953 - 00000985 (0x33 bytes), align: 0
  Segment part 2.
           ENTRY                   ADDRESS         REF BY
           =====                   =======         ======
           ?SL_CMP_L03             00000953        _LitobLargeNoMb (?xprintflarge_nomb)
                                                   _PrintfLargeNoMb (?xprintflarge_nomb)

    -------------------------------------------------------------------------
  LIBRARY MODULE, NAME : ?ULONG_CMP_L03

  SEGMENTS IN THE MODULE
  ======================
__aseg
  Relative segment, address: 00000000, align: 0
  Segment part 1. ROOT.

    -------------------------------------------------------------------------
  LIBRARY MODULE, NAME : ?LONG_NEG_L03

  SEGMENTS IN THE MODULE
  ======================
__aseg
  Relative segment, address: 00000000, align: 0
  Segment part 1. ROOT.
    -------------------------------------------------------------------------
RCODE
  Relative segment, address: 00000986 - 000009A4 (0x1f bytes), align: 0
  Segment part 2.
           ENTRY                   ADDRESS         REF BY
           =====                   =======         ======
           ?L_NEG_L03              00000986        _LitobLargeNoMb (?xprintflarge_nomb)

    -------------------------------------------------------------------------
  LIBRARY MODULE, NAME : ?FLOAT_NEG_L04

  SEGMENTS IN THE MODULE
  ======================
__aseg
  Relative segment, address: 00000000, align: 0
  Segment part 1. ROOT.
    -------------------------------------------------------------------------
RCODE
  Relative segment, address: 000009A5 - 000009CD (0x29 bytes), align: 0
  Segment part 2.
           ENTRY                   ADDRESS         REF BY
           =====                   =======         ======
           ?F_NEG_L04              000009A5        _LdtobLargeNoMb (?xprintflarge_nomb)

    -------------------------------------------------------------------------
  LIBRARY MODULE, NAME : ?FUNCTION_LEAVE_L06

  SEGMENTS IN THE MODULE
  ======================
__aseg
  Relative segment, address: 00000000, align: 0
  Segment part 1. ROOT.
    -------------------------------------------------------------------------
RCODE
  Relative segment, address: 000009CE - 000009ED (0x20 bytes), align: 0
  Segment part 2.
           ENTRY                   ADDRESS         REF BY
           =====                   =======         ======
           ?0SFUNC_LEAVE_L06       000009CE 
           ?FUNC_LEAVE_L06         000009CE        ?Subroutine0 (RDKRL78_spi)
                                                   DrawNeedleFiller (skumar15_graphics)
                                                   Segment part 15 (?xprintflarge_nomb)
                                                   _GenldLargeNoMb (?xprintflarge_nomb)
    -------------------------------------------------------------------------
RCODE
  Relative segment, address: 000009EE - 000009FF (0x12 bytes), align: 0
  Segment part 3.             Intra module refs:   Segment part 2
           ENTRY                   ADDRESS         REF BY
           =====                   =======         ======
           ?0EFUNC_LEAVE_L06       000009FF 
           ?1SFUNC_LEAVE_L06       000009EE 

    -------------------------------------------------------------------------
  LIBRARY MODULE, NAME : ?MOVE_LONG_OBJECT_L06

  SEGMENTS IN THE MODULE
  ======================
__aseg
  Relative segment, address: 00000000, align: 0
  Segment part 1. ROOT.
    -------------------------------------------------------------------------
RCODE
  Relative segment, address: 00000A00 - 00000A31 (0x32 bytes), align: 0
  Segment part 2.
           ENTRY                   ADDRESS         REF BY
           =====                   =======         ======
           ?0EMOVE_LONG_L06        00000A31 
           ?0SMOVE_LONG_L06        00000A00 
           ?1SMOVE_LONG_L06        00000A10 
           ?2SMOVE_LONG_L06        00000A1F 
           ?3SMOVE_LONG_L06        00000A23 
           ?4SMOVE_LONG_L06        00000A2F 
           ?MOVE_LONG_L06          00000A00        Segment part 3 (?FUNCTION_LEAVE_L06)
                                                   TestMyCode (skumar15_graphics)

    -------------------------------------------------------------------------
  LIBRARY MODULE, NAME : ?LONG_FLOAT_DEALLOC_L06

  SEGMENTS IN THE MODULE
  ======================
__aseg
  Relative segment, address: 00000000, align: 0
  Segment part 1. ROOT.
    -------------------------------------------------------------------------
RCODE
  Relative segment, address: 00000A32 - 00000A48 (0x17 bytes), align: 0
  Segment part 3.
           ENTRY                   ADDRESS         REF BY
           =====                   =======         ======
           ?0EL_F_DEALLOC_L06      00000A48 
           ?0EL_F_DEALLOC_STAT_L06
                                   00000A48 
           ?0SL_F_DEALLOC_STAT_L06
                                   00000A32 
           ?L_F_DEALLOC_STAT_L06   00000A32        ?SL_CMP_L03 (?SLONG_CMP_L03)

    -------------------------------------------------------------------------
  LIBRARY MODULE, NAME : ?WRKSEG_DEFINE_L09

  SEGMENTS IN THE MODULE
  ======================
__aseg
  Relative segment, address: 00000000, align: 0
  Segment part 1. ROOT.
    -------------------------------------------------------------------------
WRKSEG
  Relative segment, address: 000FFE20, align: 1
  Segment part 2.             Intra module refs:   __WRKSEG_0
           ENTRY                   ADDRESS         REF BY
           =====                   =======         ======
           ?WRKSEG_START           000FFE20        ?F_DIV (?FLOAT_DIV)
                                                   ?F_MUL (?FLOAT_MUL)
                                                   Segment part 2 (?FLOAT_2_SIGNED_LONG)
                                                   Segment part 2 (?FLOAT_ADD_SUB)
    -------------------------------------------------------------------------
WRKSEG
  Relative segment, address: 000FFE20 - 000FFE20 (0x1 bytes), align: 0
  Segment part 3.             Intra module refs:   __WRKSEG_1
           ENTRY                   ADDRESS         REF BY
           =====                   =======         ======
           __WRKSEG_0              000FFE20 
    -------------------------------------------------------------------------
WRKSEG
  Relative segment, address: 000FFE21 - 000FFE21 (0x1 bytes), align: 0
  Segment part 4.             Intra module refs:   __WRKSEG_2
           ENTRY                   ADDRESS         REF BY
           =====                   =======         ======
           __WRKSEG_1              000FFE21 
    -------------------------------------------------------------------------
WRKSEG
  Relative segment, address: 000FFE22 - 000FFE22 (0x1 bytes), align: 0
  Segment part 5.             Intra module refs:   __WRKSEG_3
           ENTRY                   ADDRESS         REF BY
           =====                   =======         ======
           __WRKSEG_2              000FFE22 
    -------------------------------------------------------------------------
WRKSEG
  Relative segment, address: 000FFE23 - 000FFE23 (0x1 bytes), align: 0
  Segment part 6.             Intra module refs:   __WRKSEG_4
           ENTRY                   ADDRESS         REF BY
           =====                   =======         ======
           __WRKSEG_3              000FFE23 
    -------------------------------------------------------------------------
WRKSEG
  Relative segment, address: 000FFE24 - 000FFE24 (0x1 bytes), align: 0
  Segment part 7.             Intra module refs:   __WRKSEG_5
           ENTRY                   ADDRESS         REF BY
           =====                   =======         ======
           __WRKSEG_4              000FFE24        ?F_MUL (?FLOAT_MUL)
                                                   ?F_SL2F (?SIGNED_LONG_2_FLOAT)
                                                   ?F_UL2F (?SIGNED_LONG_2_FLOAT)
                                                   Segment part 2 (?FLOAT_2_SIGNED_LONG)
    -------------------------------------------------------------------------
WRKSEG
  Relative segment, address: 000FFE25 - 000FFE25 (0x1 bytes), align: 0
  Segment part 8.             Intra module refs:   __WRKSEG_6
           ENTRY                   ADDRESS         REF BY
           =====                   =======         ======
           __WRKSEG_5              000FFE25 
    -------------------------------------------------------------------------
WRKSEG
  Relative segment, address: 000FFE26 - 000FFE26 (0x1 bytes), align: 0
  Segment part 9.             Intra module refs:   __WRKSEG_7
           ENTRY                   ADDRESS         REF BY
           =====                   =======         ======
           __WRKSEG_6              000FFE26 
    -------------------------------------------------------------------------
WRKSEG
  Relative segment, address: 000FFE27 - 000FFE27 (0x1 bytes), align: 0
  Segment part 10.            Intra module refs:   __WRKSEG_8
           ENTRY                   ADDRESS         REF BY
           =====                   =======         ======
           __WRKSEG_7              000FFE27 
    -------------------------------------------------------------------------
WRKSEG
  Relative segment, address: 000FFE28 - 000FFE28 (0x1 bytes), align: 0
  Segment part 11.
           ENTRY                   ADDRESS         REF BY
           =====                   =======         ======
           __WRKSEG_8              000FFE28        ?F_DIV (?FLOAT_DIV)
                                                   Segment part 2 (?FLOAT_ADD_SUB)

    -------------------------------------------------------------------------
  LIBRARY MODULE, NAME : ?MEMCPY_NEAR

  SEGMENTS IN THE MODULE
  ======================
__aseg
  Relative segment, address: 00000000, align: 0
  Segment part 1. ROOT.
    -------------------------------------------------------------------------
RCODE
  Relative segment, address: 00000A49 - 00000A54 (0xc bytes), align: 0
  Segment part 2.
           ENTRY                   ADDRESS         REF BY
           =====                   =======         ======
           ?MEMCPY_NEAR            00000A4F        _GenldLargeNoMb (?xprintflarge_nomb)

    -------------------------------------------------------------------------
  LIBRARY MODULE, NAME : ?MEMCPY_SMALL_NEAR

  SEGMENTS IN THE MODULE
  ======================
__aseg
  Relative segment, address: 00000000, align: 0
  Segment part 1. ROOT.
    -------------------------------------------------------------------------
RCODE
  Relative segment, address: 00000A55 - 00000A5C (0x8 bytes), align: 0
  Segment part 2.
           ENTRY                   ADDRESS         REF BY
           =====                   =======         ======
           ?MEMCPY_SMALL_NEAR      00000A55        _LdtobLargeNoMb (?xprintflarge_nomb)

    -------------------------------------------------------------------------
  PROGRAM MODULE, NAME : m_fcom6

  SEGMENTS IN THE MODULE
  ======================
__aseg
  Relative segment, address: 00000000, align: 0
  Segment part 1. ROOT.

    -------------------------------------------------------------------------
  LIBRARY MODULE, NAME : ?memchr

  SEGMENTS IN THE MODULE
  ======================
CODE
  Relative segment, address: 00007685 - 00007699 (0x15 bytes), align: 0
  Segment part 3.
           ENTRY                   ADDRESS         REF BY
           =====                   =======         ======
           __iar_Memchr            00007685        _PrintfLargeNoMb (?xprintflarge_nomb)

    -------------------------------------------------------------------------
  LIBRARY MODULE, NAME : ?strchr

  SEGMENTS IN THE MODULE
  ======================
CODE
  Relative segment, address: 0000769A - 000076A9 (0x10 bytes), align: 0
  Segment part 3.
           ENTRY                   ADDRESS         REF BY
           =====                   =======         ======
           __iar_Strchr            0000769A        _PrintfLargeNoMb (?xprintflarge_nomb)

    -------------------------------------------------------------------------
  LIBRARY MODULE, NAME : ?strlen

  SEGMENTS IN THE MODULE
  ======================
CODE
  Relative segment, address: 000076AA - 000076B7 (0xe bytes), align: 0
  Segment part 2.
           ENTRY                   ADDRESS         REF BY
           =====                   =======         ======
           strlen                  000076AA        ?Subroutine0 (lcd)
                                                   LCDPrintf (lcd)
                                                   _PrintfLargeNoMb (?xprintflarge_nomb)
               CSTACK = 00000000 ( 00000002 )

    -------------------------------------------------------------------------
  LIBRARY MODULE, NAME : ?vsprintf

  SEGMENTS IN THE MODULE
  ======================
CODE
  Relative segment, address: 000076B8 - 000076E1 (0x2a bytes), align: 0
  Segment part 2.
           ENTRY                   ADDRESS         REF BY
           =====                   =======         ======
           vsprintf                000076B8        LCDPrintf (lcd)
               calls direct
               CSTACK = 00000000 ( 00000008 )

    -------------------------------------------------------------------------
  LIBRARY MODULE, NAME : ?xdnorm

  SEGMENTS IN THE MODULE
  ======================
CODE
  Relative segment, address: 000076E2 - 0000773B (0x5a bytes), align: 0
  Segment part 2.
           ENTRY                   ADDRESS         REF BY
           =====                   =======         ======
           __iar_Dnorm             000076E2        __iar_Dunscale (?xdunscal)
               CSTACK = 00000000 ( 0000000A )

    -------------------------------------------------------------------------
  LIBRARY MODULE, NAME : ?xdunscal

  SEGMENTS IN THE MODULE
  ======================
CODE
  Relative segment, address: 0000773C - 00007791 (0x56 bytes), align: 0
  Segment part 2.
           ENTRY                   ADDRESS         REF BY
           =====                   =======         ======
           __iar_Dunscale          0000773C        _LdtobLargeNoMb (?xprintflarge_nomb)
               calls direct
               CSTACK = 00000000 ( 00000006 )

    -------------------------------------------------------------------------
  LIBRARY MODULE, NAME : ?xgetmemchunk

  SEGMENTS IN THE MODULE
  ======================
CODE
  Relative segment, address: 00007792 - 000077AF (0x1e bytes), align: 0
  Segment part 4.
           ENTRY                   ADDRESS         REF BY
           =====                   =======         ======
           __near_GetMemChunk      00007792        __near_findmem (?xxmemxmalloc)
    -------------------------------------------------------------------------
NEAR_Z
  Relative segment, address: 000FCF34 - 000FCF35 (0x2 bytes), align: 1
  Segment part 2.             Intra module refs:   __near_GetMemChunk
    -------------------------------------------------------------------------
NEAR_HEAP
  Relative segment, address: 000FCF3E, align: 1
  Segment part 9.

    -------------------------------------------------------------------------
  LIBRARY MODULE, NAME : ?xprintflarge_nomb

  SEGMENTS IN THE MODULE
  ======================
CODE
  Relative segment, address: 000077B0 - 00007CCC (0x51d bytes), align: 0
  Segment part 14.
           ENTRY                   ADDRESS         REF BY
           =====                   =======         ======
           _PrintfLargeNoMb        000077B0        vsprintf (?vsprintf)
               calls direct
               CSTACK = 00000002 ( 0000006A )
    -------------------------------------------------------------------------
CODE
  Relative segment, address: 00007CCD - 00007CD1 (0x5 bytes), align: 0
  Segment part 15.            Intra module refs:   _PrintfLargeNoMb
                                                   _PutcharsLargeNoMb
                                                   pad
    -------------------------------------------------------------------------
CODE
  Relative segment, address: 00007CD2 - 00007CD7 (0x6 bytes), align: 0
  Segment part 16.            Intra module refs:   _PrintfLargeNoMb
    -------------------------------------------------------------------------
CODE
  Relative segment, address: 00007CD8 - 00007CDD (0x6 bytes), align: 0
  Segment part 17.            Intra module refs:   _PrintfLargeNoMb
    -------------------------------------------------------------------------
CODE
  Relative segment, address: 00007CDE - 00007D21 (0x44 bytes), align: 0
  Segment part 18.            Intra module refs:   _PrintfLargeNoMb
           LOCAL                   ADDRESS         
           =====                   =======         
           LoadInt                 00007CDE 
               CSTACK = 00000000 ( 00000002 )
    -------------------------------------------------------------------------
CODE
  Relative segment, address: 00007D22 - 00007D28 (0x7 bytes), align: 0
  Segment part 19.            Intra module refs:   LoadInt
    -------------------------------------------------------------------------
CODE
  Relative segment, address: 00007D29 - 00007D58 (0x30 bytes), align: 0
  Segment part 20.            Intra module refs:   _PrintfLargeNoMb
           LOCAL                   ADDRESS         
           =====                   =======         
           pad                     00007D29 
               calls direct
               CSTACK = 00000002 ( 0000000A )
    -------------------------------------------------------------------------
CODE
  Relative segment, address: 00007D59 - 00007ED5 (0x17d bytes), align: 0
  Segment part 21.            Intra module refs:   _PrintfLargeNoMb
           LOCAL                   ADDRESS         
           =====                   =======         
           _LitobLargeNoMb         00007D59 
               CSTACK = 00000000 ( 0000001A )
    -------------------------------------------------------------------------
CODE
  Relative segment, address: 00007ED6 - 00007ED6 (0x1 bytes), align: 0
  Segment part 22.            Intra module refs:   _GenldLargeNoMb
                                                   _LitobLargeNoMb
    -------------------------------------------------------------------------
CODE
  Relative segment, address: 00007ED7 - 00007EDB (0x5 bytes), align: 0
  Segment part 23.            Intra module refs:   Segment part 22
                                                   _GenldLargeNoMb
                                                   _LitobLargeNoMb
                                                   _PrintfLargeNoMb
    -------------------------------------------------------------------------
CODE
  Relative segment, address: 00007EDC - 00007F2F (0x54 bytes), align: 0
  Segment part 24.            Intra module refs:   _LdtobLargeNoMb
           LOCAL                   ADDRESS         
           =====                   =======         
           scale                   00007EDC 
               CSTACK = 00000000 ( 0000000E )
    -------------------------------------------------------------------------
CODE
  Relative segment, address: 00007F30 - 00008196 (0x267 bytes), align: 0
  Segment part 25.            Intra module refs:   _PrintfLargeNoMb
           LOCAL                   ADDRESS         
           =====                   =======         
           _LdtobLargeNoMb         00007F30 
               calls direct
               CSTACK = 00000000 ( 0000004C )
    -------------------------------------------------------------------------
CODE
  Relative segment, address: 00008197 - 0000819C (0x6 bytes), align: 0
  Segment part 26.            Intra module refs:   _GenldLargeNoMb
                                                   _LdtobLargeNoMb
                                                   _LitobLargeNoMb
    -------------------------------------------------------------------------
CODE
  Relative segment, address: 0000819D - 000081A3 (0x7 bytes), align: 0
  Segment part 27.            Intra module refs:   _GenldLargeNoMb
                                                   _LdtobLargeNoMb
                                                   _PrintfLargeNoMb
    -------------------------------------------------------------------------
CODE
  Relative segment, address: 000081A4 - 00008543 (0x3a0 bytes), align: 0
  Segment part 28.            Intra module refs:   _LdtobLargeNoMb
           LOCAL                   ADDRESS         
           =====                   =======         
           _GenldLargeNoMb         000081A4 
               calls direct
               CSTACK = 00000004 ( 00000020 )
    -------------------------------------------------------------------------
CODE
  Relative segment, address: 00008544 - 0000854C (0x9 bytes), align: 0
  Segment part 29.            Intra module refs:   _GenldLargeNoMb
    -------------------------------------------------------------------------
CODE
  Relative segment, address: 0000854D - 00008555 (0x9 bytes), align: 0
  Segment part 30.            Intra module refs:   _GenldLargeNoMb
    -------------------------------------------------------------------------
CODE
  Relative segment, address: 00008556 - 00008579 (0x24 bytes), align: 0
  Segment part 31.            Intra module refs:   _PrintfLargeNoMb
                                                   _PutcharsLargeNoMb
           LOCAL                   ADDRESS         
           =====                   =======         
           _PutcharLargeNoMb       00008556 
               calls indirect
               CSTACK = 00000000 ( 00000004 )
    -------------------------------------------------------------------------
CODE
  Relative segment, address: 0000857A - 000085A7 (0x2e bytes), align: 0
  Segment part 32.            Intra module refs:   _PrintfLargeNoMb
                                                   pad
           LOCAL                   ADDRESS         
           =====                   =======         
           _PutcharsLargeNoMb      0000857A 
               calls direct
               CSTACK = 00000002 ( 00000006 )
    -------------------------------------------------------------------------
NEAR_ID
  Relative segment, address: 00008768 - 0000876F (0x8 bytes), align: 1
  Segment part 3.             Intra module refs:   Segment part 2
    -------------------------------------------------------------------------
NEAR_ID
  Relative segment, address: 00008770 - 00008773 (0x4 bytes), align: 1
  Segment part 5.             Intra module refs:   Segment part 4
    -------------------------------------------------------------------------
NEAR_ID
  Relative segment, address: 00008774 - 00008777 (0x4 bytes), align: 1
  Segment part 7.             Intra module refs:   Segment part 6
    -------------------------------------------------------------------------
NEAR_ID
  Relative segment, address: 00008778 - 0000877B (0x4 bytes), align: 1
  Segment part 9.             Intra module refs:   Segment part 8
    -------------------------------------------------------------------------
NEAR_ID
  Relative segment, address: 0000877C - 0000877F (0x4 bytes), align: 1
  Segment part 11.            Intra module refs:   Segment part 10
    -------------------------------------------------------------------------
NEAR_ID
  Relative segment, address: 00008780 - 00008781 (0x2 bytes), align: 1
  Segment part 13.            Intra module refs:   Segment part 12
    -------------------------------------------------------------------------
NEAR_I
  Relative segment, address: 000F9F06 - 000F9F0D (0x8 bytes), align: 1
  Segment part 2.             Intra module refs:   _PrintfLargeNoMb
    -------------------------------------------------------------------------
NEAR_I
  Relative segment, address: 000F9F0E - 000F9F11 (0x4 bytes), align: 1
  Segment part 4.             Intra module refs:   _LdtobLargeNoMb
    -------------------------------------------------------------------------
NEAR_I
  Relative segment, address: 000F9F12 - 000F9F15 (0x4 bytes), align: 1
  Segment part 6.             Intra module refs:   _LdtobLargeNoMb
    -------------------------------------------------------------------------
NEAR_I
  Relative segment, address: 000F9F16 - 000F9F19 (0x4 bytes), align: 1
  Segment part 8.             Intra module refs:   _LdtobLargeNoMb
    -------------------------------------------------------------------------
NEAR_I
  Relative segment, address: 000F9F1A - 000F9F1D (0x4 bytes), align: 1
  Segment part 10.            Intra module refs:   _LdtobLargeNoMb
    -------------------------------------------------------------------------
NEAR_I
  Relative segment, address: 000F9F1E - 000F9F1F (0x2 bytes), align: 1
  Segment part 12.            Intra module refs:   _GenldLargeNoMb

    -------------------------------------------------------------------------
  LIBRARY MODULE, NAME : ?xsprout

  SEGMENTS IN THE MODULE
  ======================
CODE
  Relative segment, address: 000085A8 - 000085B3 (0xc bytes), align: 0
  Segment part 2.
           ENTRY                   ADDRESS         REF BY
           =====                   =======         ======
           _SProut                 000085A8        vsprintf (?vsprintf)
               CSTACK = 00000000 ( 00000002 )

    -------------------------------------------------------------------------
  LIBRARY MODULE, NAME : ?xxmemxfree

  SEGMENTS IN THE MODULE
  ======================
CODE
  Relative segment, address: 000085B4 - 00008672 (0xbf bytes), align: 0
  Segment part 2.
           ENTRY                   ADDRESS         REF BY
           =====                   =======         ======
           __near_free             000085B4        __near_findmem (?xxmemxmalloc)
               CSTACK = 00000000 ( 0000000A )

    -------------------------------------------------------------------------
  LIBRARY MODULE, NAME : ?xxmemxmalloc

  SEGMENTS IN THE MODULE
  ======================
NEAR_Z
  Relative segment, address: 000FCF36 - 000FCF39 (0x4 bytes), align: 1
  Segment part 2.             Intra module refs:   __near_findmem
                                                   __near_malloc
           ENTRY                   ADDRESS         REF BY
           =====                   =======         ======
           __near_Aldata           000FCF36        __near_free (?xxmemxfree)
    -------------------------------------------------------------------------
CODE
  Relative segment, address: 00008673 - 000086D5 (0x63 bytes), align: 0
  Segment part 4.             Intra module refs:   __near_malloc
           LOCAL                   ADDRESS         
           =====                   =======         
           __near_findmem          00008673 
               calls direct
               CSTACK = 00000000 ( 00000006 )
    -------------------------------------------------------------------------
CODE
  Relative segment, address: 000086D6 - 00008757 (0x82 bytes), align: 0
  Segment part 8.
           ENTRY                   ADDRESS         REF BY
           =====                   =======         ======
           __near_malloc           000086D6        GlyphOpen (glyph)
               calls direct
               CSTACK = 00000000 ( 00000008 )
    -------------------------------------------------------------------------
CODE
  Relative segment, address: 00008758 - 00008760 (0x9 bytes), align: 0
  Segment part 12.            Intra module refs:   __near_malloc




                ****************************************
                *                                      *
                *            MODULE SUMMARY            *
                *                                      *
                ****************************************

Module                     CODE      DATA       CONST
------                     ----      ----       -----
                          (Rel)   (Rel)  (Abs)  (Rel)
?CSTARTUP                    47
  + common                    2
?FCMP_GE                     72
?FCMP_LT                     77
?FLOAT_2_SIGNED_LONG        107
?FLOAT_ADD_SUB              604
?FLOAT_DIV                  376
?FLOAT_MUL                  341
?FLOAT_NEG_L04               41
?FUNCTION_LEAVE_L06          50
?INT_LSH_L02                 12
?LONG_FLOAT_DEALLOC_L06      23
?LONG_NEG_L03                31
?MEMCPY_NEAR                 12
?MEMCPY_SMALL_NEAR            8
?MOVE_LONG_OBJECT_L06        50
?SIGNED_LONG_2_FLOAT        105
?SINT_CMP_L02                12
?SINT_RSH_L02                13
?SLONG_CMP_L03               51
?SUBN_ARG                    11
?WRKSEG_DEFINE_L09                    9
?__INIT_NEAR_I               26
?__INIT_NEAR_Z               19
?__INIT_WRKSEG               11
?__MAIN_CALL                  6
?__dbg_break                  3
?__exit                      16
?_exit                        5
?div                         28
?exit                         3
?memchr                      21
?strchr                      16
?strlen                      14
?vsprintf                    42
?xdnorm                      90
?xdunscal                    86
?xgetmemchunk                30       2
?xprintflarge_nomb        3 576      26            26
?xsprout                     12
?xxmemxfree                 191
?xxmemxmalloc               238       4
RDKRL78_spi                 267       6             6
  + shared                                   2
ST7579_LCD                3 626
YRDKRL78_LCD                 40
__HWSDIV_16_16_16            65
__HWSDIV_32_32_32           173
__HWSMOD_16_16_16            63
__HWSxxx_32_32_32            23
fbuf_graphics               648   9 984
font_8x8                          3 072         3 072
font_x5x7                         1 528         1 528
glyph                       256
glyph_register              101
lcd                         225       4             2
profile                     261      71            60
r_cg_adc                     89             14
  + shared                                  13
r_cg_adc_user                 2
  + common                   54
r_cg_cgc                     42              4
r_cg_it                      39              2
r_cg_it_user                 15
  + common                   58
r_cg_port                    51              8
  + shared                                   3
r_cg_serial                 205       8     16
  + shared                                  11
r_cg_serial_user            128       2      2
  + common                   24
r_cg_timer                   93             14
r_cg_timer_user              97
  + common                   46
r_main                      190      20  1 024     20
r_systeminit                 46              5
region                            2 048         1 862
rtc_sched                   104     103
skumar15_graphics         4 950
N/A (command line)                  768
N/A (alignment)               3  -6 542
----------               ------  ------  -----  -----
Total:                   18 278  11 113  1 118  6 576
  + common                   58


                ****************************************
                *                                      *
                *      SEGMENTS IN ADDRESS ORDER       *
                *                                      *
                ****************************************


SEGMENT              SPACE    START ADDRESS   END ADDRESS     SIZE  TYPE  ALIGN
=======              =====    =============   ===========     ====  ====  =====
__aseg                                  00000000                     rel    0
INTVEC                             00000000 - 00000039          3A   com    1
OPTBYTE                            000000C0 - 000000C3           4   rel    0
SECUID                             000000C4 - 000000CD           A   rel    1
RCODE                              000000D8 - 00000A5C         985   rel    1
NEAR_CONST_ID                      00003000 - 0000498D        198E   rel    1
CODE                               0000498E - 00008760        3DD3   rel    0
NEAR_ID                            00008762 - 00008783          22   rel    1
NEAR_A                             000F0010 - 000F0012           3   rel    0
                                   000F0060 - 000F0060           1 
                                   000F006A - 000F006A           1 
                                   000F006C - 000F006C           1 
                                   000F006E - 000F006E           1 
                                   000F0076 - 000F0079           4 
                                   000F007B - 000F007B           1 
                                   000F00F0 - 000F00F0           1 
                                   000F00F3 - 000F00F3           1 
                                   000F0142 - 000F0143           2 
                                   000F014A - 000F014B           2 
                                   000F0152 - 000F0153           2 
                                   000F015A - 000F015B           2 
                                   000F0162 - 000F016B           A 
                                   000F0190 - 000F0191           2 
                                   000F01B2 - 000F01BB           A 
                                   000F02F0 - 000F02F0           1 
NEAR_CONST                         000F3000 - 000F498D        198E   rel    1
NEAR_I                             000F9F00 - 000F9F21          22   rel    1
NEAR_A                             000FA300 - 000FA6FF         400   rel    0
NEAR_Z                             000FA700 - 000FCF3D        283E   rel    1
FAR_Z                                   000FCF3E                     rel    0
NEAR_HEAP                          000FCF3E - 000FD03D         100   rel    1
CSTACK                             000FD03E - 000FD23D         200   rel    1
WRKSEG                             000FFE20 - 000FFE28           9   rel    1
SADDR_A                            000FFF00 - 000FFF01           2   rel    0
                                   000FFF04 - 000FFF04           1 
                                   000FFF06 - 000FFF07           2 
                                   000FFF0A - 000FFF0A           1 
                                   000FFF0D - 000FFF0F           3 
                                   000FFF18 - 000FFF19           2 
                                   000FFF1E - 000FFF1F           2 
NEAR_A                             000FFF20 - 000FFF22           3   rel    0
                                   000FFF24 - 000FFF24           1 
                                   000FFF26 - 000FFF27           2 
                                   000FFF2A - 000FFF2A           1 
                                   000FFF2C - 000FFF2C           1 
                                   000FFF2E - 000FFF32           5 
                                   000FFF4A - 000FFF4B           2 
                                   000FFF90 - 000FFF91           2 
                                   000FFFA0 - 000FFFA1           2 
                                   000FFFA4 - 000FFFA4           1 
NEAR_A                             000FFFE0 - 000FFFEF          10   rel    0

                ****************************************
                *                                      *
                *        END OF CROSS REFERENCE        *
                *                                      *
                ****************************************

 18 336 bytes of CODE  memory
 11 113 bytes of DATA  memory (+ 1 118 absolute )
  6 576 bytes of CONST memory

Errors: none
Warnings: 1

