###############################################################################
#                                                                             #
# IAR C/C++ Compiler V1.30.5.50715 for RL78             17/Apr/2014  13:06:23 #
# Copyright 2011-2013 IAR Systems AB.                                         #
# Network license: ece-lic-19.ece.ncsu.edu (STD)                              #
#                                                                             #
#    Core         =  rl78_2                                                   #
#    Code model   =  Near                                                     #
#    Data model   =  Near                                                     #
#                 =                                                           #
#    Source file  =  D:\NCSU\Courses\ECE 561 Embedded System Design\Project   #
#                    3\Project3\Project3\Project3Code\user_src\skumar15_graph #
#                    ics.c                                                    #
#    Command line =  "D:\NCSU\Courses\ECE 561 Embedded System Design\Project  #
#                    3\Project3\Project3\Project3Code\user_src\skumar15_graph #
#                    ics.c" --core rl78_2 --code_model near --data_model      #
#                    near --near_const_location rom0 -o "D:\NCSU\Courses\ECE  #
#                    561 Embedded System Design\Project                       #
#                    3\Project3\Project3\Project3Code\Debug\Obj\"             #
#                    --dlib_config "C:\Program Files (x86)\IAR                #
#                    Systems\Embedded Workbench 6.5\rl78\LIB\dlrl78nn2n.h"    #
#                    -e -Ohs --no_crosscall --debug -lCN                      #
#                    "D:\NCSU\Courses\ECE 561 Embedded System Design\Project  #
#                    3\Project3\Project3\Project3Code\Debug\List\" -I         #
#                    "D:\NCSU\Courses\ECE 561 Embedded System Design\Project  #
#                    3\Project3\Project3\Project3Code/applilet3_src/\" -I     #
#                    "D:\NCSU\Courses\ECE 561 Embedded System Design\Project  #
#                    3\Project3\Project3\Project3Code/Glyph/\" -I             #
#                    "D:\NCSU\Courses\ECE 561 Embedded System Design\Project  #
#                    3\Project3\Project3\Project3Code/Glyph/Drivers/\" -I     #
#                    "D:\NCSU\Courses\ECE 561 Embedded System Design\Project  #
#                    3\Project3\Project3\Project3Code/user_include/\" -I      #
#                    "D:\NCSU\Courses\ECE 561 Embedded System Design\Project  #
#                    3\Project3\Project3\Project3Code/RTC/\"                  #
#                    --no_size_constraints                                    #
#    List file    =  D:\NCSU\Courses\ECE 561 Embedded System Design\Project   #
#                    3\Project3\Project3\Project3Code\Debug\List\skumar15_gra #
#                    phics.lst                                                #
#    Object file  =  D:\NCSU\Courses\ECE 561 Embedded System Design\Project   #
#                    3\Project3\Project3\Project3Code\Debug\Obj\skumar15_grap #
#                    hics.r87                                                 #
#                                                                             #
#                                                                             #
###############################################################################

D:\NCSU\Courses\ECE 561 Embedded System Design\Project 3\Project3\Project3\Project3Code\user_src\skumar15_graphics.c
      1          #include "r_cg_macrodriver.h"
      2          #include "math.h"
      3          #include "r_cg_userdefine.h"
      4          #include "lcd.h"
      5          #include "YRDKRL78_LCD.h"
      6          #include "fbuf_graphics.h"
      7          
      8          #define PI      3.14159265359
      9          #define PIx2 6.28318531
     10          #define PIby2   1.57079632
     11          #define PIby180 0.01745329251
     12          #define cos1_5    0.99965732497
     13          #define sin1_5   0.0261769483
     14          #define ABS(a) ((a)<0?-(a):a)
     15          #define fac_1 1
     16          #define fac_2 2
     17          #define fac_3 6
     18          #define fac_4 24
     19          #define fac_5 120
     20          #define fac_6 720
     21          #define fac_7 5040
     22          #define fac_8 40320
     23          #define fac_9 362880
     24          #define fac_10 3628800
     25          
     26          #define FILLEDNEEDLE 
     27          
     28          void LCDDrawDialNeedle(float);
     29          void DrawNeedleFiller(PointT, PointT, PointT, uint8_t);
     30          

   \                                 In  segment CODE, align 1, keep-with-next
     31          float taylor_sin(float x)
   \                     taylor_sin:
     32          {
   \   000000 C3                    PUSH      BC                 ;; 1 cycle
   \   000001 C1                    PUSH      AX                 ;; 1 cycle
     33            float sin;
     34          if (x < -PI)
   \   000002 3049C0                MOVW      AX, #0xC049        ;; 1 cycle
   \   000005 C1                    PUSH      AX                 ;; 1 cycle
   \   000006 30DB0F                MOVW      AX, #0xFDB         ;; 1 cycle
   \   000009 C1                    PUSH      AX                 ;; 1 cycle
   \   00000A A804                  MOVW      AX, [SP+0x04]      ;; 1 cycle
   \   00000C                       ; * Stack frame (at entry) *
   \   00000C                       ; Param size: 0
   \   00000C                       ; Auto size: 4
   \   00000C FD....                CALL      N:?FCMP_LT         ;; 3 cycles
   \   00000F 1004                  ADDW      SP, #0x4           ;; 1 cycle
   \   000011 DE05                  BNC       ??TestMyCode_0     ;; 4 cycles
   \   000013                       ; ------------------------------------- Block: 15 cycles
     35              x += PIx2;
   \   000013 30C940                MOVW      AX, #0x40C9        ;; 1 cycle
   \   000016 EF14                  BR        S:??TestMyCode_1   ;; 3 cycles
   \   000018                       ; ------------------------------------- Block: 4 cycles
     36          else if (x >  PI)
   \                     ??TestMyCode_0:
   \   000018 304940                MOVW      AX, #0x4049        ;; 1 cycle
   \   00001B C1                    PUSH      AX                 ;; 1 cycle
   \   00001C 30DC0F                MOVW      AX, #0xFDC         ;; 1 cycle
   \   00001F C1                    PUSH      AX                 ;; 1 cycle
   \   000020 A804                  MOVW      AX, [SP+0x04]      ;; 1 cycle
   \   000022 FD....                CALL      N:?FCMP_GE         ;; 3 cycles
   \   000025 1004                  ADDW      SP, #0x4           ;; 1 cycle
   \   000027 DC14                  BC        ??TestMyCode_2     ;; 4 cycles
   \   000029                       ; ------------------------------------- Block: 13 cycles
     37              x -= PIx2;
   \   000029 30C9C0                MOVW      AX, #0xC0C9        ;; 1 cycle
   \   00002C                       ; ------------------------------------- Block: 1 cycles
   \                     ??TestMyCode_1:
   \   00002C C1                    PUSH      AX                 ;; 1 cycle
   \   00002D 30DB0F                MOVW      AX, #0xFDB         ;; 1 cycle
   \   000030 C1                    PUSH      AX                 ;; 1 cycle
   \   000031 A804                  MOVW      AX, [SP+0x04]      ;; 1 cycle
   \   000033 FD....                CALL      N:?F_ADD           ;; 3 cycles
   \   000036 1004                  ADDW      SP, #0x4           ;; 1 cycle
   \   000038 B800                  MOVW      [SP], AX           ;; 1 cycle
   \   00003A 13                    MOVW      AX, BC             ;; 1 cycle
   \   00003B B802                  MOVW      [SP+0x02], AX      ;; 1 cycle
   \   00003D                       ; ------------------------------------- Block: 11 cycles
     38          // Quadratic Approximation
     39          // sin = (4/pi *x + 4/pi^2 *x)
     40          if (x < 0)
   \                     ??TestMyCode_2:
   \   00003D F6                    CLRW      AX                 ;; 1 cycle
   \   00003E C1                    PUSH      AX                 ;; 1 cycle
   \   00003F C1                    PUSH      AX                 ;; 1 cycle
   \   000040 A806                  MOVW      AX, [SP+0x06]      ;; 1 cycle
   \   000042 12                    MOVW      BC, AX             ;; 1 cycle
   \   000043 A804                  MOVW      AX, [SP+0x04]      ;; 1 cycle
   \   000045 FD....                CALL      N:?FCMP_LT         ;; 3 cycles
   \   000048 1004                  ADDW      SP, #0x4           ;; 1 cycle
   \   00004A DE2F                  BNC       ??TestMyCode_3     ;; 4 cycles
   \   00004C                       ; ------------------------------------- Block: 14 cycles
     41              sin = (1.27323954* x + .405284735 * x * x);
   \   00004C C3                    PUSH      BC                 ;; 1 cycle
   \   00004D C1                    PUSH      AX                 ;; 1 cycle
   \   00004E 30CF3E                MOVW      AX, #0x3ECF        ;; 1 cycle
   \   000051 C1                    PUSH      AX                 ;; 1 cycle
   \   000052 307B81                MOVW      AX, #0x817B        ;; 1 cycle
   \   000055 C1                    PUSH      AX                 ;; 1 cycle
   \   000056 A808                  MOVW      AX, [SP+0x08]      ;; 1 cycle
   \   000058 FD....                CALL      N:?F_MUL           ;; 3 cycles
   \   00005B 1004                  ADDW      SP, #0x4           ;; 1 cycle
   \   00005D FD....                CALL      N:?F_MUL           ;; 3 cycles
   \   000060 1004                  ADDW      SP, #0x4           ;; 1 cycle
   \   000062 C3                    PUSH      BC                 ;; 1 cycle
   \   000063 C1                    PUSH      AX                 ;; 1 cycle
   \   000064 30A23F                MOVW      AX, #0x3FA2        ;; 1 cycle
   \   000067 C1                    PUSH      AX                 ;; 1 cycle
   \   000068 3083F9                MOVW      AX, #0xF983        ;; 1 cycle
   \   00006B C1                    PUSH      AX                 ;; 1 cycle
   \   00006C A80A                  MOVW      AX, [SP+0x0A]      ;; 1 cycle
   \   00006E 12                    MOVW      BC, AX             ;; 1 cycle
   \   00006F A808                  MOVW      AX, [SP+0x08]      ;; 1 cycle
   \   000071 FD....                CALL      N:?F_MUL           ;; 3 cycles
   \   000074 1004                  ADDW      SP, #0x4           ;; 1 cycle
   \   000076 FD....                CALL      N:?F_ADD           ;; 3 cycles
   \   000079 EF2D                  BR        S:??TestMyCode_4   ;; 3 cycles
   \   00007B                       ; ------------------------------------- Block: 34 cycles
     42          else
     43              sin = (1.27323954* x - 0.405284735 * x * x);
   \                     ??TestMyCode_3:
   \   00007B C3                    PUSH      BC                 ;; 1 cycle
   \   00007C C1                    PUSH      AX                 ;; 1 cycle
   \   00007D 30CF3E                MOVW      AX, #0x3ECF        ;; 1 cycle
   \   000080 C1                    PUSH      AX                 ;; 1 cycle
   \   000081 307B81                MOVW      AX, #0x817B        ;; 1 cycle
   \   000084 C1                    PUSH      AX                 ;; 1 cycle
   \   000085 A808                  MOVW      AX, [SP+0x08]      ;; 1 cycle
   \   000087 FD....                CALL      N:?F_MUL           ;; 3 cycles
   \   00008A 1004                  ADDW      SP, #0x4           ;; 1 cycle
   \   00008C FD....                CALL      N:?F_MUL           ;; 3 cycles
   \   00008F 1004                  ADDW      SP, #0x4           ;; 1 cycle
   \   000091 C3                    PUSH      BC                 ;; 1 cycle
   \   000092 C1                    PUSH      AX                 ;; 1 cycle
   \   000093 30A23F                MOVW      AX, #0x3FA2        ;; 1 cycle
   \   000096 C1                    PUSH      AX                 ;; 1 cycle
   \   000097 3083F9                MOVW      AX, #0xF983        ;; 1 cycle
   \   00009A C1                    PUSH      AX                 ;; 1 cycle
   \   00009B A80A                  MOVW      AX, [SP+0x0A]      ;; 1 cycle
   \   00009D 12                    MOVW      BC, AX             ;; 1 cycle
   \   00009E A808                  MOVW      AX, [SP+0x08]      ;; 1 cycle
   \   0000A0 FD....                CALL      N:?F_MUL           ;; 3 cycles
   \   0000A3 1004                  ADDW      SP, #0x4           ;; 1 cycle
   \   0000A5 FD....                CALL      N:?F_SUB           ;; 3 cycles
   \   0000A8                       ; ------------------------------------- Block: 31 cycles
   \                     ??TestMyCode_4:
   \   0000A8 1004                  ADDW      SP, #0x4           ;; 1 cycle
     44          return(sin);
   \   0000AA 1004                  ADDW      SP, #0x4           ;; 1 cycle
   \   0000AC D7                    RET                          ;; 6 cycles
   \   0000AD                       ; ------------------------------------- Block: 8 cycles
   \   0000AD                       ; ------------------------------------- Total: 131 cycles
   \   0000AD                       REQUIRE ?CLRL78_V1_0_L00
     45          }
     46          

   \                                 In  segment CODE, align 1, keep-with-next
     47          float taylor_cos(float x)
   \                     taylor_cos:
     48          {
     49            float cos;
     50          x += PIby2; // cos is sin shifted by PIby2
   \   000000 36C93F                MOVW      HL, #0x3FC9        ;; 1 cycle
   \   000003 C7                    PUSH      HL                 ;; 1 cycle
   \   000004 36DB0F                MOVW      HL, #0xFDB         ;; 1 cycle
   \   000007 C7                    PUSH      HL                 ;; 1 cycle
   \   000008                       ; * Stack frame (at entry) *
   \   000008                       ; Param size: 0
   \   000008                       ; Auto size: 0
   \   000008 FD....                CALL      N:?F_ADD           ;; 3 cycles
     51          if (x >  PI)
   \   00000B 1004                  ADDW      SP, #0x4           ;; 1 cycle
   \   00000D 364940                MOVW      HL, #0x4049        ;; 1 cycle
   \   000010 C7                    PUSH      HL                 ;; 1 cycle
   \   000011 36DC0F                MOVW      HL, #0xFDC         ;; 1 cycle
   \   000014 C7                    PUSH      HL                 ;; 1 cycle
   \   000015 FD....                CALL      N:?FCMP_GE         ;; 3 cycles
   \   000018 1004                  ADDW      SP, #0x4           ;; 1 cycle
   \   00001A DC0D                  BC        ??TestMyCode_5     ;; 4 cycles
   \   00001C                       ; ------------------------------------- Block: 20 cycles
     52              x -= PIx2;
   \   00001C 36C9C0                MOVW      HL, #0xC0C9        ;; 1 cycle
   \   00001F C7                    PUSH      HL                 ;; 1 cycle
   \   000020 36DB0F                MOVW      HL, #0xFDB         ;; 1 cycle
   \   000023 C7                    PUSH      HL                 ;; 1 cycle
   \   000024 FD....                CALL      N:?F_ADD           ;; 3 cycles
   \   000027 1004                  ADDW      SP, #0x4           ;; 1 cycle
   \   000029                       ; ------------------------------------- Block: 8 cycles
     53          // Quadratic Approximation
     54          // cos = (4/pi *(x+pi/2) + 4/pi^2 *(x+pi/2)
     55          if (x < 0)
   \                     ??TestMyCode_5:
   \   000029 360000                MOVW      HL, #0x0           ;; 1 cycle
   \   00002C C7                    PUSH      HL                 ;; 1 cycle
   \   00002D C7                    PUSH      HL                 ;; 1 cycle
   \   00002E FD....                CALL      N:?FCMP_LT         ;; 3 cycles
   \   000031 1004                  ADDW      SP, #0x4           ;; 1 cycle
   \   000033 DE1C                  BNC       ??TestMyCode_6     ;; 4 cycles
   \   000035                       ; ------------------------------------- Block: 11 cycles
     56              cos = (1.27323954 + 0.405284735 * x) * x ;
   \   000035 C3                    PUSH      BC                 ;; 1 cycle
   \   000036 C1                    PUSH      AX                 ;; 1 cycle
   \   000037 36A23F                MOVW      HL, #0x3FA2        ;; 1 cycle
   \   00003A C7                    PUSH      HL                 ;; 1 cycle
   \   00003B 3683F9                MOVW      HL, #0xF983        ;; 1 cycle
   \   00003E C7                    PUSH      HL                 ;; 1 cycle
   \   00003F 36CF3E                MOVW      HL, #0x3ECF        ;; 1 cycle
   \   000042 C7                    PUSH      HL                 ;; 1 cycle
   \   000043 367B81                MOVW      HL, #0x817B        ;; 1 cycle
   \   000046 C7                    PUSH      HL                 ;; 1 cycle
   \   000047 FD....                CALL      N:?F_MUL           ;; 3 cycles
   \   00004A 1004                  ADDW      SP, #0x4           ;; 1 cycle
   \   00004C FD....                CALL      N:?F_ADD           ;; 3 cycles
   \   00004F EF1A                  BR        S:??TestMyCode_7   ;; 3 cycles
   \   000051                       ; ------------------------------------- Block: 20 cycles
     57          else
     58              cos = (1.27323954 - 0.405284735 * x) * x;
   \                     ??TestMyCode_6:
   \   000051 C3                    PUSH      BC                 ;; 1 cycle
   \   000052 C1                    PUSH      AX                 ;; 1 cycle
   \   000053 36CF3E                MOVW      HL, #0x3ECF        ;; 1 cycle
   \   000056 C7                    PUSH      HL                 ;; 1 cycle
   \   000057 367B81                MOVW      HL, #0x817B        ;; 1 cycle
   \   00005A C7                    PUSH      HL                 ;; 1 cycle
   \   00005B FD....                CALL      N:?F_MUL           ;; 3 cycles
   \   00005E 1004                  ADDW      SP, #0x4           ;; 1 cycle
   \   000060 C3                    PUSH      BC                 ;; 1 cycle
   \   000061 C1                    PUSH      AX                 ;; 1 cycle
   \   000062 3083F9                MOVW      AX, #0xF983        ;; 1 cycle
   \   000065 32A23F                MOVW      BC, #0x3FA2        ;; 1 cycle
   \   000068 FD....                CALL      N:?F_SUB           ;; 3 cycles
   \   00006B                       ; ------------------------------------- Block: 17 cycles
   \                     ??TestMyCode_7:
   \   00006B 1004                  ADDW      SP, #0x4           ;; 1 cycle
   \   00006D FD....                CALL      N:?F_MUL           ;; 3 cycles
   \   000070 1004                  ADDW      SP, #0x4           ;; 1 cycle
     59          
     60          return(cos);
   \   000072 D7                    RET                          ;; 6 cycles
   \   000073                       ; ------------------------------------- Block: 11 cycles
   \   000073                       ; ------------------------------------- Total: 87 cycles
   \   000073                       REQUIRE ?CLRL78_V1_0_L00
     61          }
     62          
     63          // Draw Line from p1 to p2
     64          

   \                                 In  segment CODE, align 1, keep-with-next
     65          void LCDDrawLine(PointT *p1,PointT *p2, int8_t color,int g)
   \                     LCDDrawLine:
     66           {
   \   000000 C5                    PUSH      DE                 ;; 1 cycle
   \   000001 C3                    PUSH      BC                 ;; 1 cycle
   \   000002 C5                    PUSH      DE                 ;; 1 cycle
   \   000003 14                    MOVW      DE, AX             ;; 1 cycle
   \   000004 2014                  SUBW      SP, #0x14          ;; 1 cycle
     67              int dx = p2->X - p1->X ;
   \   000006 89                    MOV       A, [DE]            ;; 1 cycle
   \   000007 72                    MOV       C, A               ;; 1 cycle
   \   000008 A816                  MOVW      AX, [SP+0x16]      ;; 1 cycle
   \   00000A 16                    MOVW      HL, AX             ;; 1 cycle
   \   00000B F3                    CLRB      B                  ;; 1 cycle
   \   00000C 8B                    MOV       A, [HL]            ;; 1 cycle
   \   00000D 70                    MOV       X, A               ;; 1 cycle
   \   00000E F1                    CLRB      A                  ;; 1 cycle
   \   00000F 23                    SUBW      AX, BC             ;; 1 cycle
     68              int dy = p2->Y - p1->Y ;
   \   000010 A7                    INCW      HL                 ;; 1 cycle
   \   000011 B802                  MOVW      [SP+0x02], AX      ;; 1 cycle
   \   000013 8A01                  MOV       A, [DE+0x01]       ;; 1 cycle
   \   000015 72                    MOV       C, A               ;; 1 cycle
   \   000016 8B                    MOV       A, [HL]            ;; 1 cycle
   \   000017 70                    MOV       X, A               ;; 1 cycle
   \   000018 F1                    CLRB      A                  ;; 1 cycle
   \   000019 23                    SUBW      AX, BC             ;; 1 cycle
   \   00001A 16                    MOVW      HL, AX             ;; 1 cycle
     69              int x1 = p1->X, y1 = p1->Y;
   \   00001B 89                    MOV       A, [DE]            ;; 1 cycle
   \   00001C 70                    MOV       X, A               ;; 1 cycle
   \   00001D F1                    CLRB      A                  ;; 1 cycle
   \   00001E B808                  MOVW      [SP+0x08], AX      ;; 1 cycle
   \   000020 8A01                  MOV       A, [DE+0x01]       ;; 1 cycle
   \   000022 70                    MOV       X, A               ;; 1 cycle
   \   000023 F1                    CLRB      A                  ;; 1 cycle
   \   000024 B806                  MOVW      [SP+0x06], AX      ;; 1 cycle
     70              int x_inc1=0, x_inc2=0, y_inc1=0, y_inc2=0;
   \   000026 F6                    CLRW      AX                 ;; 1 cycle
   \   000027 B812                  MOVW      [SP+0x12], AX      ;; 1 cycle
   \   000029 B80A                  MOVW      [SP+0x0A], AX      ;; 1 cycle
   \   00002B B810                  MOVW      [SP+0x10], AX      ;; 1 cycle
   \   00002D B80E                  MOVW      [SP+0x0E], AX      ;; 1 cycle
     71              if (dx<0) 
   \   00002F A802                  MOVW      AX, [SP+0x02]      ;; 1 cycle
   \   000031 317505                BF        A.7, ??TestMyCode_8  ;; 5 cycles
   \   000034                       ; ------------------------------------- Block: 42 cycles
   \   000034                       ; * Stack frame (at entry) *
   \   000034                       ; Param size: 2
   \   000034                       ; Auto size: 24
     72              {
     73                  x_inc1 = -1; 
   \   000034 30FFFF                MOVW      AX, #0xFFFF        ;; 1 cycle
   \   000037 EF08                  BR        S:??TestMyCode_9   ;; 3 cycles
   \   000039                       ; ------------------------------------- Block: 4 cycles
     74                  x_inc2 = -1;
     75              }
     76              else if (dx>0) 
   \                     ??TestMyCode_8:
   \   000039 7C80                  XOR       A, #0x80           ;; 1 cycle
   \   00003B 440180                CMPW      AX, #0x8001        ;; 1 cycle
   \   00003E DC05                  BC        ??TestMyCode_10    ;; 4 cycles
   \   000040                       ; ------------------------------------- Block: 6 cycles
     77              {
     78                  x_inc1 = 1;
   \   000040 E6                    ONEW      AX                 ;; 1 cycle
   \   000041                       ; ------------------------------------- Block: 1 cycles
   \                     ??TestMyCode_9:
   \   000041 B812                  MOVW      [SP+0x12], AX      ;; 1 cycle
     79                  x_inc2 = 1;
   \   000043 B80A                  MOVW      [SP+0x0A], AX      ;; 1 cycle
   \   000045                       ; ------------------------------------- Block: 2 cycles
     80              }
     81              else
     82              {
     83                  x_inc1 = 0;
     84                  x_inc2 = 0;
     85              }
     86              if (dy<0) 
   \                     ??TestMyCode_10:
   \   000045 17                    MOVW      AX, HL             ;; 1 cycle
   \   000046 317505                BF        A.7, ??TestMyCode_11  ;; 5 cycles
   \   000049                       ; ------------------------------------- Block: 6 cycles
     87                y_inc1 = -1;
   \   000049 30FFFF                MOVW      AX, #0xFFFF        ;; 1 cycle
   \   00004C EF08                  BR        S:??TestMyCode_12  ;; 3 cycles
   \   00004E                       ; ------------------------------------- Block: 4 cycles
     88              else if (dy>0) 
   \                     ??TestMyCode_11:
   \   00004E 7C80                  XOR       A, #0x80           ;; 1 cycle
   \   000050 440180                CMPW      AX, #0x8001        ;; 1 cycle
   \   000053 DC03                  BC        ??TestMyCode_13    ;; 4 cycles
   \   000055                       ; ------------------------------------- Block: 6 cycles
     89                y_inc1 = 1;
   \   000055 E6                    ONEW      AX                 ;; 1 cycle
   \   000056                       ; ------------------------------------- Block: 1 cycles
   \                     ??TestMyCode_12:
   \   000056 B810                  MOVW      [SP+0x10], AX      ;; 1 cycle
   \   000058                       ; ------------------------------------- Block: 1 cycles
     90              else
     91                y_inc1 = 0;
     92              
     93              int length = ABS(dx);
   \                     ??TestMyCode_13:
   \   000058 A802                  MOVW      AX, [SP+0x02]      ;; 1 cycle
   \   00005A 317507                BF        A.7, ??TestMyCode_14  ;; 5 cycles
   \   00005D                       ; ------------------------------------- Block: 6 cycles
   \   00005D 7CFF                  XOR       A, #0xFF           ;; 1 cycle
   \   00005F 08                    XCH       A, X               ;; 1 cycle
   \   000060 7CFF                  XOR       A, #0xFF           ;; 1 cycle
   \   000062 08                    XCH       A, X               ;; 1 cycle
   \   000063 A1                    INCW      AX                 ;; 1 cycle
   \   000064                       ; ------------------------------------- Block: 5 cycles
   \                     ??TestMyCode_14:
   \   000064 B800                  MOVW      [SP], AX           ;; 1 cycle
     94              int width = ABS(dy);
   \   000066 17                    MOVW      AX, HL             ;; 1 cycle
   \   000067 317507                BF        A.7, ??TestMyCode_15  ;; 5 cycles
   \   00006A                       ; ------------------------------------- Block: 7 cycles
   \   00006A 7CFF                  XOR       A, #0xFF           ;; 1 cycle
   \   00006C 08                    XCH       A, X               ;; 1 cycle
   \   00006D 7CFF                  XOR       A, #0xFF           ;; 1 cycle
   \   00006F 08                    XCH       A, X               ;; 1 cycle
   \   000070 A1                    INCW      AX                 ;; 1 cycle
   \   000071                       ; ------------------------------------- Block: 5 cycles
   \                     ??TestMyCode_15:
   \   000071 B804                  MOVW      [SP+0x04], AX      ;; 1 cycle
     95              if (length <= width) 
   \   000073 A800                  MOVW      AX, [SP]           ;; 1 cycle
   \   000075 12                    MOVW      BC, AX             ;; 1 cycle
   \   000076 A804                  MOVW      AX, [SP+0x04]      ;; 1 cycle
   \   000078 FD....                CALL      N:?SI_CMP_L02      ;; 3 cycles
   \   00007B DC26                  BC        ??TestMyCode_16    ;; 4 cycles
   \   00007D                       ; ------------------------------------- Block: 11 cycles
     96              {
     97                  length   = ABS(dy) ;
   \   00007D B800                  MOVW      [SP], AX           ;; 1 cycle
     98                  width    = ABS(dx) ;
   \   00007F A802                  MOVW      AX, [SP+0x02]      ;; 1 cycle
   \   000081 317507                BF        A.7, ??TestMyCode_17  ;; 5 cycles
   \   000084                       ; ------------------------------------- Block: 7 cycles
   \   000084 7CFF                  XOR       A, #0xFF           ;; 1 cycle
   \   000086 08                    XCH       A, X               ;; 1 cycle
   \   000087 7CFF                  XOR       A, #0xFF           ;; 1 cycle
   \   000089 08                    XCH       A, X               ;; 1 cycle
   \   00008A A1                    INCW      AX                 ;; 1 cycle
   \   00008B                       ; ------------------------------------- Block: 5 cycles
   \                     ??TestMyCode_17:
   \   00008B B804                  MOVW      [SP+0x04], AX      ;; 1 cycle
     99                  if (dy<0) 
   \   00008D 17                    MOVW      AX, HL             ;; 1 cycle
   \   00008E 317505                BF        A.7, ??TestMyCode_18  ;; 5 cycles
   \   000091                       ; ------------------------------------- Block: 7 cycles
    100                    y_inc2 = -1 ; 
   \   000091 30FFFF                MOVW      AX, #0xFFFF        ;; 1 cycle
   \   000094 EF08                  BR        S:??TestMyCode_19  ;; 3 cycles
   \   000096                       ; ------------------------------------- Block: 4 cycles
    101                  else if (dy>0) 
   \                     ??TestMyCode_18:
   \   000096 7C80                  XOR       A, #0x80           ;; 1 cycle
   \   000098 440180                CMPW      AX, #0x8001        ;; 1 cycle
   \   00009B DC03                  BC        ??TestMyCode_20    ;; 4 cycles
   \   00009D                       ; ------------------------------------- Block: 6 cycles
    102                    y_inc2 = 1 ;
   \   00009D E6                    ONEW      AX                 ;; 1 cycle
   \   00009E                       ; ------------------------------------- Block: 1 cycles
   \                     ??TestMyCode_19:
   \   00009E B80E                  MOVW      [SP+0x0E], AX      ;; 1 cycle
   \   0000A0                       ; ------------------------------------- Block: 1 cycles
    103                  else
    104                    y_inc2 = 0;
    105                  
    106                  x_inc2 = 0 ;            
   \                     ??TestMyCode_20:
   \   0000A0 F6                    CLRW      AX                 ;; 1 cycle
   \   0000A1 B80A                  MOVW      [SP+0x0A], AX      ;; 1 cycle
   \   0000A3                       ; ------------------------------------- Block: 2 cycles
    107              }
    108              int p = length >> 1 ;
   \                     ??TestMyCode_16:
   \   0000A3 A800                  MOVW      AX, [SP]           ;; 1 cycle
   \   0000A5 311F                  SARW      AX, 0x1            ;; 1 cycle
   \   0000A7 B802                  MOVW      [SP+0x02], AX      ;; 1 cycle
    109              for (int i=0;i<=length;i++) {
   \   0000A9 F6                    CLRW      AX                 ;; 1 cycle
   \   0000AA B80C                  MOVW      [SP+0x0C], AX      ;; 1 cycle
   \   0000AC A800                  MOVW      AX, [SP]           ;; 1 cycle
   \   0000AE 317353                BT        A.7, ??TestMyCode_21  ;; 5 cycles
   \   0000B1                       ; ------------------------------------- Block: 11 cycles
    110                  FBG_SetPixel(x1,y1,color,g) ;
   \                     ??LCDDrawLine_0:
   \   0000B1 A81E                  MOVW      AX, [SP+0x1E]      ;; 1 cycle
   \   0000B3 14                    MOVW      DE, AX             ;; 1 cycle
   \   0000B4 8815                  MOV       A, [SP+0x15]       ;; 1 cycle
   \   0000B6 72                    MOV       C, A               ;; 1 cycle
   \   0000B7 A806                  MOVW      AX, [SP+0x06]      ;; 1 cycle
   \   0000B9 60                    MOV       A, X               ;; 1 cycle
   \   0000BA 73                    MOV       B, A               ;; 1 cycle
   \   0000BB A808                  MOVW      AX, [SP+0x08]      ;; 1 cycle
   \   0000BD 60                    MOV       A, X               ;; 1 cycle
   \   0000BE FD....                CALL      FBG_SetPixel       ;; 3 cycles
    111                  p += width ;
   \   0000C1 A804                  MOVW      AX, [SP+0x04]      ;; 1 cycle
   \   0000C3 16                    MOVW      HL, AX             ;; 1 cycle
   \   0000C4 A802                  MOVW      AX, [SP+0x02]      ;; 1 cycle
   \   0000C6 07                    ADDW      AX, HL             ;; 1 cycle
   \   0000C7 B802                  MOVW      [SP+0x02], AX      ;; 1 cycle
    112                  if (p>=length) 
   \   0000C9 A800                  MOVW      AX, [SP]           ;; 1 cycle
   \   0000CB 12                    MOVW      BC, AX             ;; 1 cycle
   \   0000CC A802                  MOVW      AX, [SP+0x02]      ;; 1 cycle
   \   0000CE FD....                CALL      N:?SI_CMP_L02      ;; 3 cycles
   \   0000D1 DC14                  BC        ??TestMyCode_22    ;; 4 cycles
   \   0000D3                       ; ------------------------------------- Block: 27 cycles
    113                  {
    114                      p -= length ;
   \   0000D3 A800                  MOVW      AX, [SP]           ;; 1 cycle
   \   0000D5 16                    MOVW      HL, AX             ;; 1 cycle
   \   0000D6 A802                  MOVW      AX, [SP+0x02]      ;; 1 cycle
   \   0000D8 27                    SUBW      AX, HL             ;; 1 cycle
   \   0000D9 B802                  MOVW      [SP+0x02], AX      ;; 1 cycle
    115                      x1 += x_inc1 ;
   \   0000DB A812                  MOVW      AX, [SP+0x12]      ;; 1 cycle
   \   0000DD 16                    MOVW      HL, AX             ;; 1 cycle
   \   0000DE A808                  MOVW      AX, [SP+0x08]      ;; 1 cycle
   \   0000E0 07                    ADDW      AX, HL             ;; 1 cycle
   \   0000E1 B808                  MOVW      [SP+0x08], AX      ;; 1 cycle
    116                      y1 += y_inc1 ;
   \   0000E3 A810                  MOVW      AX, [SP+0x10]      ;; 1 cycle
   \   0000E5 EF0A                  BR        S:??TestMyCode_23  ;; 3 cycles
   \   0000E7                       ; ------------------------------------- Block: 14 cycles
    117                  } 
    118                  else 
    119                  {
    120                      x1 += x_inc2 ;
   \                     ??TestMyCode_22:
   \   0000E7 A80A                  MOVW      AX, [SP+0x0A]      ;; 1 cycle
   \   0000E9 16                    MOVW      HL, AX             ;; 1 cycle
   \   0000EA A808                  MOVW      AX, [SP+0x08]      ;; 1 cycle
   \   0000EC 07                    ADDW      AX, HL             ;; 1 cycle
   \   0000ED B808                  MOVW      [SP+0x08], AX      ;; 1 cycle
    121                      y1 += y_inc2 ;
   \   0000EF A80E                  MOVW      AX, [SP+0x0E]      ;; 1 cycle
   \   0000F1                       ; ------------------------------------- Block: 6 cycles
   \                     ??TestMyCode_23:
   \   0000F1 16                    MOVW      HL, AX             ;; 1 cycle
   \   0000F2 A806                  MOVW      AX, [SP+0x06]      ;; 1 cycle
   \   0000F4 07                    ADDW      AX, HL             ;; 1 cycle
   \   0000F5 B806                  MOVW      [SP+0x06], AX      ;; 1 cycle
    122                  }
    123              }
   \   0000F7 A80C                  MOVW      AX, [SP+0x0C]      ;; 1 cycle
   \   0000F9 A1                    INCW      AX                 ;; 1 cycle
   \   0000FA B80C                  MOVW      [SP+0x0C], AX      ;; 1 cycle
   \   0000FC 12                    MOVW      BC, AX             ;; 1 cycle
   \   0000FD A800                  MOVW      AX, [SP]           ;; 1 cycle
   \   0000FF FD....                CALL      N:?SI_CMP_L02      ;; 3 cycles
   \   000102 DEAD                  BNC       ??LCDDrawLine_0    ;; 4 cycles
   \   000104                       ; ------------------------------------- Block: 16 cycles
    124          
    125          }
   \                     ??TestMyCode_21:
   \   000104 1018                  ADDW      SP, #0x18          ;; 1 cycle
   \   000106 C4                    POP       DE                 ;; 1 cycle
   \   000107 FD....                CALL      N:?FUNC_LEAVE_L06
   \   00010A 0200                  DW        0x2                ;; 3 cycles
   \   00010C                       ; ------------------------------------- Block: 5 cycles
   \   00010C                       ; ------------------------------------- Total: 219 cycles
   \   00010C                       REQUIRE ?CLRL78_V1_0_L00
    126          
    127          // Draw the line from p1 to p2 but for only "steps" number of pixels

   \                                 In  segment CODE, align 1, keep-with-next
    128          void LCDDrawLineSteps(PointT *p1, PointT *p2, uint8_t color,int steps, int g)
   \                     LCDDrawLineSteps:
    129           {
   \   000000 C5                    PUSH      DE                 ;; 1 cycle
   \   000001 C3                    PUSH      BC                 ;; 1 cycle
   \   000002 C5                    PUSH      DE                 ;; 1 cycle
   \   000003 14                    MOVW      DE, AX             ;; 1 cycle
   \   000004 2014                  SUBW      SP, #0x14          ;; 1 cycle
    130              int dx = p2->X - p1->X ;
   \   000006 89                    MOV       A, [DE]            ;; 1 cycle
   \   000007 72                    MOV       C, A               ;; 1 cycle
   \   000008 A816                  MOVW      AX, [SP+0x16]      ;; 1 cycle
   \   00000A 16                    MOVW      HL, AX             ;; 1 cycle
   \   00000B F3                    CLRB      B                  ;; 1 cycle
   \   00000C 8B                    MOV       A, [HL]            ;; 1 cycle
   \   00000D 70                    MOV       X, A               ;; 1 cycle
   \   00000E F1                    CLRB      A                  ;; 1 cycle
   \   00000F 23                    SUBW      AX, BC             ;; 1 cycle
    131              int dy = p2->Y - p1->Y ;
   \   000010 A7                    INCW      HL                 ;; 1 cycle
   \   000011 B800                  MOVW      [SP], AX           ;; 1 cycle
   \   000013 8A01                  MOV       A, [DE+0x01]       ;; 1 cycle
   \   000015 72                    MOV       C, A               ;; 1 cycle
   \   000016 8B                    MOV       A, [HL]            ;; 1 cycle
   \   000017 70                    MOV       X, A               ;; 1 cycle
   \   000018 F1                    CLRB      A                  ;; 1 cycle
   \   000019 23                    SUBW      AX, BC             ;; 1 cycle
   \   00001A 16                    MOVW      HL, AX             ;; 1 cycle
    132              int x1 = p1->X, y1 = p1->Y;
   \   00001B 89                    MOV       A, [DE]            ;; 1 cycle
   \   00001C 70                    MOV       X, A               ;; 1 cycle
   \   00001D F1                    CLRB      A                  ;; 1 cycle
   \   00001E B808                  MOVW      [SP+0x08], AX      ;; 1 cycle
   \   000020 8A01                  MOV       A, [DE+0x01]       ;; 1 cycle
   \   000022 70                    MOV       X, A               ;; 1 cycle
   \   000023 F1                    CLRB      A                  ;; 1 cycle
   \   000024 B806                  MOVW      [SP+0x06], AX      ;; 1 cycle
    133              int x_inc1=0, x_inc2=0, y_inc1=0, y_inc2=0;
   \   000026 F6                    CLRW      AX                 ;; 1 cycle
   \   000027 B812                  MOVW      [SP+0x12], AX      ;; 1 cycle
   \   000029 B80A                  MOVW      [SP+0x0A], AX      ;; 1 cycle
   \   00002B B810                  MOVW      [SP+0x10], AX      ;; 1 cycle
   \   00002D B80E                  MOVW      [SP+0x0E], AX      ;; 1 cycle
    134              if (dx<0) 
   \   00002F A800                  MOVW      AX, [SP]           ;; 1 cycle
   \   000031 317505                BF        A.7, ??TestMyCode_24  ;; 5 cycles
   \   000034                       ; ------------------------------------- Block: 42 cycles
   \   000034                       ; * Stack frame (at entry) *
   \   000034                       ; Param size: 4
   \   000034                       ; Auto size: 24
    135              {
    136                  x_inc1 = -1; 
   \   000034 30FFFF                MOVW      AX, #0xFFFF        ;; 1 cycle
   \   000037 EF08                  BR        S:??TestMyCode_25  ;; 3 cycles
   \   000039                       ; ------------------------------------- Block: 4 cycles
    137                  x_inc2 = -1;
    138              }
    139              else if (dx>0) 
   \                     ??TestMyCode_24:
   \   000039 7C80                  XOR       A, #0x80           ;; 1 cycle
   \   00003B 440180                CMPW      AX, #0x8001        ;; 1 cycle
   \   00003E DC05                  BC        ??TestMyCode_26    ;; 4 cycles
   \   000040                       ; ------------------------------------- Block: 6 cycles
    140              {
    141                  x_inc1 = 1;
   \   000040 E6                    ONEW      AX                 ;; 1 cycle
   \   000041                       ; ------------------------------------- Block: 1 cycles
   \                     ??TestMyCode_25:
   \   000041 B812                  MOVW      [SP+0x12], AX      ;; 1 cycle
    142                  x_inc2 = 1;
   \   000043 B80A                  MOVW      [SP+0x0A], AX      ;; 1 cycle
   \   000045                       ; ------------------------------------- Block: 2 cycles
    143              }
    144              else
    145              {
    146                  x_inc1 = 0;
    147                  x_inc2 = 0;
    148              }
    149              if (dy<0) 
   \                     ??TestMyCode_26:
   \   000045 17                    MOVW      AX, HL             ;; 1 cycle
   \   000046 317505                BF        A.7, ??TestMyCode_27  ;; 5 cycles
   \   000049                       ; ------------------------------------- Block: 6 cycles
    150                y_inc1 = -1;
   \   000049 30FFFF                MOVW      AX, #0xFFFF        ;; 1 cycle
   \   00004C EF08                  BR        S:??TestMyCode_28  ;; 3 cycles
   \   00004E                       ; ------------------------------------- Block: 4 cycles
    151              else if (dy>0) 
   \                     ??TestMyCode_27:
   \   00004E 7C80                  XOR       A, #0x80           ;; 1 cycle
   \   000050 440180                CMPW      AX, #0x8001        ;; 1 cycle
   \   000053 DC03                  BC        ??TestMyCode_29    ;; 4 cycles
   \   000055                       ; ------------------------------------- Block: 6 cycles
    152                y_inc1 = 1;
   \   000055 E6                    ONEW      AX                 ;; 1 cycle
   \   000056                       ; ------------------------------------- Block: 1 cycles
   \                     ??TestMyCode_28:
   \   000056 B810                  MOVW      [SP+0x10], AX      ;; 1 cycle
   \   000058                       ; ------------------------------------- Block: 1 cycles
    153              else
    154                y_inc1 = 0;
    155              
    156              int length = ABS(dx);
   \                     ??TestMyCode_29:
   \   000058 A800                  MOVW      AX, [SP]           ;; 1 cycle
   \   00005A 317507                BF        A.7, ??TestMyCode_30  ;; 5 cycles
   \   00005D                       ; ------------------------------------- Block: 6 cycles
   \   00005D 7CFF                  XOR       A, #0xFF           ;; 1 cycle
   \   00005F 08                    XCH       A, X               ;; 1 cycle
   \   000060 7CFF                  XOR       A, #0xFF           ;; 1 cycle
   \   000062 08                    XCH       A, X               ;; 1 cycle
   \   000063 A1                    INCW      AX                 ;; 1 cycle
   \   000064                       ; ------------------------------------- Block: 5 cycles
   \                     ??TestMyCode_30:
   \   000064 B802                  MOVW      [SP+0x02], AX      ;; 1 cycle
    157              int width = ABS(dy);
   \   000066 17                    MOVW      AX, HL             ;; 1 cycle
   \   000067 317507                BF        A.7, ??TestMyCode_31  ;; 5 cycles
   \   00006A                       ; ------------------------------------- Block: 7 cycles
   \   00006A 7CFF                  XOR       A, #0xFF           ;; 1 cycle
   \   00006C 08                    XCH       A, X               ;; 1 cycle
   \   00006D 7CFF                  XOR       A, #0xFF           ;; 1 cycle
   \   00006F 08                    XCH       A, X               ;; 1 cycle
   \   000070 A1                    INCW      AX                 ;; 1 cycle
   \   000071                       ; ------------------------------------- Block: 5 cycles
   \                     ??TestMyCode_31:
   \   000071 B804                  MOVW      [SP+0x04], AX      ;; 1 cycle
    158              if (length <= width) 
   \   000073 A802                  MOVW      AX, [SP+0x02]      ;; 1 cycle
   \   000075 12                    MOVW      BC, AX             ;; 1 cycle
   \   000076 A804                  MOVW      AX, [SP+0x04]      ;; 1 cycle
   \   000078 FD....                CALL      N:?SI_CMP_L02      ;; 3 cycles
   \   00007B DC26                  BC        ??TestMyCode_32    ;; 4 cycles
   \   00007D                       ; ------------------------------------- Block: 11 cycles
    159              {
    160                  length   = ABS(dy) ;
   \   00007D B802                  MOVW      [SP+0x02], AX      ;; 1 cycle
    161                  width    = ABS(dx) ;
   \   00007F A800                  MOVW      AX, [SP]           ;; 1 cycle
   \   000081 317507                BF        A.7, ??TestMyCode_33  ;; 5 cycles
   \   000084                       ; ------------------------------------- Block: 7 cycles
   \   000084 7CFF                  XOR       A, #0xFF           ;; 1 cycle
   \   000086 08                    XCH       A, X               ;; 1 cycle
   \   000087 7CFF                  XOR       A, #0xFF           ;; 1 cycle
   \   000089 08                    XCH       A, X               ;; 1 cycle
   \   00008A A1                    INCW      AX                 ;; 1 cycle
   \   00008B                       ; ------------------------------------- Block: 5 cycles
   \                     ??TestMyCode_33:
   \   00008B B804                  MOVW      [SP+0x04], AX      ;; 1 cycle
    162                  if (dy<0) 
   \   00008D 17                    MOVW      AX, HL             ;; 1 cycle
   \   00008E 317505                BF        A.7, ??TestMyCode_34  ;; 5 cycles
   \   000091                       ; ------------------------------------- Block: 7 cycles
    163                    y_inc2 = -1 ; 
   \   000091 30FFFF                MOVW      AX, #0xFFFF        ;; 1 cycle
   \   000094 EF08                  BR        S:??TestMyCode_35  ;; 3 cycles
   \   000096                       ; ------------------------------------- Block: 4 cycles
    164                  else if (dy>0) 
   \                     ??TestMyCode_34:
   \   000096 7C80                  XOR       A, #0x80           ;; 1 cycle
   \   000098 440180                CMPW      AX, #0x8001        ;; 1 cycle
   \   00009B DC03                  BC        ??TestMyCode_36    ;; 4 cycles
   \   00009D                       ; ------------------------------------- Block: 6 cycles
    165                    y_inc2 = 1 ;
   \   00009D E6                    ONEW      AX                 ;; 1 cycle
   \   00009E                       ; ------------------------------------- Block: 1 cycles
   \                     ??TestMyCode_35:
   \   00009E B80E                  MOVW      [SP+0x0E], AX      ;; 1 cycle
   \   0000A0                       ; ------------------------------------- Block: 1 cycles
    166                  else
    167                    y_inc2 = 0;
    168                  
    169                  x_inc2 = 0 ;            
   \                     ??TestMyCode_36:
   \   0000A0 F6                    CLRW      AX                 ;; 1 cycle
   \   0000A1 B80A                  MOVW      [SP+0x0A], AX      ;; 1 cycle
   \   0000A3                       ; ------------------------------------- Block: 2 cycles
    170              }
    171              int p = length >> 1 ;
   \                     ??TestMyCode_32:
   \   0000A3 A802                  MOVW      AX, [SP+0x02]      ;; 1 cycle
   \   0000A5 311F                  SARW      AX, 0x1            ;; 1 cycle
   \   0000A7 B800                  MOVW      [SP], AX           ;; 1 cycle
    172              for (int i=0;i<=length;i++) {
   \   0000A9 F6                    CLRW      AX                 ;; 1 cycle
   \   0000AA EF06                  BR        S:??TestMyCode_37  ;; 3 cycles
   \   0000AC                       ; ------------------------------------- Block: 7 cycles
    173                  FBG_SetPixel(x1,y1,color,g) ;
    174                  p += width ;
    175                  if (p>=length) 
    176                  {
    177                      p -= length ;
    178                      x1 += x_inc1 ;
    179                      y1 += y_inc1 ;
    180                  } 
    181                  else 
    182                  {
    183                      x1 += x_inc2 ;
    184                      y1 += y_inc2 ;
    185                  }
    186                  if(steps == 0) break;
    187                    steps--;
   \                     ??LCDDrawLineSteps_0:
   \   0000AC B1                    DECW      AX                 ;; 1 cycle
   \   0000AD B81E                  MOVW      [SP+0x1E], AX      ;; 1 cycle
   \   0000AF A80C                  MOVW      AX, [SP+0x0C]      ;; 1 cycle
   \   0000B1 A1                    INCW      AX                 ;; 1 cycle
   \   0000B2                       ; ------------------------------------- Block: 4 cycles
   \                     ??TestMyCode_37:
   \   0000B2 B80C                  MOVW      [SP+0x0C], AX      ;; 1 cycle
   \   0000B4 12                    MOVW      BC, AX             ;; 1 cycle
   \   0000B5 A802                  MOVW      AX, [SP+0x02]      ;; 1 cycle
   \   0000B7 FD....                CALL      N:?SI_CMP_L02      ;; 3 cycles
   \   0000BA DC4D                  BC        ??TestMyCode_38    ;; 4 cycles
   \   0000BC                       ; ------------------------------------- Block: 10 cycles
   \   0000BC A820                  MOVW      AX, [SP+0x20]      ;; 1 cycle
   \   0000BE 14                    MOVW      DE, AX             ;; 1 cycle
   \   0000BF 8815                  MOV       A, [SP+0x15]       ;; 1 cycle
   \   0000C1 72                    MOV       C, A               ;; 1 cycle
   \   0000C2 A806                  MOVW      AX, [SP+0x06]      ;; 1 cycle
   \   0000C4 60                    MOV       A, X               ;; 1 cycle
   \   0000C5 73                    MOV       B, A               ;; 1 cycle
   \   0000C6 A808                  MOVW      AX, [SP+0x08]      ;; 1 cycle
   \   0000C8 60                    MOV       A, X               ;; 1 cycle
   \   0000C9 FD....                CALL      FBG_SetPixel       ;; 3 cycles
   \   0000CC A804                  MOVW      AX, [SP+0x04]      ;; 1 cycle
   \   0000CE 16                    MOVW      HL, AX             ;; 1 cycle
   \   0000CF A800                  MOVW      AX, [SP]           ;; 1 cycle
   \   0000D1 07                    ADDW      AX, HL             ;; 1 cycle
   \   0000D2 B800                  MOVW      [SP], AX           ;; 1 cycle
   \   0000D4 A802                  MOVW      AX, [SP+0x02]      ;; 1 cycle
   \   0000D6 12                    MOVW      BC, AX             ;; 1 cycle
   \   0000D7 A800                  MOVW      AX, [SP]           ;; 1 cycle
   \   0000D9 FD....                CALL      N:?SI_CMP_L02      ;; 3 cycles
   \   0000DC DC14                  BC        ??TestMyCode_39    ;; 4 cycles
   \   0000DE                       ; ------------------------------------- Block: 27 cycles
   \   0000DE A802                  MOVW      AX, [SP+0x02]      ;; 1 cycle
   \   0000E0 16                    MOVW      HL, AX             ;; 1 cycle
   \   0000E1 A800                  MOVW      AX, [SP]           ;; 1 cycle
   \   0000E3 27                    SUBW      AX, HL             ;; 1 cycle
   \   0000E4 B800                  MOVW      [SP], AX           ;; 1 cycle
   \   0000E6 A812                  MOVW      AX, [SP+0x12]      ;; 1 cycle
   \   0000E8 16                    MOVW      HL, AX             ;; 1 cycle
   \   0000E9 A808                  MOVW      AX, [SP+0x08]      ;; 1 cycle
   \   0000EB 07                    ADDW      AX, HL             ;; 1 cycle
   \   0000EC B808                  MOVW      [SP+0x08], AX      ;; 1 cycle
   \   0000EE A810                  MOVW      AX, [SP+0x10]      ;; 1 cycle
   \   0000F0 EF0A                  BR        S:??TestMyCode_40  ;; 3 cycles
   \   0000F2                       ; ------------------------------------- Block: 14 cycles
   \                     ??TestMyCode_39:
   \   0000F2 A80A                  MOVW      AX, [SP+0x0A]      ;; 1 cycle
   \   0000F4 16                    MOVW      HL, AX             ;; 1 cycle
   \   0000F5 A808                  MOVW      AX, [SP+0x08]      ;; 1 cycle
   \   0000F7 07                    ADDW      AX, HL             ;; 1 cycle
   \   0000F8 B808                  MOVW      [SP+0x08], AX      ;; 1 cycle
   \   0000FA A80E                  MOVW      AX, [SP+0x0E]      ;; 1 cycle
   \   0000FC                       ; ------------------------------------- Block: 6 cycles
   \                     ??TestMyCode_40:
   \   0000FC 16                    MOVW      HL, AX             ;; 1 cycle
   \   0000FD A806                  MOVW      AX, [SP+0x06]      ;; 1 cycle
   \   0000FF 07                    ADDW      AX, HL             ;; 1 cycle
   \   000100 B806                  MOVW      [SP+0x06], AX      ;; 1 cycle
   \   000102 A81E                  MOVW      AX, [SP+0x1E]      ;; 1 cycle
   \   000104 440000                CMPW      AX, #0x0           ;; 1 cycle
   \   000107 DFA3                  BNZ       ??LCDDrawLineSteps_0  ;; 4 cycles
   \   000109                       ; ------------------------------------- Block: 10 cycles
    188              }
    189          
    190          }
   \                     ??TestMyCode_38:
   \   000109 1018                  ADDW      SP, #0x18          ;; 1 cycle
   \   00010B C4                    POP       DE                 ;; 1 cycle
   \   00010C FD....                CALL      N:?FUNC_LEAVE_L06
   \   00010F 0400                  DW        0x4                ;; 3 cycles
   \   000111                       ; ------------------------------------- Block: 5 cycles
   \   000111                       ; ------------------------------------- Total: 223 cycles
   \   000111                       REQUIRE ?CLRL78_V1_0_L00
    191          
    192          
    193          // Draw Dial into background buffer

   \                                 In  segment CODE, align 1, keep-with-next
    194          void LCDDrawDialBackground(void)
   \                     LCDDrawDialBackground:
    195          {
   \   000000 C3                    PUSH      BC                 ;; 1 cycle
   \   000001 C5                    PUSH      DE                 ;; 1 cycle
   \   000002 2018                  SUBW      SP, #0x18          ;; 1 cycle
    196            PointT p1;
    197            PointT p2;
    198              p1.X = 0; p1.Y = 0;
    199              p2.X = 0; p2.Y = LCD_H-1;
    200              LCDDrawLine(&p1,&p2,0,1);
   \   000004 F6                    CLRW      AX                 ;; 1 cycle
   \   000005 B802                  MOVW      [SP+0x02], AX      ;; 1 cycle
   \   000007 501F                  MOV       X, #0x1F           ;; 1 cycle
   \   000009 B804                  MOVW      [SP+0x04], AX      ;; 1 cycle
   \   00000B 5140                  MOV       A, #0x40           ;; 1 cycle
   \   00000D 9800                  MOV       [SP], A            ;; 1 cycle
   \   00000F                       ; * Stack frame (at entry) *
   \   00000F                       ; Param size: 0
   \   00000F                       ; Auto size: 24
   \   00000F                       ; ------------------------------------- Block: 9 cycles
   \                     ??LCDDrawDialBackground_0:
   \   00000F E6                    ONEW      AX                 ;; 1 cycle
   \   000010 14                    MOVW      DE, AX             ;; 1 cycle
   \   000011 A802                  MOVW      AX, [SP+0x02]      ;; 1 cycle
   \   000013 60                    MOV       A, X               ;; 1 cycle
   \   000014 F2                    CLRB      C                  ;; 1 cycle
   \   000015 73                    MOV       B, A               ;; 1 cycle
   \   000016 F1                    CLRB      A                  ;; 1 cycle
   \   000017 FD....                CALL      FBG_SetPixel       ;; 3 cycles
   \   00001A A804                  MOVW      AX, [SP+0x04]      ;; 1 cycle
   \   00001C 7C80                  XOR       A, #0x80           ;; 1 cycle
   \   00001E 443F80                CMPW      AX, #0x803F        ;; 1 cycle
   \   000021 DC07                  BC        ??TestMyCode_41    ;; 4 cycles
   \   000023                       ; ------------------------------------- Block: 17 cycles
   \   000023 A804                  MOVW      AX, [SP+0x04]      ;; 1 cycle
   \   000025 04C1FF                ADDW      AX, #0xFFC1        ;; 1 cycle
   \   000028 B804                  MOVW      [SP+0x04], AX      ;; 1 cycle
   \   00002A                       ; ------------------------------------- Block: 3 cycles
   \                     ??TestMyCode_41:
   \   00002A A802                  MOVW      AX, [SP+0x02]      ;; 1 cycle
   \   00002C A1                    INCW      AX                 ;; 1 cycle
   \   00002D B802                  MOVW      [SP+0x02], AX      ;; 1 cycle
   \   00002F 8800                  MOV       A, [SP]            ;; 1 cycle
   \   000031 91                    DEC       A                  ;; 1 cycle
   \   000032 9800                  MOV       [SP], A            ;; 1 cycle
   \   000034 DFD9                  BNZ       ??LCDDrawDialBackground_0  ;; 4 cycles
   \   000036                       ; ------------------------------------- Block: 10 cycles
    201              p1.X = LCD_W-1; p1.Y = LCD_H-1;
    202              p2.X = 0; p2.Y = LCD_H-1;
    203              LCDDrawLine(&p1,&p2,0,1);
   \   000036 305F00                MOVW      AX, #0x5F          ;; 1 cycle
   \   000039 B802                  MOVW      [SP+0x02], AX      ;; 1 cycle
   \   00003B 502F                  MOV       X, #0x2F           ;; 1 cycle
   \   00003D B804                  MOVW      [SP+0x04], AX      ;; 1 cycle
   \   00003F 5160                  MOV       A, #0x60           ;; 1 cycle
   \   000041 9800                  MOV       [SP], A            ;; 1 cycle
   \   000043                       ; ------------------------------------- Block: 6 cycles
   \                     ??LCDDrawDialBackground_1:
   \   000043 E6                    ONEW      AX                 ;; 1 cycle
   \   000044 14                    MOVW      DE, AX             ;; 1 cycle
   \   000045 A802                  MOVW      AX, [SP+0x02]      ;; 1 cycle
   \   000047 F2                    CLRB      C                  ;; 1 cycle
   \   000048 533F                  MOV       B, #0x3F           ;; 1 cycle
   \   00004A 60                    MOV       A, X               ;; 1 cycle
   \   00004B FD....                CALL      FBG_SetPixel       ;; 3 cycles
   \   00004E A804                  MOVW      AX, [SP+0x04]      ;; 1 cycle
   \   000050 7C80                  XOR       A, #0x80           ;; 1 cycle
   \   000052 445F80                CMPW      AX, #0x805F        ;; 1 cycle
   \   000055 DC07                  BC        ??TestMyCode_42    ;; 4 cycles
   \   000057                       ; ------------------------------------- Block: 16 cycles
   \   000057 A804                  MOVW      AX, [SP+0x04]      ;; 1 cycle
   \   000059 04A1FF                ADDW      AX, #0xFFA1        ;; 1 cycle
   \   00005C B804                  MOVW      [SP+0x04], AX      ;; 1 cycle
   \   00005E                       ; ------------------------------------- Block: 3 cycles
   \                     ??TestMyCode_42:
   \   00005E A802                  MOVW      AX, [SP+0x02]      ;; 1 cycle
   \   000060 B1                    DECW      AX                 ;; 1 cycle
   \   000061 B802                  MOVW      [SP+0x02], AX      ;; 1 cycle
   \   000063 8800                  MOV       A, [SP]            ;; 1 cycle
   \   000065 91                    DEC       A                  ;; 1 cycle
   \   000066 9800                  MOV       [SP], A            ;; 1 cycle
   \   000068 DFD9                  BNZ       ??LCDDrawDialBackground_1  ;; 4 cycles
   \   00006A                       ; ------------------------------------- Block: 10 cycles
    204              p1.X = LCD_W-1; p1.Y = 0;
    205              p2.X = LCD_W-1; p2.Y = LCD_H-1;
    206              LCDDrawLine(&p1,&p2,0,1);  
   \   00006A F6                    CLRW      AX                 ;; 1 cycle
   \   00006B B802                  MOVW      [SP+0x02], AX      ;; 1 cycle
   \   00006D 501F                  MOV       X, #0x1F           ;; 1 cycle
   \   00006F B804                  MOVW      [SP+0x04], AX      ;; 1 cycle
   \   000071 5140                  MOV       A, #0x40           ;; 1 cycle
   \   000073 9800                  MOV       [SP], A            ;; 1 cycle
   \   000075                       ; ------------------------------------- Block: 6 cycles
   \                     ??LCDDrawDialBackground_2:
   \   000075 E6                    ONEW      AX                 ;; 1 cycle
   \   000076 14                    MOVW      DE, AX             ;; 1 cycle
   \   000077 A802                  MOVW      AX, [SP+0x02]      ;; 1 cycle
   \   000079 60                    MOV       A, X               ;; 1 cycle
   \   00007A F2                    CLRB      C                  ;; 1 cycle
   \   00007B 73                    MOV       B, A               ;; 1 cycle
   \   00007C 515F                  MOV       A, #0x5F           ;; 1 cycle
   \   00007E FD....                CALL      FBG_SetPixel       ;; 3 cycles
   \   000081 A804                  MOVW      AX, [SP+0x04]      ;; 1 cycle
   \   000083 7C80                  XOR       A, #0x80           ;; 1 cycle
   \   000085 443F80                CMPW      AX, #0x803F        ;; 1 cycle
   \   000088 DC07                  BC        ??TestMyCode_43    ;; 4 cycles
   \   00008A                       ; ------------------------------------- Block: 17 cycles
   \   00008A A804                  MOVW      AX, [SP+0x04]      ;; 1 cycle
   \   00008C 04C1FF                ADDW      AX, #0xFFC1        ;; 1 cycle
   \   00008F B804                  MOVW      [SP+0x04], AX      ;; 1 cycle
   \   000091                       ; ------------------------------------- Block: 3 cycles
   \                     ??TestMyCode_43:
   \   000091 A802                  MOVW      AX, [SP+0x02]      ;; 1 cycle
   \   000093 A1                    INCW      AX                 ;; 1 cycle
   \   000094 B802                  MOVW      [SP+0x02], AX      ;; 1 cycle
   \   000096 8800                  MOV       A, [SP]            ;; 1 cycle
   \   000098 91                    DEC       A                  ;; 1 cycle
   \   000099 9800                  MOV       [SP], A            ;; 1 cycle
   \   00009B DFD8                  BNZ       ??LCDDrawDialBackground_2  ;; 4 cycles
   \   00009D                       ; ------------------------------------- Block: 10 cycles
    207              p1.X = 0; p1.Y = 0;
    208              p2.X = LCD_W-1; p2.Y = 0;
    209              LCDDrawLine(&p1,&p2,0,1);
   \   00009D F6                    CLRW      AX                 ;; 1 cycle
   \   00009E B802                  MOVW      [SP+0x02], AX      ;; 1 cycle
   \   0000A0 502F                  MOV       X, #0x2F           ;; 1 cycle
   \   0000A2 B804                  MOVW      [SP+0x04], AX      ;; 1 cycle
   \   0000A4 5160                  MOV       A, #0x60           ;; 1 cycle
   \   0000A6 9800                  MOV       [SP], A            ;; 1 cycle
   \   0000A8                       ; ------------------------------------- Block: 6 cycles
   \                     ??LCDDrawDialBackground_3:
   \   0000A8 E6                    ONEW      AX                 ;; 1 cycle
   \   0000A9 14                    MOVW      DE, AX             ;; 1 cycle
   \   0000AA A802                  MOVW      AX, [SP+0x02]      ;; 1 cycle
   \   0000AC F7                    CLRW      BC                 ;; 1 cycle
   \   0000AD 60                    MOV       A, X               ;; 1 cycle
   \   0000AE FD....                CALL      FBG_SetPixel       ;; 3 cycles
   \   0000B1 A804                  MOVW      AX, [SP+0x04]      ;; 1 cycle
   \   0000B3 7C80                  XOR       A, #0x80           ;; 1 cycle
   \   0000B5 445F80                CMPW      AX, #0x805F        ;; 1 cycle
   \   0000B8 DC07                  BC        ??TestMyCode_44    ;; 4 cycles
   \   0000BA                       ; ------------------------------------- Block: 15 cycles
   \   0000BA A804                  MOVW      AX, [SP+0x04]      ;; 1 cycle
   \   0000BC 04A1FF                ADDW      AX, #0xFFA1        ;; 1 cycle
   \   0000BF B804                  MOVW      [SP+0x04], AX      ;; 1 cycle
   \   0000C1                       ; ------------------------------------- Block: 3 cycles
   \                     ??TestMyCode_44:
   \   0000C1 A802                  MOVW      AX, [SP+0x02]      ;; 1 cycle
   \   0000C3 A1                    INCW      AX                 ;; 1 cycle
   \   0000C4 B802                  MOVW      [SP+0x02], AX      ;; 1 cycle
   \   0000C6 8800                  MOV       A, [SP]            ;; 1 cycle
   \   0000C8 91                    DEC       A                  ;; 1 cycle
   \   0000C9 9800                  MOV       [SP], A            ;; 1 cycle
   \   0000CB DFDB                  BNZ       ??LCDDrawDialBackground_3  ;; 4 cycles
   \   0000CD                       ; ------------------------------------- Block: 10 cycles
    210              p2.X = 48;
    211              p2.Y = 39;
    212              for(int i=180;i<=360;i++)
   \   0000CD 30B400                MOVW      AX, #0xB4          ;; 1 cycle
   \   0000D0 B806                  MOVW      [SP+0x06], AX      ;; 1 cycle
   \   0000D2                       ; ------------------------------------- Block: 2 cycles
    213              {
    214                p1.X = 48*taylor_cos(i*PIby180) + 48;
   \                     ??LCDDrawDialBackground_4:
   \   0000D2 30C93F                MOVW      AX, #0x3FC9        ;; 1 cycle
   \   0000D5 C1                    PUSH      AX                 ;; 1 cycle
   \   0000D6 30DB0F                MOVW      AX, #0xFDB         ;; 1 cycle
   \   0000D9 C1                    PUSH      AX                 ;; 1 cycle
   \   0000DA 308E3C                MOVW      AX, #0x3C8E        ;; 1 cycle
   \   0000DD C1                    PUSH      AX                 ;; 1 cycle
   \   0000DE 3035FA                MOVW      AX, #0xFA35        ;; 1 cycle
   \   0000E1 C1                    PUSH      AX                 ;; 1 cycle
   \   0000E2 A80E                  MOVW      AX, [SP+0x0E]      ;; 1 cycle
   \   0000E4 12                    MOVW      BC, AX             ;; 1 cycle
   \   0000E5 31FF                  SARW      AX, 0xF            ;; 1 cycle
   \   0000E7 33                    XCHW      AX, BC             ;; 1 cycle
   \   0000E8 FD....                CALL      N:?F_SL2F          ;; 3 cycles
   \   0000EB FD....                CALL      N:?F_MUL           ;; 3 cycles
   \   0000EE 1004                  ADDW      SP, #0x4           ;; 1 cycle
   \   0000F0 FD....                CALL      N:?F_ADD           ;; 3 cycles
   \   0000F3 1004                  ADDW      SP, #0x4           ;; 1 cycle
   \   0000F5 364940                MOVW      HL, #0x4049        ;; 1 cycle
   \   0000F8 C7                    PUSH      HL                 ;; 1 cycle
   \   0000F9 36DC0F                MOVW      HL, #0xFDC         ;; 1 cycle
   \   0000FC C7                    PUSH      HL                 ;; 1 cycle
   \   0000FD FD....                CALL      N:?FCMP_GE         ;; 3 cycles
   \   000100 1004                  ADDW      SP, #0x4           ;; 1 cycle
   \   000102 DC0D                  BC        ??TestMyCode_45    ;; 4 cycles
   \   000104                       ; ------------------------------------- Block: 35 cycles
   \   000104 36C9C0                MOVW      HL, #0xC0C9        ;; 1 cycle
   \   000107 C7                    PUSH      HL                 ;; 1 cycle
   \   000108 36DB0F                MOVW      HL, #0xFDB         ;; 1 cycle
   \   00010B C7                    PUSH      HL                 ;; 1 cycle
   \   00010C FD....                CALL      N:?F_ADD           ;; 3 cycles
   \   00010F 1004                  ADDW      SP, #0x4           ;; 1 cycle
   \   000111                       ; ------------------------------------- Block: 8 cycles
   \                     ??TestMyCode_45:
   \   000111 360000                MOVW      HL, #0x0           ;; 1 cycle
   \   000114 C7                    PUSH      HL                 ;; 1 cycle
   \   000115 C7                    PUSH      HL                 ;; 1 cycle
   \   000116 FD....                CALL      N:?FCMP_LT         ;; 3 cycles
   \   000119 1004                  ADDW      SP, #0x4           ;; 1 cycle
   \   00011B DE1C                  BNC       ??TestMyCode_46    ;; 4 cycles
   \   00011D                       ; ------------------------------------- Block: 11 cycles
   \   00011D C3                    PUSH      BC                 ;; 1 cycle
   \   00011E C1                    PUSH      AX                 ;; 1 cycle
   \   00011F 36A23F                MOVW      HL, #0x3FA2        ;; 1 cycle
   \   000122 C7                    PUSH      HL                 ;; 1 cycle
   \   000123 3683F9                MOVW      HL, #0xF983        ;; 1 cycle
   \   000126 C7                    PUSH      HL                 ;; 1 cycle
   \   000127 36CF3E                MOVW      HL, #0x3ECF        ;; 1 cycle
   \   00012A C7                    PUSH      HL                 ;; 1 cycle
   \   00012B 367B81                MOVW      HL, #0x817B        ;; 1 cycle
   \   00012E C7                    PUSH      HL                 ;; 1 cycle
   \   00012F FD....                CALL      N:?F_MUL           ;; 3 cycles
   \   000132 1004                  ADDW      SP, #0x4           ;; 1 cycle
   \   000134 FD....                CALL      N:?F_ADD           ;; 3 cycles
   \   000137 EF1A                  BR        S:??TestMyCode_47  ;; 3 cycles
   \   000139                       ; ------------------------------------- Block: 20 cycles
   \                     ??TestMyCode_46:
   \   000139 C3                    PUSH      BC                 ;; 1 cycle
   \   00013A C1                    PUSH      AX                 ;; 1 cycle
   \   00013B 36CF3E                MOVW      HL, #0x3ECF        ;; 1 cycle
   \   00013E C7                    PUSH      HL                 ;; 1 cycle
   \   00013F 367B81                MOVW      HL, #0x817B        ;; 1 cycle
   \   000142 C7                    PUSH      HL                 ;; 1 cycle
   \   000143 FD....                CALL      N:?F_MUL           ;; 3 cycles
   \   000146 1004                  ADDW      SP, #0x4           ;; 1 cycle
   \   000148 C3                    PUSH      BC                 ;; 1 cycle
   \   000149 C1                    PUSH      AX                 ;; 1 cycle
   \   00014A 3083F9                MOVW      AX, #0xF983        ;; 1 cycle
   \   00014D 32A23F                MOVW      BC, #0x3FA2        ;; 1 cycle
   \   000150 FD....                CALL      N:?F_SUB           ;; 3 cycles
   \   000153                       ; ------------------------------------- Block: 17 cycles
   \                     ??TestMyCode_47:
   \   000153 1004                  ADDW      SP, #0x4           ;; 1 cycle
   \   000155 FD....                CALL      N:?F_MUL           ;; 3 cycles
   \   000158 1004                  ADDW      SP, #0x4           ;; 1 cycle
   \   00015A 364042                MOVW      HL, #0x4240        ;; 1 cycle
   \   00015D C7                    PUSH      HL                 ;; 1 cycle
   \   00015E 360000                MOVW      HL, #0x0           ;; 1 cycle
   \   000161 C7                    PUSH      HL                 ;; 1 cycle
   \   000162 364042                MOVW      HL, #0x4240        ;; 1 cycle
   \   000165 C7                    PUSH      HL                 ;; 1 cycle
   \   000166 360000                MOVW      HL, #0x0           ;; 1 cycle
   \   000169 C7                    PUSH      HL                 ;; 1 cycle
   \   00016A FD....                CALL      N:?F_MUL           ;; 3 cycles
   \   00016D 1004                  ADDW      SP, #0x4           ;; 1 cycle
   \   00016F FD....                CALL      N:?F_ADD           ;; 3 cycles
   \   000172 FD....                CALL      N:?F_F2SL          ;; 3 cycles
   \   000175 60                    MOV       A, X               ;; 1 cycle
   \   000176 9805                  MOV       [SP+0x05], A       ;; 1 cycle
    215                p1.Y = 32*taylor_sin(i*PIby180) + 39;
   \   000178 1004                  ADDW      SP, #0x4           ;; 1 cycle
   \   00017A 308E3C                MOVW      AX, #0x3C8E        ;; 1 cycle
   \   00017D C1                    PUSH      AX                 ;; 1 cycle
   \   00017E 3035FA                MOVW      AX, #0xFA35        ;; 1 cycle
   \   000181 C1                    PUSH      AX                 ;; 1 cycle
   \   000182 A80A                  MOVW      AX, [SP+0x0A]      ;; 1 cycle
   \   000184 12                    MOVW      BC, AX             ;; 1 cycle
   \   000185 31FF                  SARW      AX, 0xF            ;; 1 cycle
   \   000187 33                    XCHW      AX, BC             ;; 1 cycle
   \   000188 FD....                CALL      N:?F_SL2F          ;; 3 cycles
   \   00018B FD....                CALL      N:?F_MUL           ;; 3 cycles
   \   00018E 1004                  ADDW      SP, #0x4           ;; 1 cycle
   \   000190 16                    MOVW      HL, AX             ;; 1 cycle
   \   000191 B802                  MOVW      [SP+0x02], AX      ;; 1 cycle
   \   000193 13                    MOVW      AX, BC             ;; 1 cycle
   \   000194 B804                  MOVW      [SP+0x04], AX      ;; 1 cycle
   \   000196 3049C0                MOVW      AX, #0xC049        ;; 1 cycle
   \   000199 C1                    PUSH      AX                 ;; 1 cycle
   \   00019A 30DB0F                MOVW      AX, #0xFDB         ;; 1 cycle
   \   00019D C1                    PUSH      AX                 ;; 1 cycle
   \   00019E 17                    MOVW      AX, HL             ;; 1 cycle
   \   00019F FD....                CALL      N:?FCMP_LT         ;; 3 cycles
   \   0001A2 1004                  ADDW      SP, #0x4           ;; 1 cycle
   \   0001A4 DE05                  BNC       ??TestMyCode_48    ;; 4 cycles
   \   0001A6                       ; ------------------------------------- Block: 58 cycles
   \   0001A6 30C940                MOVW      AX, #0x40C9        ;; 1 cycle
   \   0001A9 EF13                  BR        S:??TestMyCode_49  ;; 3 cycles
   \   0001AB                       ; ------------------------------------- Block: 4 cycles
   \                     ??TestMyCode_48:
   \   0001AB 304940                MOVW      AX, #0x4049        ;; 1 cycle
   \   0001AE C1                    PUSH      AX                 ;; 1 cycle
   \   0001AF 30DC0F                MOVW      AX, #0xFDC         ;; 1 cycle
   \   0001B2 C1                    PUSH      AX                 ;; 1 cycle
   \   0001B3 17                    MOVW      AX, HL             ;; 1 cycle
   \   0001B4 FD....                CALL      N:?FCMP_GE         ;; 3 cycles
   \   0001B7 1004                  ADDW      SP, #0x4           ;; 1 cycle
   \   0001B9 DC13                  BC        ??TestMyCode_50    ;; 4 cycles
   \   0001BB                       ; ------------------------------------- Block: 13 cycles
   \   0001BB 30C9C0                MOVW      AX, #0xC0C9        ;; 1 cycle
   \   0001BE                       ; ------------------------------------- Block: 1 cycles
   \                     ??TestMyCode_49:
   \   0001BE C1                    PUSH      AX                 ;; 1 cycle
   \   0001BF 30DB0F                MOVW      AX, #0xFDB         ;; 1 cycle
   \   0001C2 C1                    PUSH      AX                 ;; 1 cycle
   \   0001C3 17                    MOVW      AX, HL             ;; 1 cycle
   \   0001C4 FD....                CALL      N:?F_ADD           ;; 3 cycles
   \   0001C7 1004                  ADDW      SP, #0x4           ;; 1 cycle
   \   0001C9 B802                  MOVW      [SP+0x02], AX      ;; 1 cycle
   \   0001CB 13                    MOVW      AX, BC             ;; 1 cycle
   \   0001CC B804                  MOVW      [SP+0x04], AX      ;; 1 cycle
   \   0001CE                       ; ------------------------------------- Block: 11 cycles
   \                     ??TestMyCode_50:
   \   0001CE F6                    CLRW      AX                 ;; 1 cycle
   \   0001CF C1                    PUSH      AX                 ;; 1 cycle
   \   0001D0 C1                    PUSH      AX                 ;; 1 cycle
   \   0001D1 A808                  MOVW      AX, [SP+0x08]      ;; 1 cycle
   \   0001D3 12                    MOVW      BC, AX             ;; 1 cycle
   \   0001D4 A806                  MOVW      AX, [SP+0x06]      ;; 1 cycle
   \   0001D6 FD....                CALL      N:?FCMP_LT         ;; 3 cycles
   \   0001D9 1004                  ADDW      SP, #0x4           ;; 1 cycle
   \   0001DB DE2F                  BNC       ??TestMyCode_51    ;; 4 cycles
   \   0001DD                       ; ------------------------------------- Block: 14 cycles
   \   0001DD C3                    PUSH      BC                 ;; 1 cycle
   \   0001DE C1                    PUSH      AX                 ;; 1 cycle
   \   0001DF 30CF3E                MOVW      AX, #0x3ECF        ;; 1 cycle
   \   0001E2 C1                    PUSH      AX                 ;; 1 cycle
   \   0001E3 307B81                MOVW      AX, #0x817B        ;; 1 cycle
   \   0001E6 C1                    PUSH      AX                 ;; 1 cycle
   \   0001E7 A80A                  MOVW      AX, [SP+0x0A]      ;; 1 cycle
   \   0001E9 FD....                CALL      N:?F_MUL           ;; 3 cycles
   \   0001EC 1004                  ADDW      SP, #0x4           ;; 1 cycle
   \   0001EE FD....                CALL      N:?F_MUL           ;; 3 cycles
   \   0001F1 1004                  ADDW      SP, #0x4           ;; 1 cycle
   \   0001F3 C3                    PUSH      BC                 ;; 1 cycle
   \   0001F4 C1                    PUSH      AX                 ;; 1 cycle
   \   0001F5 30A23F                MOVW      AX, #0x3FA2        ;; 1 cycle
   \   0001F8 C1                    PUSH      AX                 ;; 1 cycle
   \   0001F9 3083F9                MOVW      AX, #0xF983        ;; 1 cycle
   \   0001FC C1                    PUSH      AX                 ;; 1 cycle
   \   0001FD A80C                  MOVW      AX, [SP+0x0C]      ;; 1 cycle
   \   0001FF 12                    MOVW      BC, AX             ;; 1 cycle
   \   000200 A80A                  MOVW      AX, [SP+0x0A]      ;; 1 cycle
   \   000202 FD....                CALL      N:?F_MUL           ;; 3 cycles
   \   000205 1004                  ADDW      SP, #0x4           ;; 1 cycle
   \   000207 FD....                CALL      N:?F_ADD           ;; 3 cycles
   \   00020A EF2D                  BR        S:??TestMyCode_52  ;; 3 cycles
   \   00020C                       ; ------------------------------------- Block: 34 cycles
   \                     ??TestMyCode_51:
   \   00020C C3                    PUSH      BC                 ;; 1 cycle
   \   00020D C1                    PUSH      AX                 ;; 1 cycle
   \   00020E 30CF3E                MOVW      AX, #0x3ECF        ;; 1 cycle
   \   000211 C1                    PUSH      AX                 ;; 1 cycle
   \   000212 307B81                MOVW      AX, #0x817B        ;; 1 cycle
   \   000215 C1                    PUSH      AX                 ;; 1 cycle
   \   000216 A80A                  MOVW      AX, [SP+0x0A]      ;; 1 cycle
   \   000218 FD....                CALL      N:?F_MUL           ;; 3 cycles
   \   00021B 1004                  ADDW      SP, #0x4           ;; 1 cycle
   \   00021D FD....                CALL      N:?F_MUL           ;; 3 cycles
   \   000220 1004                  ADDW      SP, #0x4           ;; 1 cycle
   \   000222 C3                    PUSH      BC                 ;; 1 cycle
   \   000223 C1                    PUSH      AX                 ;; 1 cycle
   \   000224 30A23F                MOVW      AX, #0x3FA2        ;; 1 cycle
   \   000227 C1                    PUSH      AX                 ;; 1 cycle
   \   000228 3083F9                MOVW      AX, #0xF983        ;; 1 cycle
   \   00022B C1                    PUSH      AX                 ;; 1 cycle
   \   00022C A80C                  MOVW      AX, [SP+0x0C]      ;; 1 cycle
   \   00022E 12                    MOVW      BC, AX             ;; 1 cycle
   \   00022F A80A                  MOVW      AX, [SP+0x0A]      ;; 1 cycle
   \   000231 FD....                CALL      N:?F_MUL           ;; 3 cycles
   \   000234 1004                  ADDW      SP, #0x4           ;; 1 cycle
   \   000236 FD....                CALL      N:?F_SUB           ;; 3 cycles
   \   000239                       ; ------------------------------------- Block: 31 cycles
   \                     ??TestMyCode_52:
   \   000239 1004                  ADDW      SP, #0x4           ;; 1 cycle
   \   00023B 361C42                MOVW      HL, #0x421C        ;; 1 cycle
   \   00023E C7                    PUSH      HL                 ;; 1 cycle
   \   00023F 360000                MOVW      HL, #0x0           ;; 1 cycle
   \   000242 C7                    PUSH      HL                 ;; 1 cycle
   \   000243 5742                  MOV       H, #0x42           ;; 1 cycle
   \   000245 C7                    PUSH      HL                 ;; 1 cycle
   \   000246 5700                  MOV       H, #0x0            ;; 1 cycle
   \   000248 C7                    PUSH      HL                 ;; 1 cycle
   \   000249 FD....                CALL      N:?F_MUL           ;; 3 cycles
   \   00024C 1004                  ADDW      SP, #0x4           ;; 1 cycle
   \   00024E FD....                CALL      N:?F_ADD           ;; 3 cycles
   \   000251 FD....                CALL      N:?F_F2SL          ;; 3 cycles
   \   000254 60                    MOV       A, X               ;; 1 cycle
   \   000255 9804                  MOV       [SP+0x04], A       ;; 1 cycle
    216                FBG_SetPixel(p1.X, p1.Y, 1,1);
   \   000257 E6                    ONEW      AX                 ;; 1 cycle
   \   000258 14                    MOVW      DE, AX             ;; 1 cycle
   \   000259 8804                  MOV       A, [SP+0x04]       ;; 1 cycle
   \   00025B E2                    ONEB      C                  ;; 1 cycle
   \   00025C 73                    MOV       B, A               ;; 1 cycle
   \   00025D 8805                  MOV       A, [SP+0x05]       ;; 1 cycle
   \   00025F FD....                CALL      FBG_SetPixel       ;; 3 cycles
    217                if(i%18 == 0)
   \   000262 321200                MOVW      BC, #0x12          ;; 1 cycle
   \   000265 A80A                  MOVW      AX, [SP+0x0A]      ;; 1 cycle
   \   000267 FD....                CALL      N:?SI_MOD_L02      ;; 3 cycles
   \   00026A 440000                CMPW      AX, #0x0           ;; 1 cycle
   \   00026D 1004                  ADDW      SP, #0x4           ;; 1 cycle
   \   00026F 61E8                  SKZ                          ;; 4 cycles
   \   000271 ED....                BR        N:??TestMyCode_53  ;; 4 cycles
   \   000274                       ; ------------------------------------- Block: 41 cycles
    218                {
    219                  LCDDrawLineSteps(&p1, &p2, 1,5,1);
   \   000274 300500                MOVW      AX, #0x5           ;; 1 cycle
   \   000277 B816                  MOVW      [SP+0x16], AX      ;; 1 cycle
   \   000279 8801                  MOV       A, [SP+0x01]       ;; 1 cycle
   \   00027B 76                    MOV       L, A               ;; 1 cycle
   \   00027C 5700                  MOV       H, #0x0            ;; 1 cycle
   \   00027E 303000                MOVW      AX, #0x30          ;; 1 cycle
   \   000281 27                    SUBW      AX, HL             ;; 1 cycle
   \   000282 16                    MOVW      HL, AX             ;; 1 cycle
   \   000283 8800                  MOV       A, [SP]            ;; 1 cycle
   \   000285 74                    MOV       E, A               ;; 1 cycle
   \   000286 5500                  MOV       D, #0x0            ;; 1 cycle
   \   000288 302700                MOVW      AX, #0x27          ;; 1 cycle
   \   00028B 25                    SUBW      AX, DE             ;; 1 cycle
   \   00028C 14                    MOVW      DE, AX             ;; 1 cycle
   \   00028D 8801                  MOV       A, [SP+0x01]       ;; 1 cycle
   \   00028F 70                    MOV       X, A               ;; 1 cycle
   \   000290 F1                    CLRB      A                  ;; 1 cycle
   \   000291 B80A                  MOVW      [SP+0x0A], AX      ;; 1 cycle
   \   000293 8800                  MOV       A, [SP]            ;; 1 cycle
   \   000295 70                    MOV       X, A               ;; 1 cycle
   \   000296 F1                    CLRB      A                  ;; 1 cycle
   \   000297 B808                  MOVW      [SP+0x08], AX      ;; 1 cycle
   \   000299 F6                    CLRW      AX                 ;; 1 cycle
   \   00029A B814                  MOVW      [SP+0x14], AX      ;; 1 cycle
   \   00029C B80C                  MOVW      [SP+0x0C], AX      ;; 1 cycle
   \   00029E B812                  MOVW      [SP+0x12], AX      ;; 1 cycle
   \   0002A0 B810                  MOVW      [SP+0x10], AX      ;; 1 cycle
   \   0002A2 17                    MOVW      AX, HL             ;; 1 cycle
   \   0002A3 317505                BF        A.7, ??TestMyCode_54  ;; 5 cycles
   \   0002A6                       ; ------------------------------------- Block: 33 cycles
   \   0002A6 30FFFF                MOVW      AX, #0xFFFF        ;; 1 cycle
   \   0002A9 EF08                  BR        S:??TestMyCode_55  ;; 3 cycles
   \   0002AB                       ; ------------------------------------- Block: 4 cycles
   \                     ??TestMyCode_54:
   \   0002AB 7C80                  XOR       A, #0x80           ;; 1 cycle
   \   0002AD 440180                CMPW      AX, #0x8001        ;; 1 cycle
   \   0002B0 DC05                  BC        ??TestMyCode_56    ;; 4 cycles
   \   0002B2                       ; ------------------------------------- Block: 6 cycles
   \   0002B2 E6                    ONEW      AX                 ;; 1 cycle
   \   0002B3                       ; ------------------------------------- Block: 1 cycles
   \                     ??TestMyCode_55:
   \   0002B3 B814                  MOVW      [SP+0x14], AX      ;; 1 cycle
   \   0002B5 B80C                  MOVW      [SP+0x0C], AX      ;; 1 cycle
   \   0002B7                       ; ------------------------------------- Block: 2 cycles
   \                     ??TestMyCode_56:
   \   0002B7 15                    MOVW      AX, DE             ;; 1 cycle
   \   0002B8 317505                BF        A.7, ??TestMyCode_57  ;; 5 cycles
   \   0002BB                       ; ------------------------------------- Block: 6 cycles
   \   0002BB 30FFFF                MOVW      AX, #0xFFFF        ;; 1 cycle
   \   0002BE EF08                  BR        S:??TestMyCode_58  ;; 3 cycles
   \   0002C0                       ; ------------------------------------- Block: 4 cycles
   \                     ??TestMyCode_57:
   \   0002C0 7C80                  XOR       A, #0x80           ;; 1 cycle
   \   0002C2 440180                CMPW      AX, #0x8001        ;; 1 cycle
   \   0002C5 DC03                  BC        ??TestMyCode_59    ;; 4 cycles
   \   0002C7                       ; ------------------------------------- Block: 6 cycles
   \   0002C7 E6                    ONEW      AX                 ;; 1 cycle
   \   0002C8                       ; ------------------------------------- Block: 1 cycles
   \                     ??TestMyCode_58:
   \   0002C8 B812                  MOVW      [SP+0x12], AX      ;; 1 cycle
   \   0002CA                       ; ------------------------------------- Block: 1 cycles
   \                     ??TestMyCode_59:
   \   0002CA 17                    MOVW      AX, HL             ;; 1 cycle
   \   0002CB 317507                BF        A.7, ??TestMyCode_60  ;; 5 cycles
   \   0002CE                       ; ------------------------------------- Block: 6 cycles
   \   0002CE 7CFF                  XOR       A, #0xFF           ;; 1 cycle
   \   0002D0 08                    XCH       A, X               ;; 1 cycle
   \   0002D1 7CFF                  XOR       A, #0xFF           ;; 1 cycle
   \   0002D3 08                    XCH       A, X               ;; 1 cycle
   \   0002D4 A1                    INCW      AX                 ;; 1 cycle
   \   0002D5                       ; ------------------------------------- Block: 5 cycles
   \                     ??TestMyCode_60:
   \   0002D5 B800                  MOVW      [SP], AX           ;; 1 cycle
   \   0002D7 15                    MOVW      AX, DE             ;; 1 cycle
   \   0002D8 317507                BF        A.7, ??TestMyCode_61  ;; 5 cycles
   \   0002DB                       ; ------------------------------------- Block: 7 cycles
   \   0002DB 7CFF                  XOR       A, #0xFF           ;; 1 cycle
   \   0002DD 08                    XCH       A, X               ;; 1 cycle
   \   0002DE 7CFF                  XOR       A, #0xFF           ;; 1 cycle
   \   0002E0 08                    XCH       A, X               ;; 1 cycle
   \   0002E1 A1                    INCW      AX                 ;; 1 cycle
   \   0002E2                       ; ------------------------------------- Block: 5 cycles
   \                     ??TestMyCode_61:
   \   0002E2 B802                  MOVW      [SP+0x02], AX      ;; 1 cycle
   \   0002E4 A800                  MOVW      AX, [SP]           ;; 1 cycle
   \   0002E6 12                    MOVW      BC, AX             ;; 1 cycle
   \   0002E7 A802                  MOVW      AX, [SP+0x02]      ;; 1 cycle
   \   0002E9 FD....                CALL      N:?SI_CMP_L02      ;; 3 cycles
   \   0002EC DC25                  BC        ??TestMyCode_62    ;; 4 cycles
   \   0002EE                       ; ------------------------------------- Block: 11 cycles
   \   0002EE B800                  MOVW      [SP], AX           ;; 1 cycle
   \   0002F0 17                    MOVW      AX, HL             ;; 1 cycle
   \   0002F1 317507                BF        A.7, ??TestMyCode_63  ;; 5 cycles
   \   0002F4                       ; ------------------------------------- Block: 7 cycles
   \   0002F4 7CFF                  XOR       A, #0xFF           ;; 1 cycle
   \   0002F6 08                    XCH       A, X               ;; 1 cycle
   \   0002F7 7CFF                  XOR       A, #0xFF           ;; 1 cycle
   \   0002F9 08                    XCH       A, X               ;; 1 cycle
   \   0002FA A1                    INCW      AX                 ;; 1 cycle
   \   0002FB                       ; ------------------------------------- Block: 5 cycles
   \                     ??TestMyCode_63:
   \   0002FB B802                  MOVW      [SP+0x02], AX      ;; 1 cycle
   \   0002FD 15                    MOVW      AX, DE             ;; 1 cycle
   \   0002FE 317505                BF        A.7, ??TestMyCode_64  ;; 5 cycles
   \   000301                       ; ------------------------------------- Block: 7 cycles
   \   000301 30FFFF                MOVW      AX, #0xFFFF        ;; 1 cycle
   \   000304 EF08                  BR        S:??TestMyCode_65  ;; 3 cycles
   \   000306                       ; ------------------------------------- Block: 4 cycles
   \                     ??TestMyCode_64:
   \   000306 7C80                  XOR       A, #0x80           ;; 1 cycle
   \   000308 440180                CMPW      AX, #0x8001        ;; 1 cycle
   \   00030B DC03                  BC        ??TestMyCode_66    ;; 4 cycles
   \   00030D                       ; ------------------------------------- Block: 6 cycles
   \   00030D E6                    ONEW      AX                 ;; 1 cycle
   \   00030E                       ; ------------------------------------- Block: 1 cycles
   \                     ??TestMyCode_65:
   \   00030E B810                  MOVW      [SP+0x10], AX      ;; 1 cycle
   \   000310                       ; ------------------------------------- Block: 1 cycles
   \                     ??TestMyCode_66:
   \   000310 F6                    CLRW      AX                 ;; 1 cycle
   \   000311 B80C                  MOVW      [SP+0x0C], AX      ;; 1 cycle
   \   000313                       ; ------------------------------------- Block: 2 cycles
   \                     ??TestMyCode_62:
   \   000313 A800                  MOVW      AX, [SP]           ;; 1 cycle
   \   000315 311F                  SARW      AX, 0x1            ;; 1 cycle
   \   000317 B804                  MOVW      [SP+0x04], AX      ;; 1 cycle
   \   000319 F6                    CLRW      AX                 ;; 1 cycle
   \   00031A EF06                  BR        S:??TestMyCode_67  ;; 3 cycles
   \   00031C                       ; ------------------------------------- Block: 7 cycles
   \                     ??LCDDrawDialBackground_5:
   \   00031C B1                    DECW      AX                 ;; 1 cycle
   \   00031D B816                  MOVW      [SP+0x16], AX      ;; 1 cycle
   \   00031F A80E                  MOVW      AX, [SP+0x0E]      ;; 1 cycle
   \   000321 A1                    INCW      AX                 ;; 1 cycle
   \   000322                       ; ------------------------------------- Block: 4 cycles
   \                     ??TestMyCode_67:
   \   000322 B80E                  MOVW      [SP+0x0E], AX      ;; 1 cycle
   \   000324 12                    MOVW      BC, AX             ;; 1 cycle
   \   000325 A800                  MOVW      AX, [SP]           ;; 1 cycle
   \   000327 FD....                CALL      N:?SI_CMP_L02      ;; 3 cycles
   \   00032A DC4A                  BC        ??TestMyCode_53    ;; 4 cycles
   \   00032C                       ; ------------------------------------- Block: 10 cycles
   \   00032C E6                    ONEW      AX                 ;; 1 cycle
   \   00032D 14                    MOVW      DE, AX             ;; 1 cycle
   \   00032E A808                  MOVW      AX, [SP+0x08]      ;; 1 cycle
   \   000330 60                    MOV       A, X               ;; 1 cycle
   \   000331 73                    MOV       B, A               ;; 1 cycle
   \   000332 A80A                  MOVW      AX, [SP+0x0A]      ;; 1 cycle
   \   000334 E2                    ONEB      C                  ;; 1 cycle
   \   000335 60                    MOV       A, X               ;; 1 cycle
   \   000336 FD....                CALL      FBG_SetPixel       ;; 3 cycles
   \   000339 A802                  MOVW      AX, [SP+0x02]      ;; 1 cycle
   \   00033B 16                    MOVW      HL, AX             ;; 1 cycle
   \   00033C A804                  MOVW      AX, [SP+0x04]      ;; 1 cycle
   \   00033E 07                    ADDW      AX, HL             ;; 1 cycle
   \   00033F B804                  MOVW      [SP+0x04], AX      ;; 1 cycle
   \   000341 A800                  MOVW      AX, [SP]           ;; 1 cycle
   \   000343 12                    MOVW      BC, AX             ;; 1 cycle
   \   000344 A804                  MOVW      AX, [SP+0x04]      ;; 1 cycle
   \   000346 FD....                CALL      N:?SI_CMP_L02      ;; 3 cycles
   \   000349 DC14                  BC        ??TestMyCode_68    ;; 4 cycles
   \   00034B                       ; ------------------------------------- Block: 26 cycles
   \   00034B A800                  MOVW      AX, [SP]           ;; 1 cycle
   \   00034D 16                    MOVW      HL, AX             ;; 1 cycle
   \   00034E A804                  MOVW      AX, [SP+0x04]      ;; 1 cycle
   \   000350 27                    SUBW      AX, HL             ;; 1 cycle
   \   000351 B804                  MOVW      [SP+0x04], AX      ;; 1 cycle
   \   000353 A814                  MOVW      AX, [SP+0x14]      ;; 1 cycle
   \   000355 16                    MOVW      HL, AX             ;; 1 cycle
   \   000356 A80A                  MOVW      AX, [SP+0x0A]      ;; 1 cycle
   \   000358 07                    ADDW      AX, HL             ;; 1 cycle
   \   000359 B80A                  MOVW      [SP+0x0A], AX      ;; 1 cycle
   \   00035B A812                  MOVW      AX, [SP+0x12]      ;; 1 cycle
   \   00035D EF0A                  BR        S:??TestMyCode_69  ;; 3 cycles
   \   00035F                       ; ------------------------------------- Block: 14 cycles
   \                     ??TestMyCode_68:
   \   00035F A80C                  MOVW      AX, [SP+0x0C]      ;; 1 cycle
   \   000361 16                    MOVW      HL, AX             ;; 1 cycle
   \   000362 A80A                  MOVW      AX, [SP+0x0A]      ;; 1 cycle
   \   000364 07                    ADDW      AX, HL             ;; 1 cycle
   \   000365 B80A                  MOVW      [SP+0x0A], AX      ;; 1 cycle
   \   000367 A810                  MOVW      AX, [SP+0x10]      ;; 1 cycle
   \   000369                       ; ------------------------------------- Block: 6 cycles
   \                     ??TestMyCode_69:
   \   000369 16                    MOVW      HL, AX             ;; 1 cycle
   \   00036A A808                  MOVW      AX, [SP+0x08]      ;; 1 cycle
   \   00036C 07                    ADDW      AX, HL             ;; 1 cycle
   \   00036D B808                  MOVW      [SP+0x08], AX      ;; 1 cycle
   \   00036F A816                  MOVW      AX, [SP+0x16]      ;; 1 cycle
   \   000371 440000                CMPW      AX, #0x0           ;; 1 cycle
   \   000374 DFA6                  BNZ       ??LCDDrawDialBackground_5  ;; 4 cycles
   \   000376                       ; ------------------------------------- Block: 10 cycles
    220                }
    221              }
   \                     ??TestMyCode_53:
   \   000376 A806                  MOVW      AX, [SP+0x06]      ;; 1 cycle
   \   000378 A1                    INCW      AX                 ;; 1 cycle
   \   000379 B806                  MOVW      [SP+0x06], AX      ;; 1 cycle
   \   00037B 7C80                  XOR       A, #0x80           ;; 1 cycle
   \   00037D 446981                CMPW      AX, #0x8169        ;; 1 cycle
   \   000380 61D8                  SKNC                         ;; 4 cycles
   \   000382 ED....                BR        N:??LCDDrawDialBackground_4  ;; 4 cycles
   \   000385                       ; ------------------------------------- Block: 9 cycles
    222              p1.X = 0; p1.Y = 39;
    223              p2.X = LCD_W-1; p2.Y = 39;
    224              LCDDrawLine(&p1,&p2,1,1);
   \   000385 F6                    CLRW      AX                 ;; 1 cycle
   \   000386 B802                  MOVW      [SP+0x02], AX      ;; 1 cycle
   \   000388 502F                  MOV       X, #0x2F           ;; 1 cycle
   \   00038A B804                  MOVW      [SP+0x04], AX      ;; 1 cycle
   \   00038C 5160                  MOV       A, #0x60           ;; 1 cycle
   \   00038E 9800                  MOV       [SP], A            ;; 1 cycle
   \   000390                       ; ------------------------------------- Block: 6 cycles
   \                     ??LCDDrawDialBackground_6:
   \   000390 E6                    ONEW      AX                 ;; 1 cycle
   \   000391 14                    MOVW      DE, AX             ;; 1 cycle
   \   000392 A802                  MOVW      AX, [SP+0x02]      ;; 1 cycle
   \   000394 E2                    ONEB      C                  ;; 1 cycle
   \   000395 5327                  MOV       B, #0x27           ;; 1 cycle
   \   000397 60                    MOV       A, X               ;; 1 cycle
   \   000398 FD....                CALL      FBG_SetPixel       ;; 3 cycles
   \   00039B A804                  MOVW      AX, [SP+0x04]      ;; 1 cycle
   \   00039D 7C80                  XOR       A, #0x80           ;; 1 cycle
   \   00039F 445F80                CMPW      AX, #0x805F        ;; 1 cycle
   \   0003A2 DC07                  BC        ??TestMyCode_70    ;; 4 cycles
   \   0003A4                       ; ------------------------------------- Block: 16 cycles
   \   0003A4 A804                  MOVW      AX, [SP+0x04]      ;; 1 cycle
   \   0003A6 04A1FF                ADDW      AX, #0xFFA1        ;; 1 cycle
   \   0003A9 B804                  MOVW      [SP+0x04], AX      ;; 1 cycle
   \   0003AB                       ; ------------------------------------- Block: 3 cycles
   \                     ??TestMyCode_70:
   \   0003AB A802                  MOVW      AX, [SP+0x02]      ;; 1 cycle
   \   0003AD A1                    INCW      AX                 ;; 1 cycle
   \   0003AE B802                  MOVW      [SP+0x02], AX      ;; 1 cycle
   \   0003B0 8800                  MOV       A, [SP]            ;; 1 cycle
   \   0003B2 91                    DEC       A                  ;; 1 cycle
   \   0003B3 9800                  MOV       [SP], A            ;; 1 cycle
   \   0003B5 DFD9                  BNZ       ??LCDDrawDialBackground_6  ;; 4 cycles
   \   0003B7                       ; ------------------------------------- Block: 10 cycles
    225          }
   \   0003B7 1018                  ADDW      SP, #0x18          ;; 1 cycle
   \   0003B9 C4                    POP       DE                 ;; 1 cycle
   \   0003BA C2                    POP       BC                 ;; 1 cycle
   \   0003BB D7                    RET                          ;; 6 cycles
   \   0003BC                       ; ------------------------------------- Block: 9 cycles
   \   0003BC                       ; ------------------------------------- Total: 705 cycles
   \   0003BC                       REQUIRE ?CLRL78_V1_0_L00
    226          
    227          // Draw needle at given input value on the Dial

   \                                 In  segment CODE, align 1, keep-with-next
    228          void LCDDrawDialNeedle(float input_value)
   \                     LCDDrawDialNeedle:
    229          {
   \   000000 C5                    PUSH      DE                 ;; 1 cycle
   \   000001 202C                  SUBW      SP, #0x2C          ;; 1 cycle
    230          int e_x = 0, e_y = LCD_H>>2;
    231          int i_x = (LCD_W>>2)+8, i_y = (LCD_H>>2);
    232          int l_x = (LCD_W>>2), l_y = (LCD_H>>2)+4;
    233          int r_x = (LCD_W>>2), r_y = (LCD_H>>2)-4;
    234          float theta = 180+ (18 * (input_value));
   \   000003 363443                MOVW      HL, #0x4334        ;; 1 cycle
   \   000006 C7                    PUSH      HL                 ;; 1 cycle
   \   000007 360000                MOVW      HL, #0x0           ;; 1 cycle
   \   00000A C7                    PUSH      HL                 ;; 1 cycle
   \   00000B 369041                MOVW      HL, #0x4190        ;; 1 cycle
   \   00000E C7                    PUSH      HL                 ;; 1 cycle
   \   00000F 360000                MOVW      HL, #0x0           ;; 1 cycle
   \   000012 C7                    PUSH      HL                 ;; 1 cycle
   \   000013                       ; * Stack frame (at entry) *
   \   000013                       ; Param size: 0
   \   000013                       ; Auto size: 44
   \   000013 FD....                CALL      N:?F_MUL           ;; 3 cycles
   \   000016 1004                  ADDW      SP, #0x4           ;; 1 cycle
   \   000018 FD....                CALL      N:?F_ADD           ;; 3 cycles
   \   00001B 1004                  ADDW      SP, #0x4           ;; 1 cycle
   \   00001D 16                    MOVW      HL, AX             ;; 1 cycle
   \   00001E B80C                  MOVW      [SP+0x0C], AX      ;; 1 cycle
   \   000020 13                    MOVW      AX, BC             ;; 1 cycle
   \   000021 B80E                  MOVW      [SP+0x0E], AX      ;; 1 cycle
    235          PointT p1;
    236          PointT p2,p3,p4;
    237          e_x = 48*taylor_cos(theta*PIby180) + 48;
   \   000023 30C93F                MOVW      AX, #0x3FC9        ;; 1 cycle
   \   000026 C1                    PUSH      AX                 ;; 1 cycle
   \   000027 30DB0F                MOVW      AX, #0xFDB         ;; 1 cycle
   \   00002A C1                    PUSH      AX                 ;; 1 cycle
   \   00002B 308E3C                MOVW      AX, #0x3C8E        ;; 1 cycle
   \   00002E C1                    PUSH      AX                 ;; 1 cycle
   \   00002F 3035FA                MOVW      AX, #0xFA35        ;; 1 cycle
   \   000032 C1                    PUSH      AX                 ;; 1 cycle
   \   000033 17                    MOVW      AX, HL             ;; 1 cycle
   \   000034 FD....                CALL      N:?F_MUL           ;; 3 cycles
   \   000037 1004                  ADDW      SP, #0x4           ;; 1 cycle
   \   000039 FD....                CALL      N:?F_ADD           ;; 3 cycles
   \   00003C 1004                  ADDW      SP, #0x4           ;; 1 cycle
   \   00003E 364940                MOVW      HL, #0x4049        ;; 1 cycle
   \   000041 C7                    PUSH      HL                 ;; 1 cycle
   \   000042 36DC0F                MOVW      HL, #0xFDC         ;; 1 cycle
   \   000045 C7                    PUSH      HL                 ;; 1 cycle
   \   000046 FD....                CALL      N:?FCMP_GE         ;; 3 cycles
   \   000049 1004                  ADDW      SP, #0x4           ;; 1 cycle
   \   00004B DC0D                  BC        ??TestMyCode_71    ;; 4 cycles
   \   00004D                       ; ------------------------------------- Block: 51 cycles
   \   00004D 36C9C0                MOVW      HL, #0xC0C9        ;; 1 cycle
   \   000050 C7                    PUSH      HL                 ;; 1 cycle
   \   000051 36DB0F                MOVW      HL, #0xFDB         ;; 1 cycle
   \   000054 C7                    PUSH      HL                 ;; 1 cycle
   \   000055 FD....                CALL      N:?F_ADD           ;; 3 cycles
   \   000058 1004                  ADDW      SP, #0x4           ;; 1 cycle
   \   00005A                       ; ------------------------------------- Block: 8 cycles
   \                     ??TestMyCode_71:
   \   00005A 360000                MOVW      HL, #0x0           ;; 1 cycle
   \   00005D C7                    PUSH      HL                 ;; 1 cycle
   \   00005E C7                    PUSH      HL                 ;; 1 cycle
   \   00005F FD....                CALL      N:?FCMP_LT         ;; 3 cycles
   \   000062 1004                  ADDW      SP, #0x4           ;; 1 cycle
   \   000064 DE1C                  BNC       ??TestMyCode_72    ;; 4 cycles
   \   000066                       ; ------------------------------------- Block: 11 cycles
   \   000066 C3                    PUSH      BC                 ;; 1 cycle
   \   000067 C1                    PUSH      AX                 ;; 1 cycle
   \   000068 36A23F                MOVW      HL, #0x3FA2        ;; 1 cycle
   \   00006B C7                    PUSH      HL                 ;; 1 cycle
   \   00006C 3683F9                MOVW      HL, #0xF983        ;; 1 cycle
   \   00006F C7                    PUSH      HL                 ;; 1 cycle
   \   000070 36CF3E                MOVW      HL, #0x3ECF        ;; 1 cycle
   \   000073 C7                    PUSH      HL                 ;; 1 cycle
   \   000074 367B81                MOVW      HL, #0x817B        ;; 1 cycle
   \   000077 C7                    PUSH      HL                 ;; 1 cycle
   \   000078 FD....                CALL      N:?F_MUL           ;; 3 cycles
   \   00007B 1004                  ADDW      SP, #0x4           ;; 1 cycle
   \   00007D FD....                CALL      N:?F_ADD           ;; 3 cycles
   \   000080 EF1A                  BR        S:??TestMyCode_73  ;; 3 cycles
   \   000082                       ; ------------------------------------- Block: 20 cycles
   \                     ??TestMyCode_72:
   \   000082 C3                    PUSH      BC                 ;; 1 cycle
   \   000083 C1                    PUSH      AX                 ;; 1 cycle
   \   000084 36CF3E                MOVW      HL, #0x3ECF        ;; 1 cycle
   \   000087 C7                    PUSH      HL                 ;; 1 cycle
   \   000088 367B81                MOVW      HL, #0x817B        ;; 1 cycle
   \   00008B C7                    PUSH      HL                 ;; 1 cycle
   \   00008C FD....                CALL      N:?F_MUL           ;; 3 cycles
   \   00008F 1004                  ADDW      SP, #0x4           ;; 1 cycle
   \   000091 C3                    PUSH      BC                 ;; 1 cycle
   \   000092 C1                    PUSH      AX                 ;; 1 cycle
   \   000093 3083F9                MOVW      AX, #0xF983        ;; 1 cycle
   \   000096 32A23F                MOVW      BC, #0x3FA2        ;; 1 cycle
   \   000099 FD....                CALL      N:?F_SUB           ;; 3 cycles
   \   00009C                       ; ------------------------------------- Block: 17 cycles
   \                     ??TestMyCode_73:
   \   00009C 1004                  ADDW      SP, #0x4           ;; 1 cycle
   \   00009E FD....                CALL      N:?F_MUL           ;; 3 cycles
   \   0000A1 1004                  ADDW      SP, #0x4           ;; 1 cycle
   \   0000A3 B828                  MOVW      [SP+0x28], AX      ;; 1 cycle
   \   0000A5 13                    MOVW      AX, BC             ;; 1 cycle
   \   0000A6 B82A                  MOVW      [SP+0x2A], AX      ;; 1 cycle
    238          e_y = 32*taylor_sin(theta*PIby180) + 39;
   \   0000A8 308E3C                MOVW      AX, #0x3C8E        ;; 1 cycle
   \   0000AB C1                    PUSH      AX                 ;; 1 cycle
   \   0000AC 3035FA                MOVW      AX, #0xFA35        ;; 1 cycle
   \   0000AF C1                    PUSH      AX                 ;; 1 cycle
   \   0000B0 A812                  MOVW      AX, [SP+0x12]      ;; 1 cycle
   \   0000B2 12                    MOVW      BC, AX             ;; 1 cycle
   \   0000B3 A810                  MOVW      AX, [SP+0x10]      ;; 1 cycle
   \   0000B5 FD....                CALL      N:?F_MUL           ;; 3 cycles
   \   0000B8 1004                  ADDW      SP, #0x4           ;; 1 cycle
   \   0000BA B800                  MOVW      [SP], AX           ;; 1 cycle
   \   0000BC 13                    MOVW      AX, BC             ;; 1 cycle
   \   0000BD B802                  MOVW      [SP+0x02], AX      ;; 1 cycle
   \   0000BF 3049C0                MOVW      AX, #0xC049        ;; 1 cycle
   \   0000C2 C1                    PUSH      AX                 ;; 1 cycle
   \   0000C3 30DB0F                MOVW      AX, #0xFDB         ;; 1 cycle
   \   0000C6 C1                    PUSH      AX                 ;; 1 cycle
   \   0000C7 A804                  MOVW      AX, [SP+0x04]      ;; 1 cycle
   \   0000C9 FD....                CALL      N:?FCMP_LT         ;; 3 cycles
   \   0000CC 1004                  ADDW      SP, #0x4           ;; 1 cycle
   \   0000CE DE05                  BNC       ??TestMyCode_74    ;; 4 cycles
   \   0000D0                       ; ------------------------------------- Block: 35 cycles
   \   0000D0 30C940                MOVW      AX, #0x40C9        ;; 1 cycle
   \   0000D3 EF14                  BR        S:??TestMyCode_75  ;; 3 cycles
   \   0000D5                       ; ------------------------------------- Block: 4 cycles
   \                     ??TestMyCode_74:
   \   0000D5 304940                MOVW      AX, #0x4049        ;; 1 cycle
   \   0000D8 C1                    PUSH      AX                 ;; 1 cycle
   \   0000D9 30DC0F                MOVW      AX, #0xFDC         ;; 1 cycle
   \   0000DC C1                    PUSH      AX                 ;; 1 cycle
   \   0000DD A804                  MOVW      AX, [SP+0x04]      ;; 1 cycle
   \   0000DF FD....                CALL      N:?FCMP_GE         ;; 3 cycles
   \   0000E2 1004                  ADDW      SP, #0x4           ;; 1 cycle
   \   0000E4 DC14                  BC        ??TestMyCode_76    ;; 4 cycles
   \   0000E6                       ; ------------------------------------- Block: 13 cycles
   \   0000E6 30C9C0                MOVW      AX, #0xC0C9        ;; 1 cycle
   \   0000E9                       ; ------------------------------------- Block: 1 cycles
   \                     ??TestMyCode_75:
   \   0000E9 C1                    PUSH      AX                 ;; 1 cycle
   \   0000EA 30DB0F                MOVW      AX, #0xFDB         ;; 1 cycle
   \   0000ED C1                    PUSH      AX                 ;; 1 cycle
   \   0000EE A804                  MOVW      AX, [SP+0x04]      ;; 1 cycle
   \   0000F0 FD....                CALL      N:?F_ADD           ;; 3 cycles
   \   0000F3 1004                  ADDW      SP, #0x4           ;; 1 cycle
   \   0000F5 B800                  MOVW      [SP], AX           ;; 1 cycle
   \   0000F7 13                    MOVW      AX, BC             ;; 1 cycle
   \   0000F8 B802                  MOVW      [SP+0x02], AX      ;; 1 cycle
   \   0000FA                       ; ------------------------------------- Block: 11 cycles
   \                     ??TestMyCode_76:
   \   0000FA F6                    CLRW      AX                 ;; 1 cycle
   \   0000FB C1                    PUSH      AX                 ;; 1 cycle
   \   0000FC C1                    PUSH      AX                 ;; 1 cycle
   \   0000FD A806                  MOVW      AX, [SP+0x06]      ;; 1 cycle
   \   0000FF 12                    MOVW      BC, AX             ;; 1 cycle
   \   000100 A804                  MOVW      AX, [SP+0x04]      ;; 1 cycle
   \   000102 FD....                CALL      N:?FCMP_LT         ;; 3 cycles
   \   000105 1004                  ADDW      SP, #0x4           ;; 1 cycle
   \   000107 DE2C                  BNC       ??TestMyCode_77    ;; 4 cycles
   \   000109                       ; ------------------------------------- Block: 14 cycles
   \   000109 C3                    PUSH      BC                 ;; 1 cycle
   \   00010A C1                    PUSH      AX                 ;; 1 cycle
   \   00010B 30CF3E                MOVW      AX, #0x3ECF        ;; 1 cycle
   \   00010E C1                    PUSH      AX                 ;; 1 cycle
   \   00010F C7                    PUSH      HL                 ;; 1 cycle
   \   000110 A808                  MOVW      AX, [SP+0x08]      ;; 1 cycle
   \   000112 FD....                CALL      N:?F_MUL           ;; 3 cycles
   \   000115 1004                  ADDW      SP, #0x4           ;; 1 cycle
   \   000117 FD....                CALL      N:?F_MUL           ;; 3 cycles
   \   00011A 1004                  ADDW      SP, #0x4           ;; 1 cycle
   \   00011C C3                    PUSH      BC                 ;; 1 cycle
   \   00011D C1                    PUSH      AX                 ;; 1 cycle
   \   00011E 30A23F                MOVW      AX, #0x3FA2        ;; 1 cycle
   \   000121 C1                    PUSH      AX                 ;; 1 cycle
   \   000122 3083F9                MOVW      AX, #0xF983        ;; 1 cycle
   \   000125 C1                    PUSH      AX                 ;; 1 cycle
   \   000126 A80A                  MOVW      AX, [SP+0x0A]      ;; 1 cycle
   \   000128 12                    MOVW      BC, AX             ;; 1 cycle
   \   000129 A808                  MOVW      AX, [SP+0x08]      ;; 1 cycle
   \   00012B FD....                CALL      N:?F_MUL           ;; 3 cycles
   \   00012E 1004                  ADDW      SP, #0x4           ;; 1 cycle
   \   000130 FD....                CALL      N:?F_ADD           ;; 3 cycles
   \   000133 EF2A                  BR        S:??TestMyCode_78  ;; 3 cycles
   \   000135                       ; ------------------------------------- Block: 33 cycles
   \                     ??TestMyCode_77:
   \   000135 C3                    PUSH      BC                 ;; 1 cycle
   \   000136 C1                    PUSH      AX                 ;; 1 cycle
   \   000137 30CF3E                MOVW      AX, #0x3ECF        ;; 1 cycle
   \   00013A C1                    PUSH      AX                 ;; 1 cycle
   \   00013B C7                    PUSH      HL                 ;; 1 cycle
   \   00013C A808                  MOVW      AX, [SP+0x08]      ;; 1 cycle
   \   00013E FD....                CALL      N:?F_MUL           ;; 3 cycles
   \   000141 1004                  ADDW      SP, #0x4           ;; 1 cycle
   \   000143 FD....                CALL      N:?F_MUL           ;; 3 cycles
   \   000146 1004                  ADDW      SP, #0x4           ;; 1 cycle
   \   000148 C3                    PUSH      BC                 ;; 1 cycle
   \   000149 C1                    PUSH      AX                 ;; 1 cycle
   \   00014A 30A23F                MOVW      AX, #0x3FA2        ;; 1 cycle
   \   00014D C1                    PUSH      AX                 ;; 1 cycle
   \   00014E 3083F9                MOVW      AX, #0xF983        ;; 1 cycle
   \   000151 C1                    PUSH      AX                 ;; 1 cycle
   \   000152 A80A                  MOVW      AX, [SP+0x0A]      ;; 1 cycle
   \   000154 12                    MOVW      BC, AX             ;; 1 cycle
   \   000155 A808                  MOVW      AX, [SP+0x08]      ;; 1 cycle
   \   000157 FD....                CALL      N:?F_MUL           ;; 3 cycles
   \   00015A 1004                  ADDW      SP, #0x4           ;; 1 cycle
   \   00015C FD....                CALL      N:?F_SUB           ;; 3 cycles
   \   00015F                       ; ------------------------------------- Block: 30 cycles
   \                     ??TestMyCode_78:
   \   00015F 1004                  ADDW      SP, #0x4           ;; 1 cycle
   \   000161 B824                  MOVW      [SP+0x24], AX      ;; 1 cycle
   \   000163 13                    MOVW      AX, BC             ;; 1 cycle
   \   000164 B826                  MOVW      [SP+0x26], AX      ;; 1 cycle
    239          i_x = 8*taylor_cos(((theta-180)*PIby180)) + 48;
   \   000166 30C93F                MOVW      AX, #0x3FC9        ;; 1 cycle
   \   000169 C1                    PUSH      AX                 ;; 1 cycle
   \   00016A 30DB0F                MOVW      AX, #0xFDB         ;; 1 cycle
   \   00016D C1                    PUSH      AX                 ;; 1 cycle
   \   00016E 308E3C                MOVW      AX, #0x3C8E        ;; 1 cycle
   \   000171 C1                    PUSH      AX                 ;; 1 cycle
   \   000172 3035FA                MOVW      AX, #0xFA35        ;; 1 cycle
   \   000175 C1                    PUSH      AX                 ;; 1 cycle
   \   000176 3034C3                MOVW      AX, #0xC334        ;; 1 cycle
   \   000179 C1                    PUSH      AX                 ;; 1 cycle
   \   00017A F6                    CLRW      AX                 ;; 1 cycle
   \   00017B C1                    PUSH      AX                 ;; 1 cycle
   \   00017C A81A                  MOVW      AX, [SP+0x1A]      ;; 1 cycle
   \   00017E 12                    MOVW      BC, AX             ;; 1 cycle
   \   00017F A818                  MOVW      AX, [SP+0x18]      ;; 1 cycle
   \   000181 FD....                CALL      N:?F_ADD           ;; 3 cycles
   \   000184 1004                  ADDW      SP, #0x4           ;; 1 cycle
   \   000186 FD....                CALL      N:?F_MUL           ;; 3 cycles
   \   000189 1004                  ADDW      SP, #0x4           ;; 1 cycle
   \   00018B FD....                CALL      N:?F_ADD           ;; 3 cycles
   \   00018E 1004                  ADDW      SP, #0x4           ;; 1 cycle
   \   000190 364940                MOVW      HL, #0x4049        ;; 1 cycle
   \   000193 C7                    PUSH      HL                 ;; 1 cycle
   \   000194 36DC0F                MOVW      HL, #0xFDC         ;; 1 cycle
   \   000197 C7                    PUSH      HL                 ;; 1 cycle
   \   000198 FD....                CALL      N:?FCMP_GE         ;; 3 cycles
   \   00019B 1004                  ADDW      SP, #0x4           ;; 1 cycle
   \   00019D DC0D                  BC        ??TestMyCode_79    ;; 4 cycles
   \   00019F                       ; ------------------------------------- Block: 43 cycles
   \   00019F 36C9C0                MOVW      HL, #0xC0C9        ;; 1 cycle
   \   0001A2 C7                    PUSH      HL                 ;; 1 cycle
   \   0001A3 36DB0F                MOVW      HL, #0xFDB         ;; 1 cycle
   \   0001A6 C7                    PUSH      HL                 ;; 1 cycle
   \   0001A7 FD....                CALL      N:?F_ADD           ;; 3 cycles
   \   0001AA 1004                  ADDW      SP, #0x4           ;; 1 cycle
   \   0001AC                       ; ------------------------------------- Block: 8 cycles
   \                     ??TestMyCode_79:
   \   0001AC 360000                MOVW      HL, #0x0           ;; 1 cycle
   \   0001AF C7                    PUSH      HL                 ;; 1 cycle
   \   0001B0 C7                    PUSH      HL                 ;; 1 cycle
   \   0001B1 FD....                CALL      N:?FCMP_LT         ;; 3 cycles
   \   0001B4 1004                  ADDW      SP, #0x4           ;; 1 cycle
   \   0001B6 DE1C                  BNC       ??TestMyCode_80    ;; 4 cycles
   \   0001B8                       ; ------------------------------------- Block: 11 cycles
   \   0001B8 C3                    PUSH      BC                 ;; 1 cycle
   \   0001B9 C1                    PUSH      AX                 ;; 1 cycle
   \   0001BA 36A23F                MOVW      HL, #0x3FA2        ;; 1 cycle
   \   0001BD C7                    PUSH      HL                 ;; 1 cycle
   \   0001BE 3683F9                MOVW      HL, #0xF983        ;; 1 cycle
   \   0001C1 C7                    PUSH      HL                 ;; 1 cycle
   \   0001C2 36CF3E                MOVW      HL, #0x3ECF        ;; 1 cycle
   \   0001C5 C7                    PUSH      HL                 ;; 1 cycle
   \   0001C6 367B81                MOVW      HL, #0x817B        ;; 1 cycle
   \   0001C9 C7                    PUSH      HL                 ;; 1 cycle
   \   0001CA FD....                CALL      N:?F_MUL           ;; 3 cycles
   \   0001CD 1004                  ADDW      SP, #0x4           ;; 1 cycle
   \   0001CF FD....                CALL      N:?F_ADD           ;; 3 cycles
   \   0001D2 EF1A                  BR        S:??TestMyCode_81  ;; 3 cycles
   \   0001D4                       ; ------------------------------------- Block: 20 cycles
   \                     ??TestMyCode_80:
   \   0001D4 C3                    PUSH      BC                 ;; 1 cycle
   \   0001D5 C1                    PUSH      AX                 ;; 1 cycle
   \   0001D6 36CF3E                MOVW      HL, #0x3ECF        ;; 1 cycle
   \   0001D9 C7                    PUSH      HL                 ;; 1 cycle
   \   0001DA 367B81                MOVW      HL, #0x817B        ;; 1 cycle
   \   0001DD C7                    PUSH      HL                 ;; 1 cycle
   \   0001DE FD....                CALL      N:?F_MUL           ;; 3 cycles
   \   0001E1 1004                  ADDW      SP, #0x4           ;; 1 cycle
   \   0001E3 C3                    PUSH      BC                 ;; 1 cycle
   \   0001E4 C1                    PUSH      AX                 ;; 1 cycle
   \   0001E5 3083F9                MOVW      AX, #0xF983        ;; 1 cycle
   \   0001E8 32A23F                MOVW      BC, #0x3FA2        ;; 1 cycle
   \   0001EB FD....                CALL      N:?F_SUB           ;; 3 cycles
   \   0001EE                       ; ------------------------------------- Block: 17 cycles
   \                     ??TestMyCode_81:
   \   0001EE 1004                  ADDW      SP, #0x4           ;; 1 cycle
   \   0001F0 FD....                CALL      N:?F_MUL           ;; 3 cycles
   \   0001F3 1004                  ADDW      SP, #0x4           ;; 1 cycle
   \   0001F5 B820                  MOVW      [SP+0x20], AX      ;; 1 cycle
   \   0001F7 13                    MOVW      AX, BC             ;; 1 cycle
   \   0001F8 B822                  MOVW      [SP+0x22], AX      ;; 1 cycle
    240          i_y = 5.3*taylor_sin(((theta-180)*PIby180)) + 39; // 2/3 of 8
   \   0001FA 308E3C                MOVW      AX, #0x3C8E        ;; 1 cycle
   \   0001FD C1                    PUSH      AX                 ;; 1 cycle
   \   0001FE 3035FA                MOVW      AX, #0xFA35        ;; 1 cycle
   \   000201 C1                    PUSH      AX                 ;; 1 cycle
   \   000202 3034C3                MOVW      AX, #0xC334        ;; 1 cycle
   \   000205 C1                    PUSH      AX                 ;; 1 cycle
   \   000206 F6                    CLRW      AX                 ;; 1 cycle
   \   000207 C1                    PUSH      AX                 ;; 1 cycle
   \   000208 A816                  MOVW      AX, [SP+0x16]      ;; 1 cycle
   \   00020A 12                    MOVW      BC, AX             ;; 1 cycle
   \   00020B A814                  MOVW      AX, [SP+0x14]      ;; 1 cycle
   \   00020D FD....                CALL      N:?F_ADD           ;; 3 cycles
   \   000210 1004                  ADDW      SP, #0x4           ;; 1 cycle
   \   000212 FD....                CALL      N:?F_MUL           ;; 3 cycles
   \   000215 1004                  ADDW      SP, #0x4           ;; 1 cycle
   \   000217 B800                  MOVW      [SP], AX           ;; 1 cycle
   \   000219 13                    MOVW      AX, BC             ;; 1 cycle
   \   00021A B802                  MOVW      [SP+0x02], AX      ;; 1 cycle
   \   00021C 3049C0                MOVW      AX, #0xC049        ;; 1 cycle
   \   00021F C1                    PUSH      AX                 ;; 1 cycle
   \   000220 30DB0F                MOVW      AX, #0xFDB         ;; 1 cycle
   \   000223 C1                    PUSH      AX                 ;; 1 cycle
   \   000224 A804                  MOVW      AX, [SP+0x04]      ;; 1 cycle
   \   000226 FD....                CALL      N:?FCMP_LT         ;; 3 cycles
   \   000229 1004                  ADDW      SP, #0x4           ;; 1 cycle
   \   00022B DE05                  BNC       ??TestMyCode_82    ;; 4 cycles
   \   00022D                       ; ------------------------------------- Block: 43 cycles
   \   00022D 30C940                MOVW      AX, #0x40C9        ;; 1 cycle
   \   000230 EF14                  BR        S:??TestMyCode_83  ;; 3 cycles
   \   000232                       ; ------------------------------------- Block: 4 cycles
   \                     ??TestMyCode_82:
   \   000232 304940                MOVW      AX, #0x4049        ;; 1 cycle
   \   000235 C1                    PUSH      AX                 ;; 1 cycle
   \   000236 30DC0F                MOVW      AX, #0xFDC         ;; 1 cycle
   \   000239 C1                    PUSH      AX                 ;; 1 cycle
   \   00023A A804                  MOVW      AX, [SP+0x04]      ;; 1 cycle
   \   00023C FD....                CALL      N:?FCMP_GE         ;; 3 cycles
   \   00023F 1004                  ADDW      SP, #0x4           ;; 1 cycle
   \   000241 DC14                  BC        ??TestMyCode_84    ;; 4 cycles
   \   000243                       ; ------------------------------------- Block: 13 cycles
   \   000243 30C9C0                MOVW      AX, #0xC0C9        ;; 1 cycle
   \   000246                       ; ------------------------------------- Block: 1 cycles
   \                     ??TestMyCode_83:
   \   000246 C1                    PUSH      AX                 ;; 1 cycle
   \   000247 30DB0F                MOVW      AX, #0xFDB         ;; 1 cycle
   \   00024A C1                    PUSH      AX                 ;; 1 cycle
   \   00024B A804                  MOVW      AX, [SP+0x04]      ;; 1 cycle
   \   00024D FD....                CALL      N:?F_ADD           ;; 3 cycles
   \   000250 1004                  ADDW      SP, #0x4           ;; 1 cycle
   \   000252 B800                  MOVW      [SP], AX           ;; 1 cycle
   \   000254 13                    MOVW      AX, BC             ;; 1 cycle
   \   000255 B802                  MOVW      [SP+0x02], AX      ;; 1 cycle
   \   000257                       ; ------------------------------------- Block: 11 cycles
   \                     ??TestMyCode_84:
   \   000257 F6                    CLRW      AX                 ;; 1 cycle
   \   000258 C1                    PUSH      AX                 ;; 1 cycle
   \   000259 C1                    PUSH      AX                 ;; 1 cycle
   \   00025A A806                  MOVW      AX, [SP+0x06]      ;; 1 cycle
   \   00025C 12                    MOVW      BC, AX             ;; 1 cycle
   \   00025D A804                  MOVW      AX, [SP+0x04]      ;; 1 cycle
   \   00025F FD....                CALL      N:?FCMP_LT         ;; 3 cycles
   \   000262 1004                  ADDW      SP, #0x4           ;; 1 cycle
   \   000264 DE2C                  BNC       ??TestMyCode_85    ;; 4 cycles
   \   000266                       ; ------------------------------------- Block: 14 cycles
   \   000266 C3                    PUSH      BC                 ;; 1 cycle
   \   000267 C1                    PUSH      AX                 ;; 1 cycle
   \   000268 30CF3E                MOVW      AX, #0x3ECF        ;; 1 cycle
   \   00026B C1                    PUSH      AX                 ;; 1 cycle
   \   00026C C7                    PUSH      HL                 ;; 1 cycle
   \   00026D A808                  MOVW      AX, [SP+0x08]      ;; 1 cycle
   \   00026F FD....                CALL      N:?F_MUL           ;; 3 cycles
   \   000272 1004                  ADDW      SP, #0x4           ;; 1 cycle
   \   000274 FD....                CALL      N:?F_MUL           ;; 3 cycles
   \   000277 1004                  ADDW      SP, #0x4           ;; 1 cycle
   \   000279 C3                    PUSH      BC                 ;; 1 cycle
   \   00027A C1                    PUSH      AX                 ;; 1 cycle
   \   00027B 30A23F                MOVW      AX, #0x3FA2        ;; 1 cycle
   \   00027E C1                    PUSH      AX                 ;; 1 cycle
   \   00027F 3083F9                MOVW      AX, #0xF983        ;; 1 cycle
   \   000282 C1                    PUSH      AX                 ;; 1 cycle
   \   000283 A80A                  MOVW      AX, [SP+0x0A]      ;; 1 cycle
   \   000285 12                    MOVW      BC, AX             ;; 1 cycle
   \   000286 A808                  MOVW      AX, [SP+0x08]      ;; 1 cycle
   \   000288 FD....                CALL      N:?F_MUL           ;; 3 cycles
   \   00028B 1004                  ADDW      SP, #0x4           ;; 1 cycle
   \   00028D FD....                CALL      N:?F_ADD           ;; 3 cycles
   \   000290 EF2A                  BR        S:??TestMyCode_86  ;; 3 cycles
   \   000292                       ; ------------------------------------- Block: 33 cycles
   \                     ??TestMyCode_85:
   \   000292 C3                    PUSH      BC                 ;; 1 cycle
   \   000293 C1                    PUSH      AX                 ;; 1 cycle
   \   000294 30CF3E                MOVW      AX, #0x3ECF        ;; 1 cycle
   \   000297 C1                    PUSH      AX                 ;; 1 cycle
   \   000298 C7                    PUSH      HL                 ;; 1 cycle
   \   000299 A808                  MOVW      AX, [SP+0x08]      ;; 1 cycle
   \   00029B FD....                CALL      N:?F_MUL           ;; 3 cycles
   \   00029E 1004                  ADDW      SP, #0x4           ;; 1 cycle
   \   0002A0 FD....                CALL      N:?F_MUL           ;; 3 cycles
   \   0002A3 1004                  ADDW      SP, #0x4           ;; 1 cycle
   \   0002A5 C3                    PUSH      BC                 ;; 1 cycle
   \   0002A6 C1                    PUSH      AX                 ;; 1 cycle
   \   0002A7 30A23F                MOVW      AX, #0x3FA2        ;; 1 cycle
   \   0002AA C1                    PUSH      AX                 ;; 1 cycle
   \   0002AB 3083F9                MOVW      AX, #0xF983        ;; 1 cycle
   \   0002AE C1                    PUSH      AX                 ;; 1 cycle
   \   0002AF A80A                  MOVW      AX, [SP+0x0A]      ;; 1 cycle
   \   0002B1 12                    MOVW      BC, AX             ;; 1 cycle
   \   0002B2 A808                  MOVW      AX, [SP+0x08]      ;; 1 cycle
   \   0002B4 FD....                CALL      N:?F_MUL           ;; 3 cycles
   \   0002B7 1004                  ADDW      SP, #0x4           ;; 1 cycle
   \   0002B9 FD....                CALL      N:?F_SUB           ;; 3 cycles
   \   0002BC                       ; ------------------------------------- Block: 30 cycles
   \                     ??TestMyCode_86:
   \   0002BC 1004                  ADDW      SP, #0x4           ;; 1 cycle
   \   0002BE B81C                  MOVW      [SP+0x1C], AX      ;; 1 cycle
   \   0002C0 13                    MOVW      AX, BC             ;; 1 cycle
   \   0002C1 B81E                  MOVW      [SP+0x1E], AX      ;; 1 cycle
    241          l_x = 4*taylor_cos(((theta+90)*PIby180)) + 48;
   \   0002C3 30C93F                MOVW      AX, #0x3FC9        ;; 1 cycle
   \   0002C6 C1                    PUSH      AX                 ;; 1 cycle
   \   0002C7 30DB0F                MOVW      AX, #0xFDB         ;; 1 cycle
   \   0002CA C1                    PUSH      AX                 ;; 1 cycle
   \   0002CB 308E3C                MOVW      AX, #0x3C8E        ;; 1 cycle
   \   0002CE C1                    PUSH      AX                 ;; 1 cycle
   \   0002CF 3035FA                MOVW      AX, #0xFA35        ;; 1 cycle
   \   0002D2 C1                    PUSH      AX                 ;; 1 cycle
   \   0002D3 30B442                MOVW      AX, #0x42B4        ;; 1 cycle
   \   0002D6 C1                    PUSH      AX                 ;; 1 cycle
   \   0002D7 F6                    CLRW      AX                 ;; 1 cycle
   \   0002D8 C1                    PUSH      AX                 ;; 1 cycle
   \   0002D9 A81A                  MOVW      AX, [SP+0x1A]      ;; 1 cycle
   \   0002DB 12                    MOVW      BC, AX             ;; 1 cycle
   \   0002DC A818                  MOVW      AX, [SP+0x18]      ;; 1 cycle
   \   0002DE FD....                CALL      N:?F_ADD           ;; 3 cycles
   \   0002E1 1004                  ADDW      SP, #0x4           ;; 1 cycle
   \   0002E3 FD....                CALL      N:?F_MUL           ;; 3 cycles
   \   0002E6 1004                  ADDW      SP, #0x4           ;; 1 cycle
   \   0002E8 FD....                CALL      N:?F_ADD           ;; 3 cycles
   \   0002EB 1004                  ADDW      SP, #0x4           ;; 1 cycle
   \   0002ED 364940                MOVW      HL, #0x4049        ;; 1 cycle
   \   0002F0 C7                    PUSH      HL                 ;; 1 cycle
   \   0002F1 36DC0F                MOVW      HL, #0xFDC         ;; 1 cycle
   \   0002F4 C7                    PUSH      HL                 ;; 1 cycle
   \   0002F5 FD....                CALL      N:?FCMP_GE         ;; 3 cycles
   \   0002F8 1004                  ADDW      SP, #0x4           ;; 1 cycle
   \   0002FA DC0D                  BC        ??TestMyCode_87    ;; 4 cycles
   \   0002FC                       ; ------------------------------------- Block: 43 cycles
   \   0002FC 36C9C0                MOVW      HL, #0xC0C9        ;; 1 cycle
   \   0002FF C7                    PUSH      HL                 ;; 1 cycle
   \   000300 36DB0F                MOVW      HL, #0xFDB         ;; 1 cycle
   \   000303 C7                    PUSH      HL                 ;; 1 cycle
   \   000304 FD....                CALL      N:?F_ADD           ;; 3 cycles
   \   000307 1004                  ADDW      SP, #0x4           ;; 1 cycle
   \   000309                       ; ------------------------------------- Block: 8 cycles
   \                     ??TestMyCode_87:
   \   000309 360000                MOVW      HL, #0x0           ;; 1 cycle
   \   00030C C7                    PUSH      HL                 ;; 1 cycle
   \   00030D C7                    PUSH      HL                 ;; 1 cycle
   \   00030E FD....                CALL      N:?FCMP_LT         ;; 3 cycles
   \   000311 1004                  ADDW      SP, #0x4           ;; 1 cycle
   \   000313 DE1C                  BNC       ??TestMyCode_88    ;; 4 cycles
   \   000315                       ; ------------------------------------- Block: 11 cycles
   \   000315 C3                    PUSH      BC                 ;; 1 cycle
   \   000316 C1                    PUSH      AX                 ;; 1 cycle
   \   000317 36A23F                MOVW      HL, #0x3FA2        ;; 1 cycle
   \   00031A C7                    PUSH      HL                 ;; 1 cycle
   \   00031B 3683F9                MOVW      HL, #0xF983        ;; 1 cycle
   \   00031E C7                    PUSH      HL                 ;; 1 cycle
   \   00031F 36CF3E                MOVW      HL, #0x3ECF        ;; 1 cycle
   \   000322 C7                    PUSH      HL                 ;; 1 cycle
   \   000323 367B81                MOVW      HL, #0x817B        ;; 1 cycle
   \   000326 C7                    PUSH      HL                 ;; 1 cycle
   \   000327 FD....                CALL      N:?F_MUL           ;; 3 cycles
   \   00032A 1004                  ADDW      SP, #0x4           ;; 1 cycle
   \   00032C FD....                CALL      N:?F_ADD           ;; 3 cycles
   \   00032F EF1A                  BR        S:??TestMyCode_89  ;; 3 cycles
   \   000331                       ; ------------------------------------- Block: 20 cycles
   \                     ??TestMyCode_88:
   \   000331 C3                    PUSH      BC                 ;; 1 cycle
   \   000332 C1                    PUSH      AX                 ;; 1 cycle
   \   000333 36CF3E                MOVW      HL, #0x3ECF        ;; 1 cycle
   \   000336 C7                    PUSH      HL                 ;; 1 cycle
   \   000337 367B81                MOVW      HL, #0x817B        ;; 1 cycle
   \   00033A C7                    PUSH      HL                 ;; 1 cycle
   \   00033B FD....                CALL      N:?F_MUL           ;; 3 cycles
   \   00033E 1004                  ADDW      SP, #0x4           ;; 1 cycle
   \   000340 C3                    PUSH      BC                 ;; 1 cycle
   \   000341 C1                    PUSH      AX                 ;; 1 cycle
   \   000342 3083F9                MOVW      AX, #0xF983        ;; 1 cycle
   \   000345 32A23F                MOVW      BC, #0x3FA2        ;; 1 cycle
   \   000348 FD....                CALL      N:?F_SUB           ;; 3 cycles
   \   00034B                       ; ------------------------------------- Block: 17 cycles
   \                     ??TestMyCode_89:
   \   00034B 1004                  ADDW      SP, #0x4           ;; 1 cycle
   \   00034D FD....                CALL      N:?F_MUL           ;; 3 cycles
   \   000350 1004                  ADDW      SP, #0x4           ;; 1 cycle
   \   000352 B818                  MOVW      [SP+0x18], AX      ;; 1 cycle
   \   000354 13                    MOVW      AX, BC             ;; 1 cycle
   \   000355 B81A                  MOVW      [SP+0x1A], AX      ;; 1 cycle
    242          l_y = 2.6*taylor_sin(((theta+90)*PIby180)) + 39; // 2/3 of 4
   \   000357 308E3C                MOVW      AX, #0x3C8E        ;; 1 cycle
   \   00035A C1                    PUSH      AX                 ;; 1 cycle
   \   00035B 3035FA                MOVW      AX, #0xFA35        ;; 1 cycle
   \   00035E C1                    PUSH      AX                 ;; 1 cycle
   \   00035F 30B442                MOVW      AX, #0x42B4        ;; 1 cycle
   \   000362 C1                    PUSH      AX                 ;; 1 cycle
   \   000363 F6                    CLRW      AX                 ;; 1 cycle
   \   000364 C1                    PUSH      AX                 ;; 1 cycle
   \   000365 A816                  MOVW      AX, [SP+0x16]      ;; 1 cycle
   \   000367 12                    MOVW      BC, AX             ;; 1 cycle
   \   000368 A814                  MOVW      AX, [SP+0x14]      ;; 1 cycle
   \   00036A FD....                CALL      N:?F_ADD           ;; 3 cycles
   \   00036D 1004                  ADDW      SP, #0x4           ;; 1 cycle
   \   00036F FD....                CALL      N:?F_MUL           ;; 3 cycles
   \   000372 1004                  ADDW      SP, #0x4           ;; 1 cycle
   \   000374 B800                  MOVW      [SP], AX           ;; 1 cycle
   \   000376 13                    MOVW      AX, BC             ;; 1 cycle
   \   000377 B802                  MOVW      [SP+0x02], AX      ;; 1 cycle
   \   000379 3049C0                MOVW      AX, #0xC049        ;; 1 cycle
   \   00037C C1                    PUSH      AX                 ;; 1 cycle
   \   00037D 30DB0F                MOVW      AX, #0xFDB         ;; 1 cycle
   \   000380 C1                    PUSH      AX                 ;; 1 cycle
   \   000381 A804                  MOVW      AX, [SP+0x04]      ;; 1 cycle
   \   000383 FD....                CALL      N:?FCMP_LT         ;; 3 cycles
   \   000386 1004                  ADDW      SP, #0x4           ;; 1 cycle
   \   000388 DE05                  BNC       ??TestMyCode_90    ;; 4 cycles
   \   00038A                       ; ------------------------------------- Block: 43 cycles
   \   00038A 30C940                MOVW      AX, #0x40C9        ;; 1 cycle
   \   00038D EF14                  BR        S:??TestMyCode_91  ;; 3 cycles
   \   00038F                       ; ------------------------------------- Block: 4 cycles
   \                     ??TestMyCode_90:
   \   00038F 304940                MOVW      AX, #0x4049        ;; 1 cycle
   \   000392 C1                    PUSH      AX                 ;; 1 cycle
   \   000393 30DC0F                MOVW      AX, #0xFDC         ;; 1 cycle
   \   000396 C1                    PUSH      AX                 ;; 1 cycle
   \   000397 A804                  MOVW      AX, [SP+0x04]      ;; 1 cycle
   \   000399 FD....                CALL      N:?FCMP_GE         ;; 3 cycles
   \   00039C 1004                  ADDW      SP, #0x4           ;; 1 cycle
   \   00039E DC14                  BC        ??TestMyCode_92    ;; 4 cycles
   \   0003A0                       ; ------------------------------------- Block: 13 cycles
   \   0003A0 30C9C0                MOVW      AX, #0xC0C9        ;; 1 cycle
   \   0003A3                       ; ------------------------------------- Block: 1 cycles
   \                     ??TestMyCode_91:
   \   0003A3 C1                    PUSH      AX                 ;; 1 cycle
   \   0003A4 30DB0F                MOVW      AX, #0xFDB         ;; 1 cycle
   \   0003A7 C1                    PUSH      AX                 ;; 1 cycle
   \   0003A8 A804                  MOVW      AX, [SP+0x04]      ;; 1 cycle
   \   0003AA FD....                CALL      N:?F_ADD           ;; 3 cycles
   \   0003AD 1004                  ADDW      SP, #0x4           ;; 1 cycle
   \   0003AF B800                  MOVW      [SP], AX           ;; 1 cycle
   \   0003B1 13                    MOVW      AX, BC             ;; 1 cycle
   \   0003B2 B802                  MOVW      [SP+0x02], AX      ;; 1 cycle
   \   0003B4                       ; ------------------------------------- Block: 11 cycles
   \                     ??TestMyCode_92:
   \   0003B4 F6                    CLRW      AX                 ;; 1 cycle
   \   0003B5 C1                    PUSH      AX                 ;; 1 cycle
   \   0003B6 C1                    PUSH      AX                 ;; 1 cycle
   \   0003B7 A806                  MOVW      AX, [SP+0x06]      ;; 1 cycle
   \   0003B9 12                    MOVW      BC, AX             ;; 1 cycle
   \   0003BA A804                  MOVW      AX, [SP+0x04]      ;; 1 cycle
   \   0003BC FD....                CALL      N:?FCMP_LT         ;; 3 cycles
   \   0003BF 1004                  ADDW      SP, #0x4           ;; 1 cycle
   \   0003C1 DE2C                  BNC       ??TestMyCode_93    ;; 4 cycles
   \   0003C3                       ; ------------------------------------- Block: 14 cycles
   \   0003C3 C3                    PUSH      BC                 ;; 1 cycle
   \   0003C4 C1                    PUSH      AX                 ;; 1 cycle
   \   0003C5 30CF3E                MOVW      AX, #0x3ECF        ;; 1 cycle
   \   0003C8 C1                    PUSH      AX                 ;; 1 cycle
   \   0003C9 C7                    PUSH      HL                 ;; 1 cycle
   \   0003CA A808                  MOVW      AX, [SP+0x08]      ;; 1 cycle
   \   0003CC FD....                CALL      N:?F_MUL           ;; 3 cycles
   \   0003CF 1004                  ADDW      SP, #0x4           ;; 1 cycle
   \   0003D1 FD....                CALL      N:?F_MUL           ;; 3 cycles
   \   0003D4 1004                  ADDW      SP, #0x4           ;; 1 cycle
   \   0003D6 C3                    PUSH      BC                 ;; 1 cycle
   \   0003D7 C1                    PUSH      AX                 ;; 1 cycle
   \   0003D8 30A23F                MOVW      AX, #0x3FA2        ;; 1 cycle
   \   0003DB C1                    PUSH      AX                 ;; 1 cycle
   \   0003DC 3083F9                MOVW      AX, #0xF983        ;; 1 cycle
   \   0003DF C1                    PUSH      AX                 ;; 1 cycle
   \   0003E0 A80A                  MOVW      AX, [SP+0x0A]      ;; 1 cycle
   \   0003E2 12                    MOVW      BC, AX             ;; 1 cycle
   \   0003E3 A808                  MOVW      AX, [SP+0x08]      ;; 1 cycle
   \   0003E5 FD....                CALL      N:?F_MUL           ;; 3 cycles
   \   0003E8 1004                  ADDW      SP, #0x4           ;; 1 cycle
   \   0003EA FD....                CALL      N:?F_ADD           ;; 3 cycles
   \   0003ED EF2A                  BR        S:??TestMyCode_94  ;; 3 cycles
   \   0003EF                       ; ------------------------------------- Block: 33 cycles
   \                     ??TestMyCode_93:
   \   0003EF C3                    PUSH      BC                 ;; 1 cycle
   \   0003F0 C1                    PUSH      AX                 ;; 1 cycle
   \   0003F1 30CF3E                MOVW      AX, #0x3ECF        ;; 1 cycle
   \   0003F4 C1                    PUSH      AX                 ;; 1 cycle
   \   0003F5 C7                    PUSH      HL                 ;; 1 cycle
   \   0003F6 A808                  MOVW      AX, [SP+0x08]      ;; 1 cycle
   \   0003F8 FD....                CALL      N:?F_MUL           ;; 3 cycles
   \   0003FB 1004                  ADDW      SP, #0x4           ;; 1 cycle
   \   0003FD FD....                CALL      N:?F_MUL           ;; 3 cycles
   \   000400 1004                  ADDW      SP, #0x4           ;; 1 cycle
   \   000402 C3                    PUSH      BC                 ;; 1 cycle
   \   000403 C1                    PUSH      AX                 ;; 1 cycle
   \   000404 30A23F                MOVW      AX, #0x3FA2        ;; 1 cycle
   \   000407 C1                    PUSH      AX                 ;; 1 cycle
   \   000408 3083F9                MOVW      AX, #0xF983        ;; 1 cycle
   \   00040B C1                    PUSH      AX                 ;; 1 cycle
   \   00040C A80A                  MOVW      AX, [SP+0x0A]      ;; 1 cycle
   \   00040E 12                    MOVW      BC, AX             ;; 1 cycle
   \   00040F A808                  MOVW      AX, [SP+0x08]      ;; 1 cycle
   \   000411 FD....                CALL      N:?F_MUL           ;; 3 cycles
   \   000414 1004                  ADDW      SP, #0x4           ;; 1 cycle
   \   000416 FD....                CALL      N:?F_SUB           ;; 3 cycles
   \   000419                       ; ------------------------------------- Block: 30 cycles
   \                     ??TestMyCode_94:
   \   000419 1004                  ADDW      SP, #0x4           ;; 1 cycle
   \   00041B B814                  MOVW      [SP+0x14], AX      ;; 1 cycle
   \   00041D 13                    MOVW      AX, BC             ;; 1 cycle
   \   00041E B816                  MOVW      [SP+0x16], AX      ;; 1 cycle
    243          r_x = 4*taylor_cos(((theta-90)*PIby180)) + 48;
   \   000420 30C93F                MOVW      AX, #0x3FC9        ;; 1 cycle
   \   000423 C1                    PUSH      AX                 ;; 1 cycle
   \   000424 30DB0F                MOVW      AX, #0xFDB         ;; 1 cycle
   \   000427 C1                    PUSH      AX                 ;; 1 cycle
   \   000428 308E3C                MOVW      AX, #0x3C8E        ;; 1 cycle
   \   00042B C1                    PUSH      AX                 ;; 1 cycle
   \   00042C 3035FA                MOVW      AX, #0xFA35        ;; 1 cycle
   \   00042F C1                    PUSH      AX                 ;; 1 cycle
   \   000430 30B4C2                MOVW      AX, #0xC2B4        ;; 1 cycle
   \   000433 C1                    PUSH      AX                 ;; 1 cycle
   \   000434 F6                    CLRW      AX                 ;; 1 cycle
   \   000435 C1                    PUSH      AX                 ;; 1 cycle
   \   000436 A81A                  MOVW      AX, [SP+0x1A]      ;; 1 cycle
   \   000438 12                    MOVW      BC, AX             ;; 1 cycle
   \   000439 A818                  MOVW      AX, [SP+0x18]      ;; 1 cycle
   \   00043B FD....                CALL      N:?F_ADD           ;; 3 cycles
   \   00043E 1004                  ADDW      SP, #0x4           ;; 1 cycle
   \   000440 FD....                CALL      N:?F_MUL           ;; 3 cycles
   \   000443 1004                  ADDW      SP, #0x4           ;; 1 cycle
   \   000445 FD....                CALL      N:?F_ADD           ;; 3 cycles
   \   000448 1004                  ADDW      SP, #0x4           ;; 1 cycle
   \   00044A 364940                MOVW      HL, #0x4049        ;; 1 cycle
   \   00044D C7                    PUSH      HL                 ;; 1 cycle
   \   00044E 36DC0F                MOVW      HL, #0xFDC         ;; 1 cycle
   \   000451 C7                    PUSH      HL                 ;; 1 cycle
   \   000452 FD....                CALL      N:?FCMP_GE         ;; 3 cycles
   \   000455 1004                  ADDW      SP, #0x4           ;; 1 cycle
   \   000457 DC0D                  BC        ??TestMyCode_95    ;; 4 cycles
   \   000459                       ; ------------------------------------- Block: 43 cycles
   \   000459 36C9C0                MOVW      HL, #0xC0C9        ;; 1 cycle
   \   00045C C7                    PUSH      HL                 ;; 1 cycle
   \   00045D 36DB0F                MOVW      HL, #0xFDB         ;; 1 cycle
   \   000460 C7                    PUSH      HL                 ;; 1 cycle
   \   000461 FD....                CALL      N:?F_ADD           ;; 3 cycles
   \   000464 1004                  ADDW      SP, #0x4           ;; 1 cycle
   \   000466                       ; ------------------------------------- Block: 8 cycles
   \                     ??TestMyCode_95:
   \   000466 360000                MOVW      HL, #0x0           ;; 1 cycle
   \   000469 C7                    PUSH      HL                 ;; 1 cycle
   \   00046A C7                    PUSH      HL                 ;; 1 cycle
   \   00046B FD....                CALL      N:?FCMP_LT         ;; 3 cycles
   \   00046E 1004                  ADDW      SP, #0x4           ;; 1 cycle
   \   000470 DE1C                  BNC       ??TestMyCode_96    ;; 4 cycles
   \   000472                       ; ------------------------------------- Block: 11 cycles
   \   000472 C3                    PUSH      BC                 ;; 1 cycle
   \   000473 C1                    PUSH      AX                 ;; 1 cycle
   \   000474 36A23F                MOVW      HL, #0x3FA2        ;; 1 cycle
   \   000477 C7                    PUSH      HL                 ;; 1 cycle
   \   000478 3683F9                MOVW      HL, #0xF983        ;; 1 cycle
   \   00047B C7                    PUSH      HL                 ;; 1 cycle
   \   00047C 36CF3E                MOVW      HL, #0x3ECF        ;; 1 cycle
   \   00047F C7                    PUSH      HL                 ;; 1 cycle
   \   000480 367B81                MOVW      HL, #0x817B        ;; 1 cycle
   \   000483 C7                    PUSH      HL                 ;; 1 cycle
   \   000484 FD....                CALL      N:?F_MUL           ;; 3 cycles
   \   000487 1004                  ADDW      SP, #0x4           ;; 1 cycle
   \   000489 FD....                CALL      N:?F_ADD           ;; 3 cycles
   \   00048C EF1A                  BR        S:??TestMyCode_97  ;; 3 cycles
   \   00048E                       ; ------------------------------------- Block: 20 cycles
   \                     ??TestMyCode_96:
   \   00048E C3                    PUSH      BC                 ;; 1 cycle
   \   00048F C1                    PUSH      AX                 ;; 1 cycle
   \   000490 36CF3E                MOVW      HL, #0x3ECF        ;; 1 cycle
   \   000493 C7                    PUSH      HL                 ;; 1 cycle
   \   000494 367B81                MOVW      HL, #0x817B        ;; 1 cycle
   \   000497 C7                    PUSH      HL                 ;; 1 cycle
   \   000498 FD....                CALL      N:?F_MUL           ;; 3 cycles
   \   00049B 1004                  ADDW      SP, #0x4           ;; 1 cycle
   \   00049D C3                    PUSH      BC                 ;; 1 cycle
   \   00049E C1                    PUSH      AX                 ;; 1 cycle
   \   00049F 3083F9                MOVW      AX, #0xF983        ;; 1 cycle
   \   0004A2 32A23F                MOVW      BC, #0x3FA2        ;; 1 cycle
   \   0004A5 FD....                CALL      N:?F_SUB           ;; 3 cycles
   \   0004A8                       ; ------------------------------------- Block: 17 cycles
   \                     ??TestMyCode_97:
   \   0004A8 1004                  ADDW      SP, #0x4           ;; 1 cycle
   \   0004AA FD....                CALL      N:?F_MUL           ;; 3 cycles
   \   0004AD 1004                  ADDW      SP, #0x4           ;; 1 cycle
   \   0004AF B810                  MOVW      [SP+0x10], AX      ;; 1 cycle
   \   0004B1 13                    MOVW      AX, BC             ;; 1 cycle
   \   0004B2 B812                  MOVW      [SP+0x12], AX      ;; 1 cycle
    244          r_y = 2.6*taylor_sin(((theta-90)*PIby180)) + 39; // 2/3 of 4
   \   0004B4 308E3C                MOVW      AX, #0x3C8E        ;; 1 cycle
   \   0004B7 C1                    PUSH      AX                 ;; 1 cycle
   \   0004B8 3035FA                MOVW      AX, #0xFA35        ;; 1 cycle
   \   0004BB C1                    PUSH      AX                 ;; 1 cycle
   \   0004BC 30B4C2                MOVW      AX, #0xC2B4        ;; 1 cycle
   \   0004BF C1                    PUSH      AX                 ;; 1 cycle
   \   0004C0 F6                    CLRW      AX                 ;; 1 cycle
   \   0004C1 C1                    PUSH      AX                 ;; 1 cycle
   \   0004C2 A816                  MOVW      AX, [SP+0x16]      ;; 1 cycle
   \   0004C4 12                    MOVW      BC, AX             ;; 1 cycle
   \   0004C5 A814                  MOVW      AX, [SP+0x14]      ;; 1 cycle
   \   0004C7 FD....                CALL      N:?F_ADD           ;; 3 cycles
   \   0004CA 1004                  ADDW      SP, #0x4           ;; 1 cycle
   \   0004CC FD....                CALL      N:?F_MUL           ;; 3 cycles
   \   0004CF 1004                  ADDW      SP, #0x4           ;; 1 cycle
   \   0004D1 B800                  MOVW      [SP], AX           ;; 1 cycle
   \   0004D3 13                    MOVW      AX, BC             ;; 1 cycle
   \   0004D4 B802                  MOVW      [SP+0x02], AX      ;; 1 cycle
   \   0004D6 3049C0                MOVW      AX, #0xC049        ;; 1 cycle
   \   0004D9 C1                    PUSH      AX                 ;; 1 cycle
   \   0004DA 30DB0F                MOVW      AX, #0xFDB         ;; 1 cycle
   \   0004DD C1                    PUSH      AX                 ;; 1 cycle
   \   0004DE A804                  MOVW      AX, [SP+0x04]      ;; 1 cycle
   \   0004E0 FD....                CALL      N:?FCMP_LT         ;; 3 cycles
   \   0004E3 1004                  ADDW      SP, #0x4           ;; 1 cycle
   \   0004E5 DE05                  BNC       ??TestMyCode_98    ;; 4 cycles
   \   0004E7                       ; ------------------------------------- Block: 43 cycles
   \   0004E7 30C940                MOVW      AX, #0x40C9        ;; 1 cycle
   \   0004EA EF14                  BR        S:??TestMyCode_99  ;; 3 cycles
   \   0004EC                       ; ------------------------------------- Block: 4 cycles
   \                     ??TestMyCode_98:
   \   0004EC 304940                MOVW      AX, #0x4049        ;; 1 cycle
   \   0004EF C1                    PUSH      AX                 ;; 1 cycle
   \   0004F0 30DC0F                MOVW      AX, #0xFDC         ;; 1 cycle
   \   0004F3 C1                    PUSH      AX                 ;; 1 cycle
   \   0004F4 A804                  MOVW      AX, [SP+0x04]      ;; 1 cycle
   \   0004F6 FD....                CALL      N:?FCMP_GE         ;; 3 cycles
   \   0004F9 1004                  ADDW      SP, #0x4           ;; 1 cycle
   \   0004FB DC14                  BC        ??TestMyCode_100   ;; 4 cycles
   \   0004FD                       ; ------------------------------------- Block: 13 cycles
   \   0004FD 30C9C0                MOVW      AX, #0xC0C9        ;; 1 cycle
   \   000500                       ; ------------------------------------- Block: 1 cycles
   \                     ??TestMyCode_99:
   \   000500 C1                    PUSH      AX                 ;; 1 cycle
   \   000501 30DB0F                MOVW      AX, #0xFDB         ;; 1 cycle
   \   000504 C1                    PUSH      AX                 ;; 1 cycle
   \   000505 A804                  MOVW      AX, [SP+0x04]      ;; 1 cycle
   \   000507 FD....                CALL      N:?F_ADD           ;; 3 cycles
   \   00050A 1004                  ADDW      SP, #0x4           ;; 1 cycle
   \   00050C B800                  MOVW      [SP], AX           ;; 1 cycle
   \   00050E 13                    MOVW      AX, BC             ;; 1 cycle
   \   00050F B802                  MOVW      [SP+0x02], AX      ;; 1 cycle
   \   000511                       ; ------------------------------------- Block: 11 cycles
   \                     ??TestMyCode_100:
   \   000511 F6                    CLRW      AX                 ;; 1 cycle
   \   000512 C1                    PUSH      AX                 ;; 1 cycle
   \   000513 C1                    PUSH      AX                 ;; 1 cycle
   \   000514 A806                  MOVW      AX, [SP+0x06]      ;; 1 cycle
   \   000516 12                    MOVW      BC, AX             ;; 1 cycle
   \   000517 A804                  MOVW      AX, [SP+0x04]      ;; 1 cycle
   \   000519 FD....                CALL      N:?FCMP_LT         ;; 3 cycles
   \   00051C 1004                  ADDW      SP, #0x4           ;; 1 cycle
   \   00051E DE2C                  BNC       ??TestMyCode_101   ;; 4 cycles
   \   000520                       ; ------------------------------------- Block: 14 cycles
   \   000520 C3                    PUSH      BC                 ;; 1 cycle
   \   000521 C1                    PUSH      AX                 ;; 1 cycle
   \   000522 30CF3E                MOVW      AX, #0x3ECF        ;; 1 cycle
   \   000525 C1                    PUSH      AX                 ;; 1 cycle
   \   000526 C7                    PUSH      HL                 ;; 1 cycle
   \   000527 A808                  MOVW      AX, [SP+0x08]      ;; 1 cycle
   \   000529 FD....                CALL      N:?F_MUL           ;; 3 cycles
   \   00052C 1004                  ADDW      SP, #0x4           ;; 1 cycle
   \   00052E FD....                CALL      N:?F_MUL           ;; 3 cycles
   \   000531 1004                  ADDW      SP, #0x4           ;; 1 cycle
   \   000533 C3                    PUSH      BC                 ;; 1 cycle
   \   000534 C1                    PUSH      AX                 ;; 1 cycle
   \   000535 30A23F                MOVW      AX, #0x3FA2        ;; 1 cycle
   \   000538 C1                    PUSH      AX                 ;; 1 cycle
   \   000539 3083F9                MOVW      AX, #0xF983        ;; 1 cycle
   \   00053C C1                    PUSH      AX                 ;; 1 cycle
   \   00053D A80A                  MOVW      AX, [SP+0x0A]      ;; 1 cycle
   \   00053F 12                    MOVW      BC, AX             ;; 1 cycle
   \   000540 A808                  MOVW      AX, [SP+0x08]      ;; 1 cycle
   \   000542 FD....                CALL      N:?F_MUL           ;; 3 cycles
   \   000545 1004                  ADDW      SP, #0x4           ;; 1 cycle
   \   000547 FD....                CALL      N:?F_ADD           ;; 3 cycles
   \   00054A EF2A                  BR        S:??TestMyCode_102  ;; 3 cycles
   \   00054C                       ; ------------------------------------- Block: 33 cycles
   \                     ??TestMyCode_101:
   \   00054C C3                    PUSH      BC                 ;; 1 cycle
   \   00054D C1                    PUSH      AX                 ;; 1 cycle
   \   00054E 30CF3E                MOVW      AX, #0x3ECF        ;; 1 cycle
   \   000551 C1                    PUSH      AX                 ;; 1 cycle
   \   000552 C7                    PUSH      HL                 ;; 1 cycle
   \   000553 A808                  MOVW      AX, [SP+0x08]      ;; 1 cycle
   \   000555 FD....                CALL      N:?F_MUL           ;; 3 cycles
   \   000558 1004                  ADDW      SP, #0x4           ;; 1 cycle
   \   00055A FD....                CALL      N:?F_MUL           ;; 3 cycles
   \   00055D 1004                  ADDW      SP, #0x4           ;; 1 cycle
   \   00055F C3                    PUSH      BC                 ;; 1 cycle
   \   000560 C1                    PUSH      AX                 ;; 1 cycle
   \   000561 30A23F                MOVW      AX, #0x3FA2        ;; 1 cycle
   \   000564 C1                    PUSH      AX                 ;; 1 cycle
   \   000565 3083F9                MOVW      AX, #0xF983        ;; 1 cycle
   \   000568 C1                    PUSH      AX                 ;; 1 cycle
   \   000569 A80A                  MOVW      AX, [SP+0x0A]      ;; 1 cycle
   \   00056B 12                    MOVW      BC, AX             ;; 1 cycle
   \   00056C A808                  MOVW      AX, [SP+0x08]      ;; 1 cycle
   \   00056E FD....                CALL      N:?F_MUL           ;; 3 cycles
   \   000571 1004                  ADDW      SP, #0x4           ;; 1 cycle
   \   000573 FD....                CALL      N:?F_SUB           ;; 3 cycles
   \   000576                       ; ------------------------------------- Block: 30 cycles
   \                     ??TestMyCode_102:
   \   000576 1004                  ADDW      SP, #0x4           ;; 1 cycle
   \   000578 B80C                  MOVW      [SP+0x0C], AX      ;; 1 cycle
   \   00057A 13                    MOVW      AX, BC             ;; 1 cycle
   \   00057B B80E                  MOVW      [SP+0x0E], AX      ;; 1 cycle
    245          p1.X = e_x; p1.Y = e_y;
   \   00057D 304042                MOVW      AX, #0x4240        ;; 1 cycle
   \   000580 C1                    PUSH      AX                 ;; 1 cycle
   \   000581 F6                    CLRW      AX                 ;; 1 cycle
   \   000582 C1                    PUSH      AX                 ;; 1 cycle
   \   000583 304042                MOVW      AX, #0x4240        ;; 1 cycle
   \   000586 C1                    PUSH      AX                 ;; 1 cycle
   \   000587 F6                    CLRW      AX                 ;; 1 cycle
   \   000588 C1                    PUSH      AX                 ;; 1 cycle
   \   000589 A832                  MOVW      AX, [SP+0x32]      ;; 1 cycle
   \   00058B 12                    MOVW      BC, AX             ;; 1 cycle
   \   00058C A830                  MOVW      AX, [SP+0x30]      ;; 1 cycle
   \   00058E FD....                CALL      N:?F_MUL           ;; 3 cycles
   \   000591 1004                  ADDW      SP, #0x4           ;; 1 cycle
   \   000593 FD....                CALL      N:?F_ADD           ;; 3 cycles
   \   000596 FD....                CALL      N:?F_F2SL          ;; 3 cycles
   \   000599 60                    MOV       A, X               ;; 1 cycle
   \   00059A 980E                  MOV       [SP+0x0E], A       ;; 1 cycle
   \   00059C 1004                  ADDW      SP, #0x4           ;; 1 cycle
   \   00059E 301C42                MOVW      AX, #0x421C        ;; 1 cycle
   \   0005A1 C1                    PUSH      AX                 ;; 1 cycle
   \   0005A2 F6                    CLRW      AX                 ;; 1 cycle
   \   0005A3 C1                    PUSH      AX                 ;; 1 cycle
   \   0005A4 5142                  MOV       A, #0x42           ;; 1 cycle
   \   0005A6 C1                    PUSH      AX                 ;; 1 cycle
   \   0005A7 F6                    CLRW      AX                 ;; 1 cycle
   \   0005A8 C1                    PUSH      AX                 ;; 1 cycle
   \   0005A9 A82E                  MOVW      AX, [SP+0x2E]      ;; 1 cycle
   \   0005AB 12                    MOVW      BC, AX             ;; 1 cycle
   \   0005AC A82C                  MOVW      AX, [SP+0x2C]      ;; 1 cycle
   \   0005AE FD....                CALL      N:?F_MUL           ;; 3 cycles
   \   0005B1 1004                  ADDW      SP, #0x4           ;; 1 cycle
   \   0005B3 FD....                CALL      N:?F_ADD           ;; 3 cycles
   \   0005B6 FD....                CALL      N:?F_F2SL          ;; 3 cycles
   \   0005B9 60                    MOV       A, X               ;; 1 cycle
   \   0005BA 9805                  MOV       [SP+0x05], A       ;; 1 cycle
   \   0005BC 980F                  MOV       [SP+0x0F], A       ;; 1 cycle
    246          p2.X = r_x; p2.Y = r_y;
   \   0005BE 1004                  ADDW      SP, #0x4           ;; 1 cycle
   \   0005C0 304042                MOVW      AX, #0x4240        ;; 1 cycle
   \   0005C3 C1                    PUSH      AX                 ;; 1 cycle
   \   0005C4 F6                    CLRW      AX                 ;; 1 cycle
   \   0005C5 C1                    PUSH      AX                 ;; 1 cycle
   \   0005C6 308040                MOVW      AX, #0x4080        ;; 1 cycle
   \   0005C9 C1                    PUSH      AX                 ;; 1 cycle
   \   0005CA F6                    CLRW      AX                 ;; 1 cycle
   \   0005CB C1                    PUSH      AX                 ;; 1 cycle
   \   0005CC A81A                  MOVW      AX, [SP+0x1A]      ;; 1 cycle
   \   0005CE 12                    MOVW      BC, AX             ;; 1 cycle
   \   0005CF A818                  MOVW      AX, [SP+0x18]      ;; 1 cycle
   \   0005D1 FD....                CALL      N:?F_MUL           ;; 3 cycles
   \   0005D4 1004                  ADDW      SP, #0x4           ;; 1 cycle
   \   0005D6 FD....                CALL      N:?F_ADD           ;; 3 cycles
   \   0005D9 FD....                CALL      N:?F_F2SL          ;; 3 cycles
   \   0005DC 60                    MOV       A, X               ;; 1 cycle
   \   0005DD 980A                  MOV       [SP+0x0A], A       ;; 1 cycle
   \   0005DF 1004                  ADDW      SP, #0x4           ;; 1 cycle
   \   0005E1 301C42                MOVW      AX, #0x421C        ;; 1 cycle
   \   0005E4 C1                    PUSH      AX                 ;; 1 cycle
   \   0005E5 F6                    CLRW      AX                 ;; 1 cycle
   \   0005E6 C1                    PUSH      AX                 ;; 1 cycle
   \   0005E7 302640                MOVW      AX, #0x4026        ;; 1 cycle
   \   0005EA C1                    PUSH      AX                 ;; 1 cycle
   \   0005EB 306666                MOVW      AX, #0x6666        ;; 1 cycle
   \   0005EE C1                    PUSH      AX                 ;; 1 cycle
   \   0005EF A816                  MOVW      AX, [SP+0x16]      ;; 1 cycle
   \   0005F1 12                    MOVW      BC, AX             ;; 1 cycle
   \   0005F2 A814                  MOVW      AX, [SP+0x14]      ;; 1 cycle
   \   0005F4 FD....                CALL      N:?F_MUL           ;; 3 cycles
   \   0005F7 1004                  ADDW      SP, #0x4           ;; 1 cycle
   \   0005F9 FD....                CALL      N:?F_ADD           ;; 3 cycles
   \   0005FC FD....                CALL      N:?F_F2SL          ;; 3 cycles
   \   0005FF 60                    MOV       A, X               ;; 1 cycle
   \   000600 980B                  MOV       [SP+0x0B], A       ;; 1 cycle
    247          p4.X = i_x; p4.Y = i_y;
   \   000602 1004                  ADDW      SP, #0x4           ;; 1 cycle
   \   000604 304042                MOVW      AX, #0x4240        ;; 1 cycle
   \   000607 C1                    PUSH      AX                 ;; 1 cycle
   \   000608 F6                    CLRW      AX                 ;; 1 cycle
   \   000609 C1                    PUSH      AX                 ;; 1 cycle
   \   00060A 5141                  MOV       A, #0x41           ;; 1 cycle
   \   00060C C1                    PUSH      AX                 ;; 1 cycle
   \   00060D F6                    CLRW      AX                 ;; 1 cycle
   \   00060E C1                    PUSH      AX                 ;; 1 cycle
   \   00060F A82A                  MOVW      AX, [SP+0x2A]      ;; 1 cycle
   \   000611 12                    MOVW      BC, AX             ;; 1 cycle
   \   000612 A828                  MOVW      AX, [SP+0x28]      ;; 1 cycle
   \   000614 FD....                CALL      N:?F_MUL           ;; 3 cycles
   \   000617 1004                  ADDW      SP, #0x4           ;; 1 cycle
   \   000619 FD....                CALL      N:?F_ADD           ;; 3 cycles
   \   00061C FD....                CALL      N:?F_F2SL          ;; 3 cycles
   \   00061F 60                    MOV       A, X               ;; 1 cycle
   \   000620 980C                  MOV       [SP+0x0C], A       ;; 1 cycle
   \   000622 1004                  ADDW      SP, #0x4           ;; 1 cycle
   \   000624 301C42                MOVW      AX, #0x421C        ;; 1 cycle
   \   000627 C1                    PUSH      AX                 ;; 1 cycle
   \   000628 F6                    CLRW      AX                 ;; 1 cycle
   \   000629 C1                    PUSH      AX                 ;; 1 cycle
   \   00062A 30A940                MOVW      AX, #0x40A9        ;; 1 cycle
   \   00062D C1                    PUSH      AX                 ;; 1 cycle
   \   00062E 309A99                MOVW      AX, #0x999A        ;; 1 cycle
   \   000631 C1                    PUSH      AX                 ;; 1 cycle
   \   000632 A826                  MOVW      AX, [SP+0x26]      ;; 1 cycle
   \   000634 12                    MOVW      BC, AX             ;; 1 cycle
   \   000635 A824                  MOVW      AX, [SP+0x24]      ;; 1 cycle
   \   000637 FD....                CALL      N:?F_MUL           ;; 3 cycles
   \   00063A 1004                  ADDW      SP, #0x4           ;; 1 cycle
   \   00063C FD....                CALL      N:?F_ADD           ;; 3 cycles
   \   00063F FD....                CALL      N:?F_F2SL          ;; 3 cycles
   \   000642 60                    MOV       A, X               ;; 1 cycle
   \   000643 9804                  MOV       [SP+0x04], A       ;; 1 cycle
   \   000645 980D                  MOV       [SP+0x0D], A       ;; 1 cycle
    248          p3.X = l_x; p3.Y = l_y;
   \   000647 1004                  ADDW      SP, #0x4           ;; 1 cycle
   \   000649 304042                MOVW      AX, #0x4240        ;; 1 cycle
   \   00064C C1                    PUSH      AX                 ;; 1 cycle
   \   00064D F6                    CLRW      AX                 ;; 1 cycle
   \   00064E C1                    PUSH      AX                 ;; 1 cycle
   \   00064F 308040                MOVW      AX, #0x4080        ;; 1 cycle
   \   000652 C1                    PUSH      AX                 ;; 1 cycle
   \   000653 F6                    CLRW      AX                 ;; 1 cycle
   \   000654 C1                    PUSH      AX                 ;; 1 cycle
   \   000655 A822                  MOVW      AX, [SP+0x22]      ;; 1 cycle
   \   000657 12                    MOVW      BC, AX             ;; 1 cycle
   \   000658 A820                  MOVW      AX, [SP+0x20]      ;; 1 cycle
   \   00065A FD....                CALL      N:?F_MUL           ;; 3 cycles
   \   00065D 1004                  ADDW      SP, #0x4           ;; 1 cycle
   \   00065F FD....                CALL      N:?F_ADD           ;; 3 cycles
   \   000662 FD....                CALL      N:?F_F2SL          ;; 3 cycles
   \   000665 60                    MOV       A, X               ;; 1 cycle
   \   000666 9808                  MOV       [SP+0x08], A       ;; 1 cycle
   \   000668 1004                  ADDW      SP, #0x4           ;; 1 cycle
   \   00066A 301C42                MOVW      AX, #0x421C        ;; 1 cycle
   \   00066D C1                    PUSH      AX                 ;; 1 cycle
   \   00066E F6                    CLRW      AX                 ;; 1 cycle
   \   00066F C1                    PUSH      AX                 ;; 1 cycle
   \   000670 302640                MOVW      AX, #0x4026        ;; 1 cycle
   \   000673 C1                    PUSH      AX                 ;; 1 cycle
   \   000674 306666                MOVW      AX, #0x6666        ;; 1 cycle
   \   000677 C1                    PUSH      AX                 ;; 1 cycle
   \   000678 A81E                  MOVW      AX, [SP+0x1E]      ;; 1 cycle
   \   00067A 12                    MOVW      BC, AX             ;; 1 cycle
   \   00067B A81C                  MOVW      AX, [SP+0x1C]      ;; 1 cycle
   \   00067D FD....                CALL      N:?F_MUL           ;; 3 cycles
   \   000680 1004                  ADDW      SP, #0x4           ;; 1 cycle
   \   000682 FD....                CALL      N:?F_ADD           ;; 3 cycles
   \   000685 FD....                CALL      N:?F_F2SL          ;; 3 cycles
   \   000688 60                    MOV       A, X               ;; 1 cycle
   \   000689 9809                  MOV       [SP+0x09], A       ;; 1 cycle
   \   00068B 880E                  MOV       A, [SP+0x0E]       ;; 1 cycle
   \   00068D 76                    MOV       L, A               ;; 1 cycle
   \   00068E 880A                  MOV       A, [SP+0x0A]       ;; 1 cycle
   \   000690 5700                  MOV       H, #0x0            ;; 1 cycle
   \   000692 70                    MOV       X, A               ;; 1 cycle
   \   000693 F1                    CLRB      A                  ;; 1 cycle
   \   000694 27                    SUBW      AX, HL             ;; 1 cycle
   \   000695 16                    MOVW      HL, AX             ;; 1 cycle
   \   000696 8805                  MOV       A, [SP+0x05]       ;; 1 cycle
   \   000698 74                    MOV       E, A               ;; 1 cycle
   \   000699 880B                  MOV       A, [SP+0x0B]       ;; 1 cycle
   \   00069B 5500                  MOV       D, #0x0            ;; 1 cycle
   \   00069D 70                    MOV       X, A               ;; 1 cycle
   \   00069E F1                    CLRB      A                  ;; 1 cycle
   \   00069F 25                    SUBW      AX, DE             ;; 1 cycle
   \   0006A0 14                    MOVW      DE, AX             ;; 1 cycle
    249          LCDDrawLine(&p1,&p2,1,2);
   \   0006A1 880E                  MOV       A, [SP+0x0E]       ;; 1 cycle
   \   0006A3 70                    MOV       X, A               ;; 1 cycle
   \   0006A4 F1                    CLRB      A                  ;; 1 cycle
   \   0006A5 B816                  MOVW      [SP+0x16], AX      ;; 1 cycle
   \   0006A7 8805                  MOV       A, [SP+0x05]       ;; 1 cycle
   \   0006A9 70                    MOV       X, A               ;; 1 cycle
   \   0006AA F1                    CLRB      A                  ;; 1 cycle
   \   0006AB B814                  MOVW      [SP+0x14], AX      ;; 1 cycle
   \   0006AD F6                    CLRW      AX                 ;; 1 cycle
   \   0006AE B820                  MOVW      [SP+0x20], AX      ;; 1 cycle
   \   0006B0 B818                  MOVW      [SP+0x18], AX      ;; 1 cycle
   \   0006B2 B81E                  MOVW      [SP+0x1E], AX      ;; 1 cycle
   \   0006B4 B81C                  MOVW      [SP+0x1C], AX      ;; 1 cycle
   \   0006B6 17                    MOVW      AX, HL             ;; 1 cycle
   \   0006B7 1004                  ADDW      SP, #0x4           ;; 1 cycle
   \   0006B9 317505                BF        A.7, ??TestMyCode_103  ;; 5 cycles
   \   0006BC                       ; ------------------------------------- Block: 233 cycles
   \   0006BC 30FFFF                MOVW      AX, #0xFFFF        ;; 1 cycle
   \   0006BF EF08                  BR        S:??TestMyCode_104  ;; 3 cycles
   \   0006C1                       ; ------------------------------------- Block: 4 cycles
   \                     ??TestMyCode_103:
   \   0006C1 7C80                  XOR       A, #0x80           ;; 1 cycle
   \   0006C3 440180                CMPW      AX, #0x8001        ;; 1 cycle
   \   0006C6 DC05                  BC        ??TestMyCode_105   ;; 4 cycles
   \   0006C8                       ; ------------------------------------- Block: 6 cycles
   \   0006C8 E6                    ONEW      AX                 ;; 1 cycle
   \   0006C9                       ; ------------------------------------- Block: 1 cycles
   \                     ??TestMyCode_104:
   \   0006C9 B81C                  MOVW      [SP+0x1C], AX      ;; 1 cycle
   \   0006CB B814                  MOVW      [SP+0x14], AX      ;; 1 cycle
   \   0006CD                       ; ------------------------------------- Block: 2 cycles
   \                     ??TestMyCode_105:
   \   0006CD 15                    MOVW      AX, DE             ;; 1 cycle
   \   0006CE 317505                BF        A.7, ??TestMyCode_106  ;; 5 cycles
   \   0006D1                       ; ------------------------------------- Block: 6 cycles
   \   0006D1 30FFFF                MOVW      AX, #0xFFFF        ;; 1 cycle
   \   0006D4 EF08                  BR        S:??TestMyCode_107  ;; 3 cycles
   \   0006D6                       ; ------------------------------------- Block: 4 cycles
   \                     ??TestMyCode_106:
   \   0006D6 7C80                  XOR       A, #0x80           ;; 1 cycle
   \   0006D8 440180                CMPW      AX, #0x8001        ;; 1 cycle
   \   0006DB DC03                  BC        ??TestMyCode_108   ;; 4 cycles
   \   0006DD                       ; ------------------------------------- Block: 6 cycles
   \   0006DD E6                    ONEW      AX                 ;; 1 cycle
   \   0006DE                       ; ------------------------------------- Block: 1 cycles
   \                     ??TestMyCode_107:
   \   0006DE B81A                  MOVW      [SP+0x1A], AX      ;; 1 cycle
   \   0006E0                       ; ------------------------------------- Block: 1 cycles
   \                     ??TestMyCode_108:
   \   0006E0 17                    MOVW      AX, HL             ;; 1 cycle
   \   0006E1 317507                BF        A.7, ??TestMyCode_109  ;; 5 cycles
   \   0006E4                       ; ------------------------------------- Block: 6 cycles
   \   0006E4 7CFF                  XOR       A, #0xFF           ;; 1 cycle
   \   0006E6 08                    XCH       A, X               ;; 1 cycle
   \   0006E7 7CFF                  XOR       A, #0xFF           ;; 1 cycle
   \   0006E9 08                    XCH       A, X               ;; 1 cycle
   \   0006EA A1                    INCW      AX                 ;; 1 cycle
   \   0006EB                       ; ------------------------------------- Block: 5 cycles
   \                     ??TestMyCode_109:
   \   0006EB B802                  MOVW      [SP+0x02], AX      ;; 1 cycle
   \   0006ED 15                    MOVW      AX, DE             ;; 1 cycle
   \   0006EE 317507                BF        A.7, ??TestMyCode_110  ;; 5 cycles
   \   0006F1                       ; ------------------------------------- Block: 7 cycles
   \   0006F1 7CFF                  XOR       A, #0xFF           ;; 1 cycle
   \   0006F3 08                    XCH       A, X               ;; 1 cycle
   \   0006F4 7CFF                  XOR       A, #0xFF           ;; 1 cycle
   \   0006F6 08                    XCH       A, X               ;; 1 cycle
   \   0006F7 A1                    INCW      AX                 ;; 1 cycle
   \   0006F8                       ; ------------------------------------- Block: 5 cycles
   \                     ??TestMyCode_110:
   \   0006F8 B80C                  MOVW      [SP+0x0C], AX      ;; 1 cycle
   \   0006FA A802                  MOVW      AX, [SP+0x02]      ;; 1 cycle
   \   0006FC 12                    MOVW      BC, AX             ;; 1 cycle
   \   0006FD A80C                  MOVW      AX, [SP+0x0C]      ;; 1 cycle
   \   0006FF FD....                CALL      N:?SI_CMP_L02      ;; 3 cycles
   \   000702 DC25                  BC        ??TestMyCode_111   ;; 4 cycles
   \   000704                       ; ------------------------------------- Block: 11 cycles
   \   000704 B802                  MOVW      [SP+0x02], AX      ;; 1 cycle
   \   000706 17                    MOVW      AX, HL             ;; 1 cycle
   \   000707 317507                BF        A.7, ??TestMyCode_112  ;; 5 cycles
   \   00070A                       ; ------------------------------------- Block: 7 cycles
   \   00070A 7CFF                  XOR       A, #0xFF           ;; 1 cycle
   \   00070C 08                    XCH       A, X               ;; 1 cycle
   \   00070D 7CFF                  XOR       A, #0xFF           ;; 1 cycle
   \   00070F 08                    XCH       A, X               ;; 1 cycle
   \   000710 A1                    INCW      AX                 ;; 1 cycle
   \   000711                       ; ------------------------------------- Block: 5 cycles
   \                     ??TestMyCode_112:
   \   000711 B80C                  MOVW      [SP+0x0C], AX      ;; 1 cycle
   \   000713 15                    MOVW      AX, DE             ;; 1 cycle
   \   000714 317505                BF        A.7, ??TestMyCode_113  ;; 5 cycles
   \   000717                       ; ------------------------------------- Block: 7 cycles
   \   000717 30FFFF                MOVW      AX, #0xFFFF        ;; 1 cycle
   \   00071A EF08                  BR        S:??TestMyCode_114  ;; 3 cycles
   \   00071C                       ; ------------------------------------- Block: 4 cycles
   \                     ??TestMyCode_113:
   \   00071C 7C80                  XOR       A, #0x80           ;; 1 cycle
   \   00071E 440180                CMPW      AX, #0x8001        ;; 1 cycle
   \   000721 DC03                  BC        ??TestMyCode_115   ;; 4 cycles
   \   000723                       ; ------------------------------------- Block: 6 cycles
   \   000723 E6                    ONEW      AX                 ;; 1 cycle
   \   000724                       ; ------------------------------------- Block: 1 cycles
   \                     ??TestMyCode_114:
   \   000724 B818                  MOVW      [SP+0x18], AX      ;; 1 cycle
   \   000726                       ; ------------------------------------- Block: 1 cycles
   \                     ??TestMyCode_115:
   \   000726 F6                    CLRW      AX                 ;; 1 cycle
   \   000727 B814                  MOVW      [SP+0x14], AX      ;; 1 cycle
   \   000729                       ; ------------------------------------- Block: 2 cycles
   \                     ??TestMyCode_111:
   \   000729 A802                  MOVW      AX, [SP+0x02]      ;; 1 cycle
   \   00072B 311F                  SARW      AX, 0x1            ;; 1 cycle
   \   00072D B80E                  MOVW      [SP+0x0E], AX      ;; 1 cycle
   \   00072F F6                    CLRW      AX                 ;; 1 cycle
   \   000730 B816                  MOVW      [SP+0x16], AX      ;; 1 cycle
   \   000732 A802                  MOVW      AX, [SP+0x02]      ;; 1 cycle
   \   000734 317351                BT        A.7, ??TestMyCode_116  ;; 5 cycles
   \   000737                       ; ------------------------------------- Block: 11 cycles
   \                     ??LCDDrawDialNeedle_0:
   \   000737 A810                  MOVW      AX, [SP+0x10]      ;; 1 cycle
   \   000739 60                    MOV       A, X               ;; 1 cycle
   \   00073A 73                    MOV       B, A               ;; 1 cycle
   \   00073B A812                  MOVW      AX, [SP+0x12]      ;; 1 cycle
   \   00073D 340200                MOVW      DE, #0x2           ;; 1 cycle
   \   000740 E2                    ONEB      C                  ;; 1 cycle
   \   000741 60                    MOV       A, X               ;; 1 cycle
   \   000742 FD....                CALL      FBG_SetPixel       ;; 3 cycles
   \   000745 A80C                  MOVW      AX, [SP+0x0C]      ;; 1 cycle
   \   000747 16                    MOVW      HL, AX             ;; 1 cycle
   \   000748 A80E                  MOVW      AX, [SP+0x0E]      ;; 1 cycle
   \   00074A 07                    ADDW      AX, HL             ;; 1 cycle
   \   00074B B80E                  MOVW      [SP+0x0E], AX      ;; 1 cycle
   \   00074D A802                  MOVW      AX, [SP+0x02]      ;; 1 cycle
   \   00074F 12                    MOVW      BC, AX             ;; 1 cycle
   \   000750 A80E                  MOVW      AX, [SP+0x0E]      ;; 1 cycle
   \   000752 FD....                CALL      N:?SI_CMP_L02      ;; 3 cycles
   \   000755 DC14                  BC        ??TestMyCode_117   ;; 4 cycles
   \   000757                       ; ------------------------------------- Block: 25 cycles
   \   000757 A802                  MOVW      AX, [SP+0x02]      ;; 1 cycle
   \   000759 16                    MOVW      HL, AX             ;; 1 cycle
   \   00075A A80E                  MOVW      AX, [SP+0x0E]      ;; 1 cycle
   \   00075C 27                    SUBW      AX, HL             ;; 1 cycle
   \   00075D B80E                  MOVW      [SP+0x0E], AX      ;; 1 cycle
   \   00075F A81C                  MOVW      AX, [SP+0x1C]      ;; 1 cycle
   \   000761 16                    MOVW      HL, AX             ;; 1 cycle
   \   000762 A812                  MOVW      AX, [SP+0x12]      ;; 1 cycle
   \   000764 07                    ADDW      AX, HL             ;; 1 cycle
   \   000765 B812                  MOVW      [SP+0x12], AX      ;; 1 cycle
   \   000767 A81A                  MOVW      AX, [SP+0x1A]      ;; 1 cycle
   \   000769 EF0A                  BR        S:??TestMyCode_118  ;; 3 cycles
   \   00076B                       ; ------------------------------------- Block: 14 cycles
   \                     ??TestMyCode_117:
   \   00076B A814                  MOVW      AX, [SP+0x14]      ;; 1 cycle
   \   00076D 16                    MOVW      HL, AX             ;; 1 cycle
   \   00076E A812                  MOVW      AX, [SP+0x12]      ;; 1 cycle
   \   000770 07                    ADDW      AX, HL             ;; 1 cycle
   \   000771 B812                  MOVW      [SP+0x12], AX      ;; 1 cycle
   \   000773 A818                  MOVW      AX, [SP+0x18]      ;; 1 cycle
   \   000775                       ; ------------------------------------- Block: 6 cycles
   \                     ??TestMyCode_118:
   \   000775 16                    MOVW      HL, AX             ;; 1 cycle
   \   000776 A810                  MOVW      AX, [SP+0x10]      ;; 1 cycle
   \   000778 07                    ADDW      AX, HL             ;; 1 cycle
   \   000779 B810                  MOVW      [SP+0x10], AX      ;; 1 cycle
   \   00077B A816                  MOVW      AX, [SP+0x16]      ;; 1 cycle
   \   00077D A1                    INCW      AX                 ;; 1 cycle
   \   00077E B816                  MOVW      [SP+0x16], AX      ;; 1 cycle
   \   000780 12                    MOVW      BC, AX             ;; 1 cycle
   \   000781 A802                  MOVW      AX, [SP+0x02]      ;; 1 cycle
   \   000783 FD....                CALL      N:?SI_CMP_L02      ;; 3 cycles
   \   000786 DEAF                  BNC       ??LCDDrawDialNeedle_0  ;; 4 cycles
   \   000788                       ; ------------------------------------- Block: 16 cycles
    250          LCDDrawLine(&p1,&p3,1,2);
   \                     ??TestMyCode_116:
   \   000788 880A                  MOV       A, [SP+0x0A]       ;; 1 cycle
   \   00078A 76                    MOV       L, A               ;; 1 cycle
   \   00078B 8804                  MOV       A, [SP+0x04]       ;; 1 cycle
   \   00078D 5700                  MOV       H, #0x0            ;; 1 cycle
   \   00078F 70                    MOV       X, A               ;; 1 cycle
   \   000790 F1                    CLRB      A                  ;; 1 cycle
   \   000791 27                    SUBW      AX, HL             ;; 1 cycle
   \   000792 16                    MOVW      HL, AX             ;; 1 cycle
   \   000793 8801                  MOV       A, [SP+0x01]       ;; 1 cycle
   \   000795 74                    MOV       E, A               ;; 1 cycle
   \   000796 8805                  MOV       A, [SP+0x05]       ;; 1 cycle
   \   000798 5500                  MOV       D, #0x0            ;; 1 cycle
   \   00079A 70                    MOV       X, A               ;; 1 cycle
   \   00079B F1                    CLRB      A                  ;; 1 cycle
   \   00079C 25                    SUBW      AX, DE             ;; 1 cycle
   \   00079D 14                    MOVW      DE, AX             ;; 1 cycle
   \   00079E 880A                  MOV       A, [SP+0x0A]       ;; 1 cycle
   \   0007A0 70                    MOV       X, A               ;; 1 cycle
   \   0007A1 F1                    CLRB      A                  ;; 1 cycle
   \   0007A2 B812                  MOVW      [SP+0x12], AX      ;; 1 cycle
   \   0007A4 8801                  MOV       A, [SP+0x01]       ;; 1 cycle
   \   0007A6 70                    MOV       X, A               ;; 1 cycle
   \   0007A7 F1                    CLRB      A                  ;; 1 cycle
   \   0007A8 B810                  MOVW      [SP+0x10], AX      ;; 1 cycle
   \   0007AA F6                    CLRW      AX                 ;; 1 cycle
   \   0007AB B81C                  MOVW      [SP+0x1C], AX      ;; 1 cycle
   \   0007AD B814                  MOVW      [SP+0x14], AX      ;; 1 cycle
   \   0007AF B81A                  MOVW      [SP+0x1A], AX      ;; 1 cycle
   \   0007B1 B818                  MOVW      [SP+0x18], AX      ;; 1 cycle
   \   0007B3 17                    MOVW      AX, HL             ;; 1 cycle
   \   0007B4 317505                BF        A.7, ??TestMyCode_119  ;; 5 cycles
   \   0007B7                       ; ------------------------------------- Block: 35 cycles
   \   0007B7 30FFFF                MOVW      AX, #0xFFFF        ;; 1 cycle
   \   0007BA EF08                  BR        S:??TestMyCode_120  ;; 3 cycles
   \   0007BC                       ; ------------------------------------- Block: 4 cycles
   \                     ??TestMyCode_119:
   \   0007BC 7C80                  XOR       A, #0x80           ;; 1 cycle
   \   0007BE 440180                CMPW      AX, #0x8001        ;; 1 cycle
   \   0007C1 DC05                  BC        ??TestMyCode_121   ;; 4 cycles
   \   0007C3                       ; ------------------------------------- Block: 6 cycles
   \   0007C3 E6                    ONEW      AX                 ;; 1 cycle
   \   0007C4                       ; ------------------------------------- Block: 1 cycles
   \                     ??TestMyCode_120:
   \   0007C4 B81C                  MOVW      [SP+0x1C], AX      ;; 1 cycle
   \   0007C6 B814                  MOVW      [SP+0x14], AX      ;; 1 cycle
   \   0007C8                       ; ------------------------------------- Block: 2 cycles
   \                     ??TestMyCode_121:
   \   0007C8 15                    MOVW      AX, DE             ;; 1 cycle
   \   0007C9 317505                BF        A.7, ??TestMyCode_122  ;; 5 cycles
   \   0007CC                       ; ------------------------------------- Block: 6 cycles
   \   0007CC 30FFFF                MOVW      AX, #0xFFFF        ;; 1 cycle
   \   0007CF EF08                  BR        S:??TestMyCode_123  ;; 3 cycles
   \   0007D1                       ; ------------------------------------- Block: 4 cycles
   \                     ??TestMyCode_122:
   \   0007D1 7C80                  XOR       A, #0x80           ;; 1 cycle
   \   0007D3 440180                CMPW      AX, #0x8001        ;; 1 cycle
   \   0007D6 DC03                  BC        ??TestMyCode_124   ;; 4 cycles
   \   0007D8                       ; ------------------------------------- Block: 6 cycles
   \   0007D8 E6                    ONEW      AX                 ;; 1 cycle
   \   0007D9                       ; ------------------------------------- Block: 1 cycles
   \                     ??TestMyCode_123:
   \   0007D9 B81A                  MOVW      [SP+0x1A], AX      ;; 1 cycle
   \   0007DB                       ; ------------------------------------- Block: 1 cycles
   \                     ??TestMyCode_124:
   \   0007DB 17                    MOVW      AX, HL             ;; 1 cycle
   \   0007DC 317507                BF        A.7, ??TestMyCode_125  ;; 5 cycles
   \   0007DF                       ; ------------------------------------- Block: 6 cycles
   \   0007DF 7CFF                  XOR       A, #0xFF           ;; 1 cycle
   \   0007E1 08                    XCH       A, X               ;; 1 cycle
   \   0007E2 7CFF                  XOR       A, #0xFF           ;; 1 cycle
   \   0007E4 08                    XCH       A, X               ;; 1 cycle
   \   0007E5 A1                    INCW      AX                 ;; 1 cycle
   \   0007E6                       ; ------------------------------------- Block: 5 cycles
   \                     ??TestMyCode_125:
   \   0007E6 B802                  MOVW      [SP+0x02], AX      ;; 1 cycle
   \   0007E8 15                    MOVW      AX, DE             ;; 1 cycle
   \   0007E9 317507                BF        A.7, ??TestMyCode_126  ;; 5 cycles
   \   0007EC                       ; ------------------------------------- Block: 7 cycles
   \   0007EC 7CFF                  XOR       A, #0xFF           ;; 1 cycle
   \   0007EE 08                    XCH       A, X               ;; 1 cycle
   \   0007EF 7CFF                  XOR       A, #0xFF           ;; 1 cycle
   \   0007F1 08                    XCH       A, X               ;; 1 cycle
   \   0007F2 A1                    INCW      AX                 ;; 1 cycle
   \   0007F3                       ; ------------------------------------- Block: 5 cycles
   \                     ??TestMyCode_126:
   \   0007F3 B80C                  MOVW      [SP+0x0C], AX      ;; 1 cycle
   \   0007F5 A802                  MOVW      AX, [SP+0x02]      ;; 1 cycle
   \   0007F7 12                    MOVW      BC, AX             ;; 1 cycle
   \   0007F8 A80C                  MOVW      AX, [SP+0x0C]      ;; 1 cycle
   \   0007FA FD....                CALL      N:?SI_CMP_L02      ;; 3 cycles
   \   0007FD DC25                  BC        ??TestMyCode_127   ;; 4 cycles
   \   0007FF                       ; ------------------------------------- Block: 11 cycles
   \   0007FF B802                  MOVW      [SP+0x02], AX      ;; 1 cycle
   \   000801 17                    MOVW      AX, HL             ;; 1 cycle
   \   000802 317507                BF        A.7, ??TestMyCode_128  ;; 5 cycles
   \   000805                       ; ------------------------------------- Block: 7 cycles
   \   000805 7CFF                  XOR       A, #0xFF           ;; 1 cycle
   \   000807 08                    XCH       A, X               ;; 1 cycle
   \   000808 7CFF                  XOR       A, #0xFF           ;; 1 cycle
   \   00080A 08                    XCH       A, X               ;; 1 cycle
   \   00080B A1                    INCW      AX                 ;; 1 cycle
   \   00080C                       ; ------------------------------------- Block: 5 cycles
   \                     ??TestMyCode_128:
   \   00080C B80C                  MOVW      [SP+0x0C], AX      ;; 1 cycle
   \   00080E 15                    MOVW      AX, DE             ;; 1 cycle
   \   00080F 317505                BF        A.7, ??TestMyCode_129  ;; 5 cycles
   \   000812                       ; ------------------------------------- Block: 7 cycles
   \   000812 30FFFF                MOVW      AX, #0xFFFF        ;; 1 cycle
   \   000815 EF08                  BR        S:??TestMyCode_130  ;; 3 cycles
   \   000817                       ; ------------------------------------- Block: 4 cycles
   \                     ??TestMyCode_129:
   \   000817 7C80                  XOR       A, #0x80           ;; 1 cycle
   \   000819 440180                CMPW      AX, #0x8001        ;; 1 cycle
   \   00081C DC03                  BC        ??TestMyCode_131   ;; 4 cycles
   \   00081E                       ; ------------------------------------- Block: 6 cycles
   \   00081E E6                    ONEW      AX                 ;; 1 cycle
   \   00081F                       ; ------------------------------------- Block: 1 cycles
   \                     ??TestMyCode_130:
   \   00081F B818                  MOVW      [SP+0x18], AX      ;; 1 cycle
   \   000821                       ; ------------------------------------- Block: 1 cycles
   \                     ??TestMyCode_131:
   \   000821 F6                    CLRW      AX                 ;; 1 cycle
   \   000822 B814                  MOVW      [SP+0x14], AX      ;; 1 cycle
   \   000824                       ; ------------------------------------- Block: 2 cycles
   \                     ??TestMyCode_127:
   \   000824 A802                  MOVW      AX, [SP+0x02]      ;; 1 cycle
   \   000826 311F                  SARW      AX, 0x1            ;; 1 cycle
   \   000828 B80E                  MOVW      [SP+0x0E], AX      ;; 1 cycle
   \   00082A F6                    CLRW      AX                 ;; 1 cycle
   \   00082B B816                  MOVW      [SP+0x16], AX      ;; 1 cycle
   \   00082D A802                  MOVW      AX, [SP+0x02]      ;; 1 cycle
   \   00082F 317351                BT        A.7, ??TestMyCode_132  ;; 5 cycles
   \   000832                       ; ------------------------------------- Block: 11 cycles
   \                     ??LCDDrawDialNeedle_1:
   \   000832 A810                  MOVW      AX, [SP+0x10]      ;; 1 cycle
   \   000834 60                    MOV       A, X               ;; 1 cycle
   \   000835 73                    MOV       B, A               ;; 1 cycle
   \   000836 A812                  MOVW      AX, [SP+0x12]      ;; 1 cycle
   \   000838 340200                MOVW      DE, #0x2           ;; 1 cycle
   \   00083B E2                    ONEB      C                  ;; 1 cycle
   \   00083C 60                    MOV       A, X               ;; 1 cycle
   \   00083D FD....                CALL      FBG_SetPixel       ;; 3 cycles
   \   000840 A80C                  MOVW      AX, [SP+0x0C]      ;; 1 cycle
   \   000842 16                    MOVW      HL, AX             ;; 1 cycle
   \   000843 A80E                  MOVW      AX, [SP+0x0E]      ;; 1 cycle
   \   000845 07                    ADDW      AX, HL             ;; 1 cycle
   \   000846 B80E                  MOVW      [SP+0x0E], AX      ;; 1 cycle
   \   000848 A802                  MOVW      AX, [SP+0x02]      ;; 1 cycle
   \   00084A 12                    MOVW      BC, AX             ;; 1 cycle
   \   00084B A80E                  MOVW      AX, [SP+0x0E]      ;; 1 cycle
   \   00084D FD....                CALL      N:?SI_CMP_L02      ;; 3 cycles
   \   000850 DC14                  BC        ??TestMyCode_133   ;; 4 cycles
   \   000852                       ; ------------------------------------- Block: 25 cycles
   \   000852 A802                  MOVW      AX, [SP+0x02]      ;; 1 cycle
   \   000854 16                    MOVW      HL, AX             ;; 1 cycle
   \   000855 A80E                  MOVW      AX, [SP+0x0E]      ;; 1 cycle
   \   000857 27                    SUBW      AX, HL             ;; 1 cycle
   \   000858 B80E                  MOVW      [SP+0x0E], AX      ;; 1 cycle
   \   00085A A81C                  MOVW      AX, [SP+0x1C]      ;; 1 cycle
   \   00085C 16                    MOVW      HL, AX             ;; 1 cycle
   \   00085D A812                  MOVW      AX, [SP+0x12]      ;; 1 cycle
   \   00085F 07                    ADDW      AX, HL             ;; 1 cycle
   \   000860 B812                  MOVW      [SP+0x12], AX      ;; 1 cycle
   \   000862 A81A                  MOVW      AX, [SP+0x1A]      ;; 1 cycle
   \   000864 EF0A                  BR        S:??TestMyCode_134  ;; 3 cycles
   \   000866                       ; ------------------------------------- Block: 14 cycles
   \                     ??TestMyCode_133:
   \   000866 A814                  MOVW      AX, [SP+0x14]      ;; 1 cycle
   \   000868 16                    MOVW      HL, AX             ;; 1 cycle
   \   000869 A812                  MOVW      AX, [SP+0x12]      ;; 1 cycle
   \   00086B 07                    ADDW      AX, HL             ;; 1 cycle
   \   00086C B812                  MOVW      [SP+0x12], AX      ;; 1 cycle
   \   00086E A818                  MOVW      AX, [SP+0x18]      ;; 1 cycle
   \   000870                       ; ------------------------------------- Block: 6 cycles
   \                     ??TestMyCode_134:
   \   000870 16                    MOVW      HL, AX             ;; 1 cycle
   \   000871 A810                  MOVW      AX, [SP+0x10]      ;; 1 cycle
   \   000873 07                    ADDW      AX, HL             ;; 1 cycle
   \   000874 B810                  MOVW      [SP+0x10], AX      ;; 1 cycle
   \   000876 A816                  MOVW      AX, [SP+0x16]      ;; 1 cycle
   \   000878 A1                    INCW      AX                 ;; 1 cycle
   \   000879 B816                  MOVW      [SP+0x16], AX      ;; 1 cycle
   \   00087B 12                    MOVW      BC, AX             ;; 1 cycle
   \   00087C A802                  MOVW      AX, [SP+0x02]      ;; 1 cycle
   \   00087E FD....                CALL      N:?SI_CMP_L02      ;; 3 cycles
   \   000881 DEAF                  BNC       ??LCDDrawDialNeedle_1  ;; 4 cycles
   \   000883                       ; ------------------------------------- Block: 16 cycles
   \                     ??TestMyCode_132:
   \   000883 8808                  MOV       A, [SP+0x08]       ;; 1 cycle
   \   000885 76                    MOV       L, A               ;; 1 cycle
   \   000886 8804                  MOV       A, [SP+0x04]       ;; 1 cycle
   \   000888 5700                  MOV       H, #0x0            ;; 1 cycle
   \   00088A 70                    MOV       X, A               ;; 1 cycle
   \   00088B F1                    CLRB      A                  ;; 1 cycle
   \   00088C 27                    SUBW      AX, HL             ;; 1 cycle
   \   00088D 16                    MOVW      HL, AX             ;; 1 cycle
   \   00088E 8800                  MOV       A, [SP]            ;; 1 cycle
   \   000890 74                    MOV       E, A               ;; 1 cycle
   \   000891 8805                  MOV       A, [SP+0x05]       ;; 1 cycle
   \   000893 5500                  MOV       D, #0x0            ;; 1 cycle
   \   000895 70                    MOV       X, A               ;; 1 cycle
   \   000896 F1                    CLRB      A                  ;; 1 cycle
   \   000897 25                    SUBW      AX, DE             ;; 1 cycle
   \   000898 14                    MOVW      DE, AX             ;; 1 cycle
    251          LCDDrawLine(&p4,&p3,1,2);
   \   000899 8808                  MOV       A, [SP+0x08]       ;; 1 cycle
   \   00089B 70                    MOV       X, A               ;; 1 cycle
   \   00089C F1                    CLRB      A                  ;; 1 cycle
   \   00089D B812                  MOVW      [SP+0x12], AX      ;; 1 cycle
   \   00089F 8800                  MOV       A, [SP]            ;; 1 cycle
   \   0008A1 70                    MOV       X, A               ;; 1 cycle
   \   0008A2 F1                    CLRB      A                  ;; 1 cycle
   \   0008A3 B810                  MOVW      [SP+0x10], AX      ;; 1 cycle
   \   0008A5 F6                    CLRW      AX                 ;; 1 cycle
   \   0008A6 B81C                  MOVW      [SP+0x1C], AX      ;; 1 cycle
   \   0008A8 B814                  MOVW      [SP+0x14], AX      ;; 1 cycle
   \   0008AA B81A                  MOVW      [SP+0x1A], AX      ;; 1 cycle
   \   0008AC B818                  MOVW      [SP+0x18], AX      ;; 1 cycle
   \   0008AE 17                    MOVW      AX, HL             ;; 1 cycle
   \   0008AF 317505                BF        A.7, ??TestMyCode_135  ;; 5 cycles
   \   0008B2                       ; ------------------------------------- Block: 35 cycles
   \   0008B2 30FFFF                MOVW      AX, #0xFFFF        ;; 1 cycle
   \   0008B5 EF08                  BR        S:??TestMyCode_136  ;; 3 cycles
   \   0008B7                       ; ------------------------------------- Block: 4 cycles
   \                     ??TestMyCode_135:
   \   0008B7 7C80                  XOR       A, #0x80           ;; 1 cycle
   \   0008B9 440180                CMPW      AX, #0x8001        ;; 1 cycle
   \   0008BC DC05                  BC        ??TestMyCode_137   ;; 4 cycles
   \   0008BE                       ; ------------------------------------- Block: 6 cycles
   \   0008BE E6                    ONEW      AX                 ;; 1 cycle
   \   0008BF                       ; ------------------------------------- Block: 1 cycles
   \                     ??TestMyCode_136:
   \   0008BF B81C                  MOVW      [SP+0x1C], AX      ;; 1 cycle
   \   0008C1 B814                  MOVW      [SP+0x14], AX      ;; 1 cycle
   \   0008C3                       ; ------------------------------------- Block: 2 cycles
   \                     ??TestMyCode_137:
   \   0008C3 15                    MOVW      AX, DE             ;; 1 cycle
   \   0008C4 317505                BF        A.7, ??TestMyCode_138  ;; 5 cycles
   \   0008C7                       ; ------------------------------------- Block: 6 cycles
   \   0008C7 30FFFF                MOVW      AX, #0xFFFF        ;; 1 cycle
   \   0008CA EF08                  BR        S:??TestMyCode_139  ;; 3 cycles
   \   0008CC                       ; ------------------------------------- Block: 4 cycles
   \                     ??TestMyCode_138:
   \   0008CC 7C80                  XOR       A, #0x80           ;; 1 cycle
   \   0008CE 440180                CMPW      AX, #0x8001        ;; 1 cycle
   \   0008D1 DC03                  BC        ??TestMyCode_140   ;; 4 cycles
   \   0008D3                       ; ------------------------------------- Block: 6 cycles
   \   0008D3 E6                    ONEW      AX                 ;; 1 cycle
   \   0008D4                       ; ------------------------------------- Block: 1 cycles
   \                     ??TestMyCode_139:
   \   0008D4 B81A                  MOVW      [SP+0x1A], AX      ;; 1 cycle
   \   0008D6                       ; ------------------------------------- Block: 1 cycles
   \                     ??TestMyCode_140:
   \   0008D6 17                    MOVW      AX, HL             ;; 1 cycle
   \   0008D7 317507                BF        A.7, ??TestMyCode_141  ;; 5 cycles
   \   0008DA                       ; ------------------------------------- Block: 6 cycles
   \   0008DA 7CFF                  XOR       A, #0xFF           ;; 1 cycle
   \   0008DC 08                    XCH       A, X               ;; 1 cycle
   \   0008DD 7CFF                  XOR       A, #0xFF           ;; 1 cycle
   \   0008DF 08                    XCH       A, X               ;; 1 cycle
   \   0008E0 A1                    INCW      AX                 ;; 1 cycle
   \   0008E1                       ; ------------------------------------- Block: 5 cycles
   \                     ??TestMyCode_141:
   \   0008E1 B802                  MOVW      [SP+0x02], AX      ;; 1 cycle
   \   0008E3 15                    MOVW      AX, DE             ;; 1 cycle
   \   0008E4 317507                BF        A.7, ??TestMyCode_142  ;; 5 cycles
   \   0008E7                       ; ------------------------------------- Block: 7 cycles
   \   0008E7 7CFF                  XOR       A, #0xFF           ;; 1 cycle
   \   0008E9 08                    XCH       A, X               ;; 1 cycle
   \   0008EA 7CFF                  XOR       A, #0xFF           ;; 1 cycle
   \   0008EC 08                    XCH       A, X               ;; 1 cycle
   \   0008ED A1                    INCW      AX                 ;; 1 cycle
   \   0008EE                       ; ------------------------------------- Block: 5 cycles
   \                     ??TestMyCode_142:
   \   0008EE B80C                  MOVW      [SP+0x0C], AX      ;; 1 cycle
   \   0008F0 A802                  MOVW      AX, [SP+0x02]      ;; 1 cycle
   \   0008F2 12                    MOVW      BC, AX             ;; 1 cycle
   \   0008F3 A80C                  MOVW      AX, [SP+0x0C]      ;; 1 cycle
   \   0008F5 FD....                CALL      N:?SI_CMP_L02      ;; 3 cycles
   \   0008F8 DC25                  BC        ??TestMyCode_143   ;; 4 cycles
   \   0008FA                       ; ------------------------------------- Block: 11 cycles
   \   0008FA B802                  MOVW      [SP+0x02], AX      ;; 1 cycle
   \   0008FC 17                    MOVW      AX, HL             ;; 1 cycle
   \   0008FD 317507                BF        A.7, ??TestMyCode_144  ;; 5 cycles
   \   000900                       ; ------------------------------------- Block: 7 cycles
   \   000900 7CFF                  XOR       A, #0xFF           ;; 1 cycle
   \   000902 08                    XCH       A, X               ;; 1 cycle
   \   000903 7CFF                  XOR       A, #0xFF           ;; 1 cycle
   \   000905 08                    XCH       A, X               ;; 1 cycle
   \   000906 A1                    INCW      AX                 ;; 1 cycle
   \   000907                       ; ------------------------------------- Block: 5 cycles
   \                     ??TestMyCode_144:
   \   000907 B80C                  MOVW      [SP+0x0C], AX      ;; 1 cycle
   \   000909 15                    MOVW      AX, DE             ;; 1 cycle
   \   00090A 317505                BF        A.7, ??TestMyCode_145  ;; 5 cycles
   \   00090D                       ; ------------------------------------- Block: 7 cycles
   \   00090D 30FFFF                MOVW      AX, #0xFFFF        ;; 1 cycle
   \   000910 EF08                  BR        S:??TestMyCode_146  ;; 3 cycles
   \   000912                       ; ------------------------------------- Block: 4 cycles
   \                     ??TestMyCode_145:
   \   000912 7C80                  XOR       A, #0x80           ;; 1 cycle
   \   000914 440180                CMPW      AX, #0x8001        ;; 1 cycle
   \   000917 DC03                  BC        ??TestMyCode_147   ;; 4 cycles
   \   000919                       ; ------------------------------------- Block: 6 cycles
   \   000919 E6                    ONEW      AX                 ;; 1 cycle
   \   00091A                       ; ------------------------------------- Block: 1 cycles
   \                     ??TestMyCode_146:
   \   00091A B818                  MOVW      [SP+0x18], AX      ;; 1 cycle
   \   00091C                       ; ------------------------------------- Block: 1 cycles
   \                     ??TestMyCode_147:
   \   00091C F6                    CLRW      AX                 ;; 1 cycle
   \   00091D B814                  MOVW      [SP+0x14], AX      ;; 1 cycle
   \   00091F                       ; ------------------------------------- Block: 2 cycles
   \                     ??TestMyCode_143:
   \   00091F A802                  MOVW      AX, [SP+0x02]      ;; 1 cycle
   \   000921 311F                  SARW      AX, 0x1            ;; 1 cycle
   \   000923 B80E                  MOVW      [SP+0x0E], AX      ;; 1 cycle
   \   000925 F6                    CLRW      AX                 ;; 1 cycle
   \   000926 B816                  MOVW      [SP+0x16], AX      ;; 1 cycle
   \   000928 A802                  MOVW      AX, [SP+0x02]      ;; 1 cycle
   \   00092A 317351                BT        A.7, ??TestMyCode_148  ;; 5 cycles
   \   00092D                       ; ------------------------------------- Block: 11 cycles
   \                     ??LCDDrawDialNeedle_2:
   \   00092D A810                  MOVW      AX, [SP+0x10]      ;; 1 cycle
   \   00092F 60                    MOV       A, X               ;; 1 cycle
   \   000930 73                    MOV       B, A               ;; 1 cycle
   \   000931 A812                  MOVW      AX, [SP+0x12]      ;; 1 cycle
   \   000933 340200                MOVW      DE, #0x2           ;; 1 cycle
   \   000936 E2                    ONEB      C                  ;; 1 cycle
   \   000937 60                    MOV       A, X               ;; 1 cycle
   \   000938 FD....                CALL      FBG_SetPixel       ;; 3 cycles
   \   00093B A80C                  MOVW      AX, [SP+0x0C]      ;; 1 cycle
   \   00093D 16                    MOVW      HL, AX             ;; 1 cycle
   \   00093E A80E                  MOVW      AX, [SP+0x0E]      ;; 1 cycle
   \   000940 07                    ADDW      AX, HL             ;; 1 cycle
   \   000941 B80E                  MOVW      [SP+0x0E], AX      ;; 1 cycle
   \   000943 A802                  MOVW      AX, [SP+0x02]      ;; 1 cycle
   \   000945 12                    MOVW      BC, AX             ;; 1 cycle
   \   000946 A80E                  MOVW      AX, [SP+0x0E]      ;; 1 cycle
   \   000948 FD....                CALL      N:?SI_CMP_L02      ;; 3 cycles
   \   00094B DC14                  BC        ??TestMyCode_149   ;; 4 cycles
   \   00094D                       ; ------------------------------------- Block: 25 cycles
   \   00094D A802                  MOVW      AX, [SP+0x02]      ;; 1 cycle
   \   00094F 16                    MOVW      HL, AX             ;; 1 cycle
   \   000950 A80E                  MOVW      AX, [SP+0x0E]      ;; 1 cycle
   \   000952 27                    SUBW      AX, HL             ;; 1 cycle
   \   000953 B80E                  MOVW      [SP+0x0E], AX      ;; 1 cycle
   \   000955 A81C                  MOVW      AX, [SP+0x1C]      ;; 1 cycle
   \   000957 16                    MOVW      HL, AX             ;; 1 cycle
   \   000958 A812                  MOVW      AX, [SP+0x12]      ;; 1 cycle
   \   00095A 07                    ADDW      AX, HL             ;; 1 cycle
   \   00095B B812                  MOVW      [SP+0x12], AX      ;; 1 cycle
   \   00095D A81A                  MOVW      AX, [SP+0x1A]      ;; 1 cycle
   \   00095F EF0A                  BR        S:??TestMyCode_150  ;; 3 cycles
   \   000961                       ; ------------------------------------- Block: 14 cycles
   \                     ??TestMyCode_149:
   \   000961 A814                  MOVW      AX, [SP+0x14]      ;; 1 cycle
   \   000963 16                    MOVW      HL, AX             ;; 1 cycle
   \   000964 A812                  MOVW      AX, [SP+0x12]      ;; 1 cycle
   \   000966 07                    ADDW      AX, HL             ;; 1 cycle
   \   000967 B812                  MOVW      [SP+0x12], AX      ;; 1 cycle
   \   000969 A818                  MOVW      AX, [SP+0x18]      ;; 1 cycle
   \   00096B                       ; ------------------------------------- Block: 6 cycles
   \                     ??TestMyCode_150:
   \   00096B 16                    MOVW      HL, AX             ;; 1 cycle
   \   00096C A810                  MOVW      AX, [SP+0x10]      ;; 1 cycle
   \   00096E 07                    ADDW      AX, HL             ;; 1 cycle
   \   00096F B810                  MOVW      [SP+0x10], AX      ;; 1 cycle
   \   000971 A816                  MOVW      AX, [SP+0x16]      ;; 1 cycle
   \   000973 A1                    INCW      AX                 ;; 1 cycle
   \   000974 B816                  MOVW      [SP+0x16], AX      ;; 1 cycle
   \   000976 12                    MOVW      BC, AX             ;; 1 cycle
   \   000977 A802                  MOVW      AX, [SP+0x02]      ;; 1 cycle
   \   000979 FD....                CALL      N:?SI_CMP_L02      ;; 3 cycles
   \   00097C DEAF                  BNC       ??LCDDrawDialNeedle_2  ;; 4 cycles
   \   00097E                       ; ------------------------------------- Block: 16 cycles
    252          LCDDrawLine(&p4,&p2,1,2);
   \                     ??TestMyCode_148:
   \   00097E 8808                  MOV       A, [SP+0x08]       ;; 1 cycle
   \   000980 76                    MOV       L, A               ;; 1 cycle
   \   000981 8806                  MOV       A, [SP+0x06]       ;; 1 cycle
   \   000983 5700                  MOV       H, #0x0            ;; 1 cycle
   \   000985 70                    MOV       X, A               ;; 1 cycle
   \   000986 F1                    CLRB      A                  ;; 1 cycle
   \   000987 27                    SUBW      AX, HL             ;; 1 cycle
   \   000988 16                    MOVW      HL, AX             ;; 1 cycle
   \   000989 8800                  MOV       A, [SP]            ;; 1 cycle
   \   00098B 74                    MOV       E, A               ;; 1 cycle
   \   00098C 8807                  MOV       A, [SP+0x07]       ;; 1 cycle
   \   00098E 5500                  MOV       D, #0x0            ;; 1 cycle
   \   000990 70                    MOV       X, A               ;; 1 cycle
   \   000991 F1                    CLRB      A                  ;; 1 cycle
   \   000992 25                    SUBW      AX, DE             ;; 1 cycle
   \   000993 14                    MOVW      DE, AX             ;; 1 cycle
   \   000994 8808                  MOV       A, [SP+0x08]       ;; 1 cycle
   \   000996 70                    MOV       X, A               ;; 1 cycle
   \   000997 F1                    CLRB      A                  ;; 1 cycle
   \   000998 B810                  MOVW      [SP+0x10], AX      ;; 1 cycle
   \   00099A 8800                  MOV       A, [SP]            ;; 1 cycle
   \   00099C 70                    MOV       X, A               ;; 1 cycle
   \   00099D F1                    CLRB      A                  ;; 1 cycle
   \   00099E B80E                  MOVW      [SP+0x0E], AX      ;; 1 cycle
   \   0009A0 F6                    CLRW      AX                 ;; 1 cycle
   \   0009A1 B81A                  MOVW      [SP+0x1A], AX      ;; 1 cycle
   \   0009A3 B812                  MOVW      [SP+0x12], AX      ;; 1 cycle
   \   0009A5 B818                  MOVW      [SP+0x18], AX      ;; 1 cycle
   \   0009A7 B816                  MOVW      [SP+0x16], AX      ;; 1 cycle
   \   0009A9 17                    MOVW      AX, HL             ;; 1 cycle
   \   0009AA 317505                BF        A.7, ??TestMyCode_151  ;; 5 cycles
   \   0009AD                       ; ------------------------------------- Block: 35 cycles
   \   0009AD 30FFFF                MOVW      AX, #0xFFFF        ;; 1 cycle
   \   0009B0 EF08                  BR        S:??TestMyCode_152  ;; 3 cycles
   \   0009B2                       ; ------------------------------------- Block: 4 cycles
   \                     ??TestMyCode_151:
   \   0009B2 7C80                  XOR       A, #0x80           ;; 1 cycle
   \   0009B4 440180                CMPW      AX, #0x8001        ;; 1 cycle
   \   0009B7 DC05                  BC        ??TestMyCode_153   ;; 4 cycles
   \   0009B9                       ; ------------------------------------- Block: 6 cycles
   \   0009B9 E6                    ONEW      AX                 ;; 1 cycle
   \   0009BA                       ; ------------------------------------- Block: 1 cycles
   \                     ??TestMyCode_152:
   \   0009BA B81A                  MOVW      [SP+0x1A], AX      ;; 1 cycle
   \   0009BC B812                  MOVW      [SP+0x12], AX      ;; 1 cycle
   \   0009BE                       ; ------------------------------------- Block: 2 cycles
   \                     ??TestMyCode_153:
   \   0009BE 15                    MOVW      AX, DE             ;; 1 cycle
   \   0009BF 317505                BF        A.7, ??TestMyCode_154  ;; 5 cycles
   \   0009C2                       ; ------------------------------------- Block: 6 cycles
   \   0009C2 30FFFF                MOVW      AX, #0xFFFF        ;; 1 cycle
   \   0009C5 EF08                  BR        S:??TestMyCode_155  ;; 3 cycles
   \   0009C7                       ; ------------------------------------- Block: 4 cycles
   \                     ??TestMyCode_154:
   \   0009C7 7C80                  XOR       A, #0x80           ;; 1 cycle
   \   0009C9 440180                CMPW      AX, #0x8001        ;; 1 cycle
   \   0009CC DC03                  BC        ??TestMyCode_156   ;; 4 cycles
   \   0009CE                       ; ------------------------------------- Block: 6 cycles
   \   0009CE E6                    ONEW      AX                 ;; 1 cycle
   \   0009CF                       ; ------------------------------------- Block: 1 cycles
   \                     ??TestMyCode_155:
   \   0009CF B818                  MOVW      [SP+0x18], AX      ;; 1 cycle
   \   0009D1                       ; ------------------------------------- Block: 1 cycles
   \                     ??TestMyCode_156:
   \   0009D1 17                    MOVW      AX, HL             ;; 1 cycle
   \   0009D2 317507                BF        A.7, ??TestMyCode_157  ;; 5 cycles
   \   0009D5                       ; ------------------------------------- Block: 6 cycles
   \   0009D5 7CFF                  XOR       A, #0xFF           ;; 1 cycle
   \   0009D7 08                    XCH       A, X               ;; 1 cycle
   \   0009D8 7CFF                  XOR       A, #0xFF           ;; 1 cycle
   \   0009DA 08                    XCH       A, X               ;; 1 cycle
   \   0009DB A1                    INCW      AX                 ;; 1 cycle
   \   0009DC                       ; ------------------------------------- Block: 5 cycles
   \                     ??TestMyCode_157:
   \   0009DC B800                  MOVW      [SP], AX           ;; 1 cycle
   \   0009DE 15                    MOVW      AX, DE             ;; 1 cycle
   \   0009DF 317507                BF        A.7, ??TestMyCode_158  ;; 5 cycles
   \   0009E2                       ; ------------------------------------- Block: 7 cycles
   \   0009E2 7CFF                  XOR       A, #0xFF           ;; 1 cycle
   \   0009E4 08                    XCH       A, X               ;; 1 cycle
   \   0009E5 7CFF                  XOR       A, #0xFF           ;; 1 cycle
   \   0009E7 08                    XCH       A, X               ;; 1 cycle
   \   0009E8 A1                    INCW      AX                 ;; 1 cycle
   \   0009E9                       ; ------------------------------------- Block: 5 cycles
   \                     ??TestMyCode_158:
   \   0009E9 B802                  MOVW      [SP+0x02], AX      ;; 1 cycle
   \   0009EB A800                  MOVW      AX, [SP]           ;; 1 cycle
   \   0009ED 12                    MOVW      BC, AX             ;; 1 cycle
   \   0009EE A802                  MOVW      AX, [SP+0x02]      ;; 1 cycle
   \   0009F0 FD....                CALL      N:?SI_CMP_L02      ;; 3 cycles
   \   0009F3 DC25                  BC        ??TestMyCode_159   ;; 4 cycles
   \   0009F5                       ; ------------------------------------- Block: 11 cycles
   \   0009F5 B800                  MOVW      [SP], AX           ;; 1 cycle
   \   0009F7 17                    MOVW      AX, HL             ;; 1 cycle
   \   0009F8 317507                BF        A.7, ??TestMyCode_160  ;; 5 cycles
   \   0009FB                       ; ------------------------------------- Block: 7 cycles
   \   0009FB 7CFF                  XOR       A, #0xFF           ;; 1 cycle
   \   0009FD 08                    XCH       A, X               ;; 1 cycle
   \   0009FE 7CFF                  XOR       A, #0xFF           ;; 1 cycle
   \   000A00 08                    XCH       A, X               ;; 1 cycle
   \   000A01 A1                    INCW      AX                 ;; 1 cycle
   \   000A02                       ; ------------------------------------- Block: 5 cycles
   \                     ??TestMyCode_160:
   \   000A02 B802                  MOVW      [SP+0x02], AX      ;; 1 cycle
   \   000A04 15                    MOVW      AX, DE             ;; 1 cycle
   \   000A05 317505                BF        A.7, ??TestMyCode_161  ;; 5 cycles
   \   000A08                       ; ------------------------------------- Block: 7 cycles
   \   000A08 30FFFF                MOVW      AX, #0xFFFF        ;; 1 cycle
   \   000A0B EF08                  BR        S:??TestMyCode_162  ;; 3 cycles
   \   000A0D                       ; ------------------------------------- Block: 4 cycles
   \                     ??TestMyCode_161:
   \   000A0D 7C80                  XOR       A, #0x80           ;; 1 cycle
   \   000A0F 440180                CMPW      AX, #0x8001        ;; 1 cycle
   \   000A12 DC03                  BC        ??TestMyCode_163   ;; 4 cycles
   \   000A14                       ; ------------------------------------- Block: 6 cycles
   \   000A14 E6                    ONEW      AX                 ;; 1 cycle
   \   000A15                       ; ------------------------------------- Block: 1 cycles
   \                     ??TestMyCode_162:
   \   000A15 B816                  MOVW      [SP+0x16], AX      ;; 1 cycle
   \   000A17                       ; ------------------------------------- Block: 1 cycles
   \                     ??TestMyCode_163:
   \   000A17 F6                    CLRW      AX                 ;; 1 cycle
   \   000A18 B812                  MOVW      [SP+0x12], AX      ;; 1 cycle
   \   000A1A                       ; ------------------------------------- Block: 2 cycles
   \                     ??TestMyCode_159:
   \   000A1A A800                  MOVW      AX, [SP]           ;; 1 cycle
   \   000A1C 311F                  SARW      AX, 0x1            ;; 1 cycle
   \   000A1E B80C                  MOVW      [SP+0x0C], AX      ;; 1 cycle
   \   000A20 F6                    CLRW      AX                 ;; 1 cycle
   \   000A21 B814                  MOVW      [SP+0x14], AX      ;; 1 cycle
   \   000A23 A800                  MOVW      AX, [SP]           ;; 1 cycle
   \   000A25 317351                BT        A.7, ??TestMyCode_164  ;; 5 cycles
   \   000A28                       ; ------------------------------------- Block: 11 cycles
   \                     ??LCDDrawDialNeedle_3:
   \   000A28 A80E                  MOVW      AX, [SP+0x0E]      ;; 1 cycle
   \   000A2A 60                    MOV       A, X               ;; 1 cycle
   \   000A2B 73                    MOV       B, A               ;; 1 cycle
   \   000A2C A810                  MOVW      AX, [SP+0x10]      ;; 1 cycle
   \   000A2E 340200                MOVW      DE, #0x2           ;; 1 cycle
   \   000A31 E2                    ONEB      C                  ;; 1 cycle
   \   000A32 60                    MOV       A, X               ;; 1 cycle
   \   000A33 FD....                CALL      FBG_SetPixel       ;; 3 cycles
   \   000A36 A802                  MOVW      AX, [SP+0x02]      ;; 1 cycle
   \   000A38 16                    MOVW      HL, AX             ;; 1 cycle
   \   000A39 A80C                  MOVW      AX, [SP+0x0C]      ;; 1 cycle
   \   000A3B 07                    ADDW      AX, HL             ;; 1 cycle
   \   000A3C B80C                  MOVW      [SP+0x0C], AX      ;; 1 cycle
   \   000A3E A800                  MOVW      AX, [SP]           ;; 1 cycle
   \   000A40 12                    MOVW      BC, AX             ;; 1 cycle
   \   000A41 A80C                  MOVW      AX, [SP+0x0C]      ;; 1 cycle
   \   000A43 FD....                CALL      N:?SI_CMP_L02      ;; 3 cycles
   \   000A46 DC14                  BC        ??TestMyCode_165   ;; 4 cycles
   \   000A48                       ; ------------------------------------- Block: 25 cycles
   \   000A48 A800                  MOVW      AX, [SP]           ;; 1 cycle
   \   000A4A 16                    MOVW      HL, AX             ;; 1 cycle
   \   000A4B A80C                  MOVW      AX, [SP+0x0C]      ;; 1 cycle
   \   000A4D 27                    SUBW      AX, HL             ;; 1 cycle
   \   000A4E B80C                  MOVW      [SP+0x0C], AX      ;; 1 cycle
   \   000A50 A81A                  MOVW      AX, [SP+0x1A]      ;; 1 cycle
   \   000A52 16                    MOVW      HL, AX             ;; 1 cycle
   \   000A53 A810                  MOVW      AX, [SP+0x10]      ;; 1 cycle
   \   000A55 07                    ADDW      AX, HL             ;; 1 cycle
   \   000A56 B810                  MOVW      [SP+0x10], AX      ;; 1 cycle
   \   000A58 A818                  MOVW      AX, [SP+0x18]      ;; 1 cycle
   \   000A5A EF0A                  BR        S:??TestMyCode_166  ;; 3 cycles
   \   000A5C                       ; ------------------------------------- Block: 14 cycles
   \                     ??TestMyCode_165:
   \   000A5C A812                  MOVW      AX, [SP+0x12]      ;; 1 cycle
   \   000A5E 16                    MOVW      HL, AX             ;; 1 cycle
   \   000A5F A810                  MOVW      AX, [SP+0x10]      ;; 1 cycle
   \   000A61 07                    ADDW      AX, HL             ;; 1 cycle
   \   000A62 B810                  MOVW      [SP+0x10], AX      ;; 1 cycle
   \   000A64 A816                  MOVW      AX, [SP+0x16]      ;; 1 cycle
   \   000A66                       ; ------------------------------------- Block: 6 cycles
   \                     ??TestMyCode_166:
   \   000A66 16                    MOVW      HL, AX             ;; 1 cycle
   \   000A67 A80E                  MOVW      AX, [SP+0x0E]      ;; 1 cycle
   \   000A69 07                    ADDW      AX, HL             ;; 1 cycle
   \   000A6A B80E                  MOVW      [SP+0x0E], AX      ;; 1 cycle
   \   000A6C A814                  MOVW      AX, [SP+0x14]      ;; 1 cycle
   \   000A6E A1                    INCW      AX                 ;; 1 cycle
   \   000A6F B814                  MOVW      [SP+0x14], AX      ;; 1 cycle
   \   000A71 12                    MOVW      BC, AX             ;; 1 cycle
   \   000A72 A800                  MOVW      AX, [SP]           ;; 1 cycle
   \   000A74 FD....                CALL      N:?SI_CMP_L02      ;; 3 cycles
   \   000A77 DEAF                  BNC       ??LCDDrawDialNeedle_3  ;; 4 cycles
   \   000A79                       ; ------------------------------------- Block: 16 cycles
    253          #ifdef FILLEDNEEDLE
    254          DrawNeedleFiller(p1,p2,p3,1);
   \                     ??TestMyCode_164:
   \   000A79 AEF8                  MOVW      AX, SP             ;; 1 cycle
   \   000A7B 040400                ADDW      AX, #0x4           ;; 1 cycle
   \   000A7E C1                    PUSH      AX                 ;; 1 cycle
   \   000A7F 16                    MOVW      HL, AX             ;; 1 cycle
   \   000A80 EBF8FF                MOVW      DE, SP             ;; 1 cycle
   \   000A83 320200                MOVW      BC, #0x2           ;; 1 cycle
   \   000A86 FD....                CALL      N:?MOVE_LONG_L06   ;; 3 cycles
   \   000A89 040200                ADDW      AX, #0x2           ;; 1 cycle
   \   000A8C A7                    INCW      HL                 ;; 1 cycle
   \   000A8D C1                    PUSH      AX                 ;; 1 cycle
   \   000A8E A7                    INCW      HL                 ;; 1 cycle
   \   000A8F EBF8FF                MOVW      DE, SP             ;; 1 cycle
   \   000A92 FD....                CALL      N:?MOVE_LONG_L06   ;; 3 cycles
   \   000A95 040400                ADDW      AX, #0x4           ;; 1 cycle
   \   000A98 C1                    PUSH      AX                 ;; 1 cycle
   \   000A99 16                    MOVW      HL, AX             ;; 1 cycle
   \   000A9A EBF8FF                MOVW      DE, SP             ;; 1 cycle
   \   000A9D FD....                CALL      N:?MOVE_LONG_L06   ;; 3 cycles
   \   000AA0 E1                    ONEB      A                  ;; 1 cycle
   \   000AA1 FD....                CALL      DrawNeedleFiller   ;; 3 cycles
    255          DrawNeedleFiller(p2,p3,p4,1);
   \   000AA4 AEF8                  MOVW      AX, SP             ;; 1 cycle
   \   000AA6 040800                ADDW      AX, #0x8           ;; 1 cycle
   \   000AA9 C1                    PUSH      AX                 ;; 1 cycle
   \   000AAA 16                    MOVW      HL, AX             ;; 1 cycle
   \   000AAB EBF8FF                MOVW      DE, SP             ;; 1 cycle
   \   000AAE FD....                CALL      N:?MOVE_LONG_L06   ;; 3 cycles
   \   000AB1 04FCFF                ADDW      AX, #0xFFFC        ;; 1 cycle
   \   000AB4 C1                    PUSH      AX                 ;; 1 cycle
   \   000AB5 16                    MOVW      HL, AX             ;; 1 cycle
   \   000AB6 EBF8FF                MOVW      DE, SP             ;; 1 cycle
   \   000AB9 FD....                CALL      N:?MOVE_LONG_L06   ;; 3 cycles
   \   000ABC 040200                ADDW      AX, #0x2           ;; 1 cycle
   \   000ABF A7                    INCW      HL                 ;; 1 cycle
   \   000AC0 C1                    PUSH      AX                 ;; 1 cycle
   \   000AC1 A7                    INCW      HL                 ;; 1 cycle
   \   000AC2 EBF8FF                MOVW      DE, SP             ;; 1 cycle
   \   000AC5 FD....                CALL      N:?MOVE_LONG_L06   ;; 3 cycles
   \   000AC8 E1                    ONEB      A                  ;; 1 cycle
   \   000AC9 FD....                CALL      DrawNeedleFiller   ;; 3 cycles
    256          #endif
    257          }
   \   000ACC 102C                  ADDW      SP, #0x2C          ;; 1 cycle
   \   000ACE C4                    POP       DE                 ;; 1 cycle
   \   000ACF D7                    RET                          ;; 6 cycles
   \   000AD0                       ; ------------------------------------- Block: 63 cycles
   \   000AD0                       ; ------------------------------------- Total: 2073 cycles
   \   000AD0                       REQUIRE ?CLRL78_V1_0_L00
    258          
    259          #ifdef FILLEDNEEDLE
    260          // Fill triangle denoted by p1,p2,p3 with color

   \                                 In  segment CODE, align 1, keep-with-next
    261          void DrawNeedleFiller(PointT p1, PointT p2, PointT p3, uint8_t color)
   \                     DrawNeedleFiller:
    262          {
   \   000000 C3                    PUSH      BC                 ;; 1 cycle
   \   000001 C5                    PUSH      DE                 ;; 1 cycle
   \   000002 2020                  SUBW      SP, #0x20          ;; 1 cycle
   \   000004 882D                  MOV       A, [SP+0x2D]       ;; 1 cycle
   \   000006 76                    MOV       L, A               ;; 1 cycle
   \   000007 C7                    PUSH      HL                 ;; 1 cycle
   \   000008 C4                    POP       DE                 ;; 1 cycle
   \   000009 5500                  MOV       D, #0x0            ;; 1 cycle
   \   00000B 882B                  MOV       A, [SP+0x2B]       ;; 1 cycle
   \   00000D 72                    MOV       C, A               ;; 1 cycle
   \   00000E 8829                  MOV       A, [SP+0x29]       ;; 1 cycle
   \   000010 70                    MOV       X, A               ;; 1 cycle
   \   000011 618A                  XCH       A, C               ;; 1 cycle
   \   000013 6148                  CMP       A, X               ;; 1 cycle
   \   000015 618A                  XCH       A, C               ;; 1 cycle
   \   000017 618E                  XCH       A, L               ;; 1 cycle
   \   000019 DC40                  BC        ??TestMyCode_167   ;; 4 cycles
   \   00001B                       ; ------------------------------------- Block: 20 cycles
   \   00001B                       ; * Stack frame (at entry) *
   \   00001B                       ; Param size: 6
   \   00001B                       ; Auto size: 32
    263            int x1,x2,x3,y1,y2,y3;
    264            int dx1,dx2,dx3;
    265            if(p1.Y <= p2.Y)
    266            {
    267              if(p1.Y <= p3.Y)
   \   00001B 6148                  CMP       A, X               ;; 1 cycle
   \   00001D 618E                  XCH       A, L               ;; 1 cycle
   \   00001F DC1C                  BC        ??TestMyCode_168   ;; 4 cycles
   \   000021                       ; ------------------------------------- Block: 6 cycles
    268              { y1 = p1.Y; x1 = p1.X;
   \   000021 F1                    CLRB      A                  ;; 1 cycle
   \   000022 B80A                  MOVW      [SP+0x0A], AX      ;; 1 cycle
   \   000024 8828                  MOV       A, [SP+0x28]       ;; 1 cycle
   \   000026 70                    MOV       X, A               ;; 1 cycle
   \   000027 F1                    CLRB      A                  ;; 1 cycle
   \   000028 B80C                  MOVW      [SP+0x0C], AX      ;; 1 cycle
    269                if(p2.Y <= p3.Y)
   \   00002A 66                    MOV       A, L               ;; 1 cycle
   \   00002B 614A                  CMP       A, C               ;; 1 cycle
   \   00002D F3                    CLRB      B                  ;; 1 cycle
   \   00002E 13                    MOVW      AX, BC             ;; 1 cycle
   \   00002F DC06                  BC        ??TestMyCode_169   ;; 4 cycles
   \   000031                       ; ------------------------------------- Block: 14 cycles
    270                {
    271                   y2 = p2.Y; x2 = p2.X;
   \   000031 B804                  MOVW      [SP+0x04], AX      ;; 1 cycle
   \   000033 882A                  MOV       A, [SP+0x2A]       ;; 1 cycle
   \   000035 EF40                  BR        S:??TestMyCode_170  ;; 3 cycles
   \   000037                       ; ------------------------------------- Block: 5 cycles
    272                   y3 = p3.Y; x3 = p3.X;}
    273                else
    274                {  y3 = p2.Y; x3 = p2.X;
   \                     ??TestMyCode_169:
   \   000037 B806                  MOVW      [SP+0x06], AX      ;; 1 cycle
   \   000039 882A                  MOV       A, [SP+0x2A]       ;; 1 cycle
   \   00003B EF4C                  BR        S:??TestMyCode_171  ;; 3 cycles
   \   00003D                       ; ------------------------------------- Block: 5 cycles
    275                   y2 = p3.Y; x2 = p3.X;}
    276              }
    277              else
    278              { y1 = p3.Y; x1 = p3.X;
   \                     ??TestMyCode_168:
   \   00003D 35                    XCHW      AX, DE             ;; 1 cycle
   \   00003E B80A                  MOVW      [SP+0x0A], AX      ;; 1 cycle
   \   000040 15                    MOVW      AX, DE             ;; 1 cycle
   \   000041 882C                  MOV       A, [SP+0x2C]       ;; 1 cycle
   \   000043 76                    MOV       L, A               ;; 1 cycle
   \   000044 5700                  MOV       H, #0x0            ;; 1 cycle
   \   000046 37                    XCHW      AX, HL             ;; 1 cycle
   \   000047 B80C                  MOVW      [SP+0x0C], AX      ;; 1 cycle
   \   000049 37                    XCHW      AX, HL             ;; 1 cycle
    279                y2 = p1.Y; x2 = p1.X;
   \   00004A F1                    CLRB      A                  ;; 1 cycle
   \   00004B B804                  MOVW      [SP+0x04], AX      ;; 1 cycle
   \   00004D 8828                  MOV       A, [SP+0x28]       ;; 1 cycle
   \   00004F 70                    MOV       X, A               ;; 1 cycle
   \   000050 F1                    CLRB      A                  ;; 1 cycle
    280                y3 = p2.Y; x3 = p2.X;}
   \   000051 F3                    CLRB      B                  ;; 1 cycle
   \   000052 B808                  MOVW      [SP+0x08], AX      ;; 1 cycle
   \   000054 13                    MOVW      AX, BC             ;; 1 cycle
   \   000055 B806                  MOVW      [SP+0x06], AX      ;; 1 cycle
   \   000057 882A                  MOV       A, [SP+0x2A]       ;; 1 cycle
   \   000059 EF5A                  BR        S:??TestMyCode_172  ;; 3 cycles
   \   00005B                       ; ------------------------------------- Block: 22 cycles
    281            }
    282            else
    283            {
    284              if(p2.Y <= p3.Y)
   \                     ??TestMyCode_167:
   \   00005B 614A                  CMP       A, C               ;; 1 cycle
   \   00005D 618E                  XCH       A, L               ;; 1 cycle
   \   00005F DC36                  BC        ??TestMyCode_173   ;; 4 cycles
   \   000061                       ; ------------------------------------- Block: 6 cycles
    285              { y1 = p2.Y; x1 = p2.X;
   \   000061 F3                    CLRB      B                  ;; 1 cycle
   \   000062 33                    XCHW      AX, BC             ;; 1 cycle
   \   000063 B80A                  MOVW      [SP+0x0A], AX      ;; 1 cycle
   \   000065 33                    XCHW      AX, BC             ;; 1 cycle
   \   000066 882A                  MOV       A, [SP+0x2A]       ;; 1 cycle
   \   000068 72                    MOV       C, A               ;; 1 cycle
   \   000069 33                    XCHW      AX, BC             ;; 1 cycle
   \   00006A B80C                  MOVW      [SP+0x0C], AX      ;; 1 cycle
   \   00006C 13                    MOVW      AX, BC             ;; 1 cycle
    286                if(p1.Y <= p3.Y)
   \   00006D 66                    MOV       A, L               ;; 1 cycle
   \   00006E 6148                  CMP       A, X               ;; 1 cycle
   \   000070 F1                    CLRB      A                  ;; 1 cycle
   \   000071 DC12                  BC        ??TestMyCode_174   ;; 4 cycles
   \   000073                       ; ------------------------------------- Block: 16 cycles
    287                {
    288                   y2 = p1.Y; x2 = p1.X;
   \   000073 B804                  MOVW      [SP+0x04], AX      ;; 1 cycle
   \   000075 8828                  MOV       A, [SP+0x28]       ;; 1 cycle
   \   000077                       ; ------------------------------------- Block: 2 cycles
   \                     ??TestMyCode_170:
   \   000077 70                    MOV       X, A               ;; 1 cycle
   \   000078 F1                    CLRB      A                  ;; 1 cycle
   \   000079 B808                  MOVW      [SP+0x08], AX      ;; 1 cycle
    289                   y3 = p3.Y; x3 = p3.X;}
   \   00007B 15                    MOVW      AX, DE             ;; 1 cycle
   \   00007C B806                  MOVW      [SP+0x06], AX      ;; 1 cycle
   \   00007E 882C                  MOV       A, [SP+0x2C]       ;; 1 cycle
   \   000080 76                    MOV       L, A               ;; 1 cycle
   \   000081 5700                  MOV       H, #0x0            ;; 1 cycle
   \   000083 EF31                  BR        S:??TestMyCode_175  ;; 3 cycles
   \   000085                       ; ------------------------------------- Block: 11 cycles
    290                else
    291                {  y3 = p1.Y; x3 = p1.X;
   \                     ??TestMyCode_174:
   \   000085 B806                  MOVW      [SP+0x06], AX      ;; 1 cycle
   \   000087 8828                  MOV       A, [SP+0x28]       ;; 1 cycle
   \   000089                       ; ------------------------------------- Block: 2 cycles
   \                     ??TestMyCode_171:
   \   000089 76                    MOV       L, A               ;; 1 cycle
    292                   y2 = p3.Y; x2 = p3.X;}
   \   00008A 15                    MOVW      AX, DE             ;; 1 cycle
   \   00008B B804                  MOVW      [SP+0x04], AX      ;; 1 cycle
   \   00008D 882C                  MOV       A, [SP+0x2C]       ;; 1 cycle
   \   00008F 70                    MOV       X, A               ;; 1 cycle
   \   000090 F1                    CLRB      A                  ;; 1 cycle
   \   000091 5700                  MOV       H, #0x0            ;; 1 cycle
   \   000093 B808                  MOVW      [SP+0x08], AX      ;; 1 cycle
   \   000095 EF1F                  BR        S:??TestMyCode_175  ;; 3 cycles
   \   000097                       ; ------------------------------------- Block: 11 cycles
    293              }
    294              else
    295              { y1 = p3.Y; x1 = p3.X;
   \                     ??TestMyCode_173:
   \   000097 35                    XCHW      AX, DE             ;; 1 cycle
   \   000098 B80A                  MOVW      [SP+0x0A], AX      ;; 1 cycle
   \   00009A 15                    MOVW      AX, DE             ;; 1 cycle
   \   00009B 882C                  MOV       A, [SP+0x2C]       ;; 1 cycle
   \   00009D 76                    MOV       L, A               ;; 1 cycle
   \   00009E 5700                  MOV       H, #0x0            ;; 1 cycle
   \   0000A0 37                    XCHW      AX, HL             ;; 1 cycle
   \   0000A1 B80C                  MOVW      [SP+0x0C], AX      ;; 1 cycle
   \   0000A3 37                    XCHW      AX, HL             ;; 1 cycle
    296                y2 = p2.Y; x2 = p2.X;
   \   0000A4 F3                    CLRB      B                  ;; 1 cycle
   \   0000A5 33                    XCHW      AX, BC             ;; 1 cycle
   \   0000A6 B804                  MOVW      [SP+0x04], AX      ;; 1 cycle
   \   0000A8 13                    MOVW      AX, BC             ;; 1 cycle
   \   0000A9 882A                  MOV       A, [SP+0x2A]       ;; 1 cycle
   \   0000AB 76                    MOV       L, A               ;; 1 cycle
   \   0000AC 37                    XCHW      AX, HL             ;; 1 cycle
   \   0000AD B808                  MOVW      [SP+0x08], AX      ;; 1 cycle
   \   0000AF 37                    XCHW      AX, HL             ;; 1 cycle
    297                y3 = p1.Y; x3 = p1.X;}
   \   0000B0 F1                    CLRB      A                  ;; 1 cycle
   \   0000B1 B806                  MOVW      [SP+0x06], AX      ;; 1 cycle
   \   0000B3 8828                  MOV       A, [SP+0x28]       ;; 1 cycle
   \   0000B5                       ; ------------------------------------- Block: 21 cycles
   \                     ??TestMyCode_172:
   \   0000B5 76                    MOV       L, A               ;; 1 cycle
   \   0000B6                       ; ------------------------------------- Block: 1 cycles
    298            }
    299          PointT e,s;
    300          e.X = x1;
   \                     ??TestMyCode_175:
   \   0000B6 A80C                  MOVW      AX, [SP+0x0C]      ;; 1 cycle
   \   0000B8 60                    MOV       A, X               ;; 1 cycle
   \   0000B9 9802                  MOV       [SP+0x02], A       ;; 1 cycle
    301          e.Y = y1;
   \   0000BB A80A                  MOVW      AX, [SP+0x0A]      ;; 1 cycle
   \   0000BD 60                    MOV       A, X               ;; 1 cycle
   \   0000BE 9803                  MOV       [SP+0x03], A       ;; 1 cycle
    302          s.X = x1;
   \   0000C0 A80C                  MOVW      AX, [SP+0x0C]      ;; 1 cycle
   \   0000C2 60                    MOV       A, X               ;; 1 cycle
   \   0000C3 9801                  MOV       [SP+0x01], A       ;; 1 cycle
    303          s.Y = y1;
   \   0000C5 A80A                  MOVW      AX, [SP+0x0A]      ;; 1 cycle
   \   0000C7 60                    MOV       A, X               ;; 1 cycle
   \   0000C8 9800                  MOV       [SP], A            ;; 1 cycle
    304           if (y2 - y1 > 0) dx1=(x2-x1)/(y2-y1); else dx1=0;
   \   0000CA A80A                  MOVW      AX, [SP+0x0A]      ;; 1 cycle
   \   0000CC 14                    MOVW      DE, AX             ;; 1 cycle
   \   0000CD A804                  MOVW      AX, [SP+0x04]      ;; 1 cycle
   \   0000CF 25                    SUBW      AX, DE             ;; 1 cycle
   \   0000D0 7C80                  XOR       A, #0x80           ;; 1 cycle
   \   0000D2 440180                CMPW      AX, #0x8001        ;; 1 cycle
   \   0000D5 DC0F                  BC        ??TestMyCode_176   ;; 4 cycles
   \   0000D7                       ; ------------------------------------- Block: 22 cycles
   \   0000D7 A804                  MOVW      AX, [SP+0x04]      ;; 1 cycle
   \   0000D9 25                    SUBW      AX, DE             ;; 1 cycle
   \   0000DA 12                    MOVW      BC, AX             ;; 1 cycle
   \   0000DB A80C                  MOVW      AX, [SP+0x0C]      ;; 1 cycle
   \   0000DD 14                    MOVW      DE, AX             ;; 1 cycle
   \   0000DE A808                  MOVW      AX, [SP+0x08]      ;; 1 cycle
   \   0000E0 25                    SUBW      AX, DE             ;; 1 cycle
   \   0000E1 FD....                CALL      N:?SI_DIV_L02      ;; 3 cycles
   \   0000E4 EF01                  BR        S:??TestMyCode_177  ;; 3 cycles
   \   0000E6                       ; ------------------------------------- Block: 13 cycles
   \                     ??TestMyCode_176:
   \   0000E6 F6                    CLRW      AX                 ;; 1 cycle
   \   0000E7                       ; ------------------------------------- Block: 1 cycles
   \                     ??TestMyCode_177:
   \   0000E7 B816                  MOVW      [SP+0x16], AX      ;; 1 cycle
    305           if (y3 - y1 > 0) dx2=(x3-x1)/(y3-y1); else dx2=0;
   \   0000E9 A80A                  MOVW      AX, [SP+0x0A]      ;; 1 cycle
   \   0000EB 14                    MOVW      DE, AX             ;; 1 cycle
   \   0000EC A806                  MOVW      AX, [SP+0x06]      ;; 1 cycle
   \   0000EE 25                    SUBW      AX, DE             ;; 1 cycle
   \   0000EF 7C80                  XOR       A, #0x80           ;; 1 cycle
   \   0000F1 440180                CMPW      AX, #0x8001        ;; 1 cycle
   \   0000F4 DC0E                  BC        ??TestMyCode_178   ;; 4 cycles
   \   0000F6                       ; ------------------------------------- Block: 11 cycles
   \   0000F6 A806                  MOVW      AX, [SP+0x06]      ;; 1 cycle
   \   0000F8 25                    SUBW      AX, DE             ;; 1 cycle
   \   0000F9 12                    MOVW      BC, AX             ;; 1 cycle
   \   0000FA A80C                  MOVW      AX, [SP+0x0C]      ;; 1 cycle
   \   0000FC 14                    MOVW      DE, AX             ;; 1 cycle
   \   0000FD 17                    MOVW      AX, HL             ;; 1 cycle
   \   0000FE 25                    SUBW      AX, DE             ;; 1 cycle
   \   0000FF FD....                CALL      N:?SI_DIV_L02      ;; 3 cycles
   \   000102 EF01                  BR        S:??TestMyCode_179  ;; 3 cycles
   \   000104                       ; ------------------------------------- Block: 13 cycles
   \                     ??TestMyCode_178:
   \   000104 F6                    CLRW      AX                 ;; 1 cycle
   \   000105                       ; ------------------------------------- Block: 1 cycles
   \                     ??TestMyCode_179:
   \   000105 B80E                  MOVW      [SP+0x0E], AX      ;; 1 cycle
    306           if (y3 - y2 > 0) dx3=(x3-x2)/(y3-y2); else dx3=0;
   \   000107 A804                  MOVW      AX, [SP+0x04]      ;; 1 cycle
   \   000109 14                    MOVW      DE, AX             ;; 1 cycle
   \   00010A A806                  MOVW      AX, [SP+0x06]      ;; 1 cycle
   \   00010C 25                    SUBW      AX, DE             ;; 1 cycle
   \   00010D 7C80                  XOR       A, #0x80           ;; 1 cycle
   \   00010F 440180                CMPW      AX, #0x8001        ;; 1 cycle
   \   000112 DC0E                  BC        ??TestMyCode_180   ;; 4 cycles
   \   000114                       ; ------------------------------------- Block: 11 cycles
   \   000114 A806                  MOVW      AX, [SP+0x06]      ;; 1 cycle
   \   000116 25                    SUBW      AX, DE             ;; 1 cycle
   \   000117 12                    MOVW      BC, AX             ;; 1 cycle
   \   000118 A808                  MOVW      AX, [SP+0x08]      ;; 1 cycle
   \   00011A 14                    MOVW      DE, AX             ;; 1 cycle
   \   00011B 17                    MOVW      AX, HL             ;; 1 cycle
   \   00011C 25                    SUBW      AX, DE             ;; 1 cycle
   \   00011D FD....                CALL      N:?SI_DIV_L02      ;; 3 cycles
   \   000120 EF01                  BR        S:??TestMyCode_181  ;; 3 cycles
   \   000122                       ; ------------------------------------- Block: 13 cycles
   \                     ??TestMyCode_180:
   \   000122 F6                    CLRW      AX                 ;; 1 cycle
   \   000123                       ; ------------------------------------- Block: 1 cycles
   \                     ??TestMyCode_181:
   \   000123 B81C                  MOVW      [SP+0x1C], AX      ;; 1 cycle
    307          
    308           if(dx1 > dx2) {
   \   000125 A816                  MOVW      AX, [SP+0x16]      ;; 1 cycle
   \   000127 12                    MOVW      BC, AX             ;; 1 cycle
   \   000128 A80E                  MOVW      AX, [SP+0x0E]      ;; 1 cycle
   \   00012A FD....                CALL      N:?SI_CMP_L02      ;; 3 cycles
   \   00012D 61C8                  SKC                          ;; 4 cycles
   \   00012F ED....                BR        N:??TestMyCode_182  ;; 4 cycles
   \   000132                       ; ------------------------------------- Block: 11 cycles
    309          		while(s.Y<=y2)
   \                     ??DrawNeedleFiller_0:
   \   000132 A804                  MOVW      AX, [SP+0x04]      ;; 1 cycle
   \   000134 8800                  MOV       A, [SP]            ;; 1 cycle
   \   000136 6140                  CMP       X, A               ;; 1 cycle
   \   000138 61D8                  SKNC                         ;; 4 cycles
   \   00013A ED....                BR        N:??TestMyCode_183  ;; 4 cycles
   \   00013D                       ; ------------------------------------- Block: 7 cycles
    310                          {       s.Y++;e.Y=s.Y;s.X+=dx2;e.X+=dx1;
   \   00013D 81                    INC       A                  ;; 1 cycle
   \   00013E 9800                  MOV       [SP], A            ;; 1 cycle
   \   000140 A80E                  MOVW      AX, [SP+0x0E]      ;; 1 cycle
   \   000142 8801                  MOV       A, [SP+0x01]       ;; 1 cycle
   \   000144 6108                  ADD       A, X               ;; 1 cycle
   \   000146 9801                  MOV       [SP+0x01], A       ;; 1 cycle
   \   000148 A816                  MOVW      AX, [SP+0x16]      ;; 1 cycle
   \   00014A 8802                  MOV       A, [SP+0x02]       ;; 1 cycle
   \   00014C 6108                  ADD       A, X               ;; 1 cycle
   \   00014E 9802                  MOV       [SP+0x02], A       ;; 1 cycle
    311          			 LCDDrawLine(&s,&e,1,2);
   \   000150 8801                  MOV       A, [SP+0x01]       ;; 1 cycle
   \   000152 76                    MOV       L, A               ;; 1 cycle
   \   000153 8802                  MOV       A, [SP+0x02]       ;; 1 cycle
   \   000155 5700                  MOV       H, #0x0            ;; 1 cycle
   \   000157 70                    MOV       X, A               ;; 1 cycle
   \   000158 F1                    CLRB      A                  ;; 1 cycle
   \   000159 27                    SUBW      AX, HL             ;; 1 cycle
   \   00015A 16                    MOVW      HL, AX             ;; 1 cycle
   \   00015B 8801                  MOV       A, [SP+0x01]       ;; 1 cycle
   \   00015D 70                    MOV       X, A               ;; 1 cycle
   \   00015E F1                    CLRB      A                  ;; 1 cycle
   \   00015F B810                  MOVW      [SP+0x10], AX      ;; 1 cycle
   \   000161 8800                  MOV       A, [SP]            ;; 1 cycle
   \   000163 70                    MOV       X, A               ;; 1 cycle
   \   000164 F1                    CLRB      A                  ;; 1 cycle
   \   000165 B81E                  MOVW      [SP+0x1E], AX      ;; 1 cycle
   \   000167 F6                    CLRW      AX                 ;; 1 cycle
   \   000168 B81A                  MOVW      [SP+0x1A], AX      ;; 1 cycle
   \   00016A B814                  MOVW      [SP+0x14], AX      ;; 1 cycle
   \   00016C 17                    MOVW      AX, HL             ;; 1 cycle
   \   00016D 317511                BF        A.7, ??TestMyCode_184  ;; 5 cycles
   \   000170                       ; ------------------------------------- Block: 35 cycles
   \   000170 30FFFF                MOVW      AX, #0xFFFF        ;; 1 cycle
   \   000173 B81A                  MOVW      [SP+0x1A], AX      ;; 1 cycle
   \   000175 B814                  MOVW      [SP+0x14], AX      ;; 1 cycle
   \   000177 17                    MOVW      AX, HL             ;; 1 cycle
   \   000178 7CFF                  XOR       A, #0xFF           ;; 1 cycle
   \   00017A 08                    XCH       A, X               ;; 1 cycle
   \   00017B 7CFF                  XOR       A, #0xFF           ;; 1 cycle
   \   00017D 08                    XCH       A, X               ;; 1 cycle
   \   00017E A1                    INCW      AX                 ;; 1 cycle
   \   00017F EF0D                  BR        S:??TestMyCode_185  ;; 3 cycles
   \   000181                       ; ------------------------------------- Block: 12 cycles
   \                     ??TestMyCode_184:
   \   000181 7C80                  XOR       A, #0x80           ;; 1 cycle
   \   000183 440180                CMPW      AX, #0x8001        ;; 1 cycle
   \   000186 DC05                  BC        ??TestMyCode_186   ;; 4 cycles
   \   000188                       ; ------------------------------------- Block: 6 cycles
   \   000188 E6                    ONEW      AX                 ;; 1 cycle
   \   000189 B81A                  MOVW      [SP+0x1A], AX      ;; 1 cycle
   \   00018B B814                  MOVW      [SP+0x14], AX      ;; 1 cycle
   \   00018D                       ; ------------------------------------- Block: 3 cycles
   \                     ??TestMyCode_186:
   \   00018D 17                    MOVW      AX, HL             ;; 1 cycle
   \   00018E                       ; ------------------------------------- Block: 1 cycles
   \                     ??TestMyCode_185:
   \   00018E B80A                  MOVW      [SP+0x0A], AX      ;; 1 cycle
   \   000190 F6                    CLRW      AX                 ;; 1 cycle
   \   000191 B818                  MOVW      [SP+0x18], AX      ;; 1 cycle
   \   000193 A80A                  MOVW      AX, [SP+0x0A]      ;; 1 cycle
   \   000195 7C80                  XOR       A, #0x80           ;; 1 cycle
   \   000197 440180                CMPW      AX, #0x8001        ;; 1 cycle
   \   00019A DE17                  BNC       ??TestMyCode_187   ;; 4 cycles
   \   00019C                       ; ------------------------------------- Block: 10 cycles
   \   00019C F6                    CLRW      AX                 ;; 1 cycle
   \   00019D B80A                  MOVW      [SP+0x0A], AX      ;; 1 cycle
   \   00019F 17                    MOVW      AX, HL             ;; 1 cycle
   \   0001A0 317507                BF        A.7, ??TestMyCode_188  ;; 5 cycles
   \   0001A3                       ; ------------------------------------- Block: 8 cycles
   \   0001A3 7CFF                  XOR       A, #0xFF           ;; 1 cycle
   \   0001A5 08                    XCH       A, X               ;; 1 cycle
   \   0001A6 7CFF                  XOR       A, #0xFF           ;; 1 cycle
   \   0001A8 08                    XCH       A, X               ;; 1 cycle
   \   0001A9 A1                    INCW      AX                 ;; 1 cycle
   \   0001AA                       ; ------------------------------------- Block: 5 cycles
   \                     ??TestMyCode_188:
   \   0001AA B818                  MOVW      [SP+0x18], AX      ;; 1 cycle
   \   0001AC F6                    CLRW      AX                 ;; 1 cycle
   \   0001AD B814                  MOVW      [SP+0x14], AX      ;; 1 cycle
   \   0001AF B80C                  MOVW      [SP+0x0C], AX      ;; 1 cycle
   \   0001B1 EF07                  BR        S:??TestMyCode_189  ;; 3 cycles
   \   0001B3                       ; ------------------------------------- Block: 7 cycles
   \                     ??TestMyCode_187:
   \   0001B3 A80A                  MOVW      AX, [SP+0x0A]      ;; 1 cycle
   \   0001B5 311F                  SARW      AX, 0x1            ;; 1 cycle
   \   0001B7 B80C                  MOVW      [SP+0x0C], AX      ;; 1 cycle
   \   0001B9 F6                    CLRW      AX                 ;; 1 cycle
   \   0001BA                       ; ------------------------------------- Block: 4 cycles
   \                     ??TestMyCode_189:
   \   0001BA B812                  MOVW      [SP+0x12], AX      ;; 1 cycle
   \   0001BC                       ; ------------------------------------- Block: 1 cycles
   \                     ??DrawNeedleFiller_1:
   \   0001BC A81E                  MOVW      AX, [SP+0x1E]      ;; 1 cycle
   \   0001BE 60                    MOV       A, X               ;; 1 cycle
   \   0001BF 73                    MOV       B, A               ;; 1 cycle
   \   0001C0 A810                  MOVW      AX, [SP+0x10]      ;; 1 cycle
   \   0001C2 340200                MOVW      DE, #0x2           ;; 1 cycle
   \   0001C5 E2                    ONEB      C                  ;; 1 cycle
   \   0001C6 60                    MOV       A, X               ;; 1 cycle
   \   0001C7 FD....                CALL      FBG_SetPixel       ;; 3 cycles
   \   0001CA A818                  MOVW      AX, [SP+0x18]      ;; 1 cycle
   \   0001CC 16                    MOVW      HL, AX             ;; 1 cycle
   \   0001CD A80C                  MOVW      AX, [SP+0x0C]      ;; 1 cycle
   \   0001CF 07                    ADDW      AX, HL             ;; 1 cycle
   \   0001D0 B80C                  MOVW      [SP+0x0C], AX      ;; 1 cycle
   \   0001D2 A80A                  MOVW      AX, [SP+0x0A]      ;; 1 cycle
   \   0001D4 12                    MOVW      BC, AX             ;; 1 cycle
   \   0001D5 A80C                  MOVW      AX, [SP+0x0C]      ;; 1 cycle
   \   0001D7 FD....                CALL      N:?SI_CMP_L02      ;; 3 cycles
   \   0001DA DC0C                  BC        ??TestMyCode_190   ;; 4 cycles
   \   0001DC                       ; ------------------------------------- Block: 25 cycles
   \   0001DC A80A                  MOVW      AX, [SP+0x0A]      ;; 1 cycle
   \   0001DE 16                    MOVW      HL, AX             ;; 1 cycle
   \   0001DF A80C                  MOVW      AX, [SP+0x0C]      ;; 1 cycle
   \   0001E1 27                    SUBW      AX, HL             ;; 1 cycle
   \   0001E2 B80C                  MOVW      [SP+0x0C], AX      ;; 1 cycle
   \   0001E4 A81A                  MOVW      AX, [SP+0x1A]      ;; 1 cycle
   \   0001E6 EF02                  BR        S:??TestMyCode_191  ;; 3 cycles
   \   0001E8                       ; ------------------------------------- Block: 9 cycles
   \                     ??TestMyCode_190:
   \   0001E8 A814                  MOVW      AX, [SP+0x14]      ;; 1 cycle
   \   0001EA                       ; ------------------------------------- Block: 1 cycles
   \                     ??TestMyCode_191:
   \   0001EA 16                    MOVW      HL, AX             ;; 1 cycle
   \   0001EB A810                  MOVW      AX, [SP+0x10]      ;; 1 cycle
   \   0001ED 07                    ADDW      AX, HL             ;; 1 cycle
   \   0001EE B810                  MOVW      [SP+0x10], AX      ;; 1 cycle
   \   0001F0 A812                  MOVW      AX, [SP+0x12]      ;; 1 cycle
   \   0001F2 A1                    INCW      AX                 ;; 1 cycle
   \   0001F3 B812                  MOVW      [SP+0x12], AX      ;; 1 cycle
   \   0001F5 12                    MOVW      BC, AX             ;; 1 cycle
   \   0001F6 A80A                  MOVW      AX, [SP+0x0A]      ;; 1 cycle
   \   0001F8 FD....                CALL      N:?SI_CMP_L02      ;; 3 cycles
   \   0001FB 61D8                  SKNC                         ;; 4 cycles
   \   0001FD ED....                BR        N:??DrawNeedleFiller_0  ;; 4 cycles
   \   000200                       ; ------------------------------------- Block: 16 cycles
   \   000200 EFBA                  BR        S:??DrawNeedleFiller_1  ;; 3 cycles
   \   000202                       ; ------------------------------------- Block: 3 cycles
    312                          }
    313          		e.X = x2; e.Y = y2;
   \                     ??TestMyCode_183:
   \   000202 A808                  MOVW      AX, [SP+0x08]      ;; 1 cycle
   \   000204 60                    MOV       A, X               ;; 1 cycle
   \   000205 9802                  MOV       [SP+0x02], A       ;; 1 cycle
   \   000207                       ; ------------------------------------- Block: 3 cycles
    314          		while(s.Y<=y3)
   \                     ??DrawNeedleFiller_2:
   \   000207 A806                  MOVW      AX, [SP+0x06]      ;; 1 cycle
   \   000209 8800                  MOV       A, [SP]            ;; 1 cycle
   \   00020B 6140                  CMP       X, A               ;; 1 cycle
   \   00020D 61D8                  SKNC                         ;; 4 cycles
   \   00020F ED....                BR        N:??TestMyCode_192  ;; 4 cycles
   \   000212                       ; ------------------------------------- Block: 7 cycles
    315                          {       s.Y++;e.Y=s.Y;s.X+=dx2;e.X+=dx3; 
   \   000212 81                    INC       A                  ;; 1 cycle
   \   000213 9800                  MOV       [SP], A            ;; 1 cycle
   \   000215 A80E                  MOVW      AX, [SP+0x0E]      ;; 1 cycle
   \   000217 8801                  MOV       A, [SP+0x01]       ;; 1 cycle
   \   000219 6108                  ADD       A, X               ;; 1 cycle
   \   00021B 9801                  MOV       [SP+0x01], A       ;; 1 cycle
   \   00021D A81C                  MOVW      AX, [SP+0x1C]      ;; 1 cycle
   \   00021F 8802                  MOV       A, [SP+0x02]       ;; 1 cycle
   \   000221 6108                  ADD       A, X               ;; 1 cycle
   \   000223 9802                  MOV       [SP+0x02], A       ;; 1 cycle
    316          			 LCDDrawLine(&s,&e,1,2);
   \   000225 8801                  MOV       A, [SP+0x01]       ;; 1 cycle
   \   000227 76                    MOV       L, A               ;; 1 cycle
   \   000228 8802                  MOV       A, [SP+0x02]       ;; 1 cycle
   \   00022A 5700                  MOV       H, #0x0            ;; 1 cycle
   \   00022C 70                    MOV       X, A               ;; 1 cycle
   \   00022D F1                    CLRB      A                  ;; 1 cycle
   \   00022E 27                    SUBW      AX, HL             ;; 1 cycle
   \   00022F 16                    MOVW      HL, AX             ;; 1 cycle
   \   000230 8801                  MOV       A, [SP+0x01]       ;; 1 cycle
   \   000232 70                    MOV       X, A               ;; 1 cycle
   \   000233 F1                    CLRB      A                  ;; 1 cycle
   \   000234 B80A                  MOVW      [SP+0x0A], AX      ;; 1 cycle
   \   000236 8800                  MOV       A, [SP]            ;; 1 cycle
   \   000238 70                    MOV       X, A               ;; 1 cycle
   \   000239 F1                    CLRB      A                  ;; 1 cycle
   \   00023A B816                  MOVW      [SP+0x16], AX      ;; 1 cycle
   \   00023C F6                    CLRW      AX                 ;; 1 cycle
   \   00023D B814                  MOVW      [SP+0x14], AX      ;; 1 cycle
   \   00023F B810                  MOVW      [SP+0x10], AX      ;; 1 cycle
   \   000241 17                    MOVW      AX, HL             ;; 1 cycle
   \   000242 317511                BF        A.7, ??TestMyCode_193  ;; 5 cycles
   \   000245                       ; ------------------------------------- Block: 35 cycles
   \   000245 30FFFF                MOVW      AX, #0xFFFF        ;; 1 cycle
   \   000248 B814                  MOVW      [SP+0x14], AX      ;; 1 cycle
   \   00024A B810                  MOVW      [SP+0x10], AX      ;; 1 cycle
   \   00024C 17                    MOVW      AX, HL             ;; 1 cycle
   \   00024D 7CFF                  XOR       A, #0xFF           ;; 1 cycle
   \   00024F 08                    XCH       A, X               ;; 1 cycle
   \   000250 7CFF                  XOR       A, #0xFF           ;; 1 cycle
   \   000252 08                    XCH       A, X               ;; 1 cycle
   \   000253 A1                    INCW      AX                 ;; 1 cycle
   \   000254 EF0D                  BR        S:??TestMyCode_194  ;; 3 cycles
   \   000256                       ; ------------------------------------- Block: 12 cycles
   \                     ??TestMyCode_193:
   \   000256 7C80                  XOR       A, #0x80           ;; 1 cycle
   \   000258 440180                CMPW      AX, #0x8001        ;; 1 cycle
   \   00025B DC05                  BC        ??TestMyCode_195   ;; 4 cycles
   \   00025D                       ; ------------------------------------- Block: 6 cycles
   \   00025D E6                    ONEW      AX                 ;; 1 cycle
   \   00025E B814                  MOVW      [SP+0x14], AX      ;; 1 cycle
   \   000260 B810                  MOVW      [SP+0x10], AX      ;; 1 cycle
   \   000262                       ; ------------------------------------- Block: 3 cycles
   \                     ??TestMyCode_195:
   \   000262 17                    MOVW      AX, HL             ;; 1 cycle
   \   000263                       ; ------------------------------------- Block: 1 cycles
   \                     ??TestMyCode_194:
   \   000263 B804                  MOVW      [SP+0x04], AX      ;; 1 cycle
   \   000265 F6                    CLRW      AX                 ;; 1 cycle
   \   000266 B812                  MOVW      [SP+0x12], AX      ;; 1 cycle
   \   000268 A804                  MOVW      AX, [SP+0x04]      ;; 1 cycle
   \   00026A 7C80                  XOR       A, #0x80           ;; 1 cycle
   \   00026C 440180                CMPW      AX, #0x8001        ;; 1 cycle
   \   00026F DE17                  BNC       ??TestMyCode_196   ;; 4 cycles
   \   000271                       ; ------------------------------------- Block: 10 cycles
   \   000271 F6                    CLRW      AX                 ;; 1 cycle
   \   000272 B804                  MOVW      [SP+0x04], AX      ;; 1 cycle
   \   000274 17                    MOVW      AX, HL             ;; 1 cycle
   \   000275 317507                BF        A.7, ??TestMyCode_197  ;; 5 cycles
   \   000278                       ; ------------------------------------- Block: 8 cycles
   \   000278 7CFF                  XOR       A, #0xFF           ;; 1 cycle
   \   00027A 08                    XCH       A, X               ;; 1 cycle
   \   00027B 7CFF                  XOR       A, #0xFF           ;; 1 cycle
   \   00027D 08                    XCH       A, X               ;; 1 cycle
   \   00027E A1                    INCW      AX                 ;; 1 cycle
   \   00027F                       ; ------------------------------------- Block: 5 cycles
   \                     ??TestMyCode_197:
   \   00027F B812                  MOVW      [SP+0x12], AX      ;; 1 cycle
   \   000281 F6                    CLRW      AX                 ;; 1 cycle
   \   000282 B810                  MOVW      [SP+0x10], AX      ;; 1 cycle
   \   000284 B808                  MOVW      [SP+0x08], AX      ;; 1 cycle
   \   000286 EF07                  BR        S:??TestMyCode_198  ;; 3 cycles
   \   000288                       ; ------------------------------------- Block: 7 cycles
   \                     ??TestMyCode_196:
   \   000288 A804                  MOVW      AX, [SP+0x04]      ;; 1 cycle
   \   00028A 311F                  SARW      AX, 0x1            ;; 1 cycle
   \   00028C B808                  MOVW      [SP+0x08], AX      ;; 1 cycle
   \   00028E F6                    CLRW      AX                 ;; 1 cycle
   \   00028F                       ; ------------------------------------- Block: 4 cycles
   \                     ??TestMyCode_198:
   \   00028F B80C                  MOVW      [SP+0x0C], AX      ;; 1 cycle
   \   000291                       ; ------------------------------------- Block: 1 cycles
   \                     ??DrawNeedleFiller_3:
   \   000291 A816                  MOVW      AX, [SP+0x16]      ;; 1 cycle
   \   000293 60                    MOV       A, X               ;; 1 cycle
   \   000294 73                    MOV       B, A               ;; 1 cycle
   \   000295 A80A                  MOVW      AX, [SP+0x0A]      ;; 1 cycle
   \   000297 340200                MOVW      DE, #0x2           ;; 1 cycle
   \   00029A E2                    ONEB      C                  ;; 1 cycle
   \   00029B 60                    MOV       A, X               ;; 1 cycle
   \   00029C FD....                CALL      FBG_SetPixel       ;; 3 cycles
   \   00029F A812                  MOVW      AX, [SP+0x12]      ;; 1 cycle
   \   0002A1 16                    MOVW      HL, AX             ;; 1 cycle
   \   0002A2 A808                  MOVW      AX, [SP+0x08]      ;; 1 cycle
   \   0002A4 07                    ADDW      AX, HL             ;; 1 cycle
   \   0002A5 B808                  MOVW      [SP+0x08], AX      ;; 1 cycle
   \   0002A7 A804                  MOVW      AX, [SP+0x04]      ;; 1 cycle
   \   0002A9 12                    MOVW      BC, AX             ;; 1 cycle
   \   0002AA A808                  MOVW      AX, [SP+0x08]      ;; 1 cycle
   \   0002AC FD....                CALL      N:?SI_CMP_L02      ;; 3 cycles
   \   0002AF DC0C                  BC        ??TestMyCode_199   ;; 4 cycles
   \   0002B1                       ; ------------------------------------- Block: 25 cycles
   \   0002B1 A804                  MOVW      AX, [SP+0x04]      ;; 1 cycle
   \   0002B3 16                    MOVW      HL, AX             ;; 1 cycle
   \   0002B4 A808                  MOVW      AX, [SP+0x08]      ;; 1 cycle
   \   0002B6 27                    SUBW      AX, HL             ;; 1 cycle
   \   0002B7 B808                  MOVW      [SP+0x08], AX      ;; 1 cycle
   \   0002B9 A814                  MOVW      AX, [SP+0x14]      ;; 1 cycle
   \   0002BB EF02                  BR        S:??TestMyCode_200  ;; 3 cycles
   \   0002BD                       ; ------------------------------------- Block: 9 cycles
   \                     ??TestMyCode_199:
   \   0002BD A810                  MOVW      AX, [SP+0x10]      ;; 1 cycle
   \   0002BF                       ; ------------------------------------- Block: 1 cycles
   \                     ??TestMyCode_200:
   \   0002BF 16                    MOVW      HL, AX             ;; 1 cycle
   \   0002C0 A80A                  MOVW      AX, [SP+0x0A]      ;; 1 cycle
   \   0002C2 07                    ADDW      AX, HL             ;; 1 cycle
   \   0002C3 B80A                  MOVW      [SP+0x0A], AX      ;; 1 cycle
   \   0002C5 A80C                  MOVW      AX, [SP+0x0C]      ;; 1 cycle
   \   0002C7 A1                    INCW      AX                 ;; 1 cycle
   \   0002C8 B80C                  MOVW      [SP+0x0C], AX      ;; 1 cycle
   \   0002CA 12                    MOVW      BC, AX             ;; 1 cycle
   \   0002CB A804                  MOVW      AX, [SP+0x04]      ;; 1 cycle
   \   0002CD FD....                CALL      N:?SI_CMP_L02      ;; 3 cycles
   \   0002D0 61D8                  SKNC                         ;; 4 cycles
   \   0002D2 ED....                BR        N:??DrawNeedleFiller_2  ;; 4 cycles
   \   0002D5                       ; ------------------------------------- Block: 16 cycles
   \   0002D5 EFBA                  BR        S:??DrawNeedleFiller_3  ;; 3 cycles
   \   0002D7                       ; ------------------------------------- Block: 3 cycles
    317                          }
    318          	} 
    319           else   {
    320          		while(e.Y<=y2)
    321                          {       s.Y++;e.Y=s.Y;s.X+=dx1;e.X+=dx2;
   \                     ??DrawNeedleFiller_4:
   \   0002D7 8800                  MOV       A, [SP]            ;; 1 cycle
   \   0002D9 81                    INC       A                  ;; 1 cycle
   \   0002DA 9800                  MOV       [SP], A            ;; 1 cycle
   \   0002DC 9803                  MOV       [SP+0x03], A       ;; 1 cycle
   \   0002DE A816                  MOVW      AX, [SP+0x16]      ;; 1 cycle
   \   0002E0 8801                  MOV       A, [SP+0x01]       ;; 1 cycle
   \   0002E2 6108                  ADD       A, X               ;; 1 cycle
   \   0002E4 9801                  MOV       [SP+0x01], A       ;; 1 cycle
   \   0002E6 A80E                  MOVW      AX, [SP+0x0E]      ;; 1 cycle
   \   0002E8 8802                  MOV       A, [SP+0x02]       ;; 1 cycle
   \   0002EA 6108                  ADD       A, X               ;; 1 cycle
   \   0002EC 9802                  MOV       [SP+0x02], A       ;; 1 cycle
    322          			 LCDDrawLine(&s,&e,1,2);
   \   0002EE 8801                  MOV       A, [SP+0x01]       ;; 1 cycle
   \   0002F0 76                    MOV       L, A               ;; 1 cycle
   \   0002F1 8802                  MOV       A, [SP+0x02]       ;; 1 cycle
   \   0002F3 5700                  MOV       H, #0x0            ;; 1 cycle
   \   0002F5 70                    MOV       X, A               ;; 1 cycle
   \   0002F6 F1                    CLRB      A                  ;; 1 cycle
   \   0002F7 27                    SUBW      AX, HL             ;; 1 cycle
   \   0002F8 16                    MOVW      HL, AX             ;; 1 cycle
   \   0002F9 8801                  MOV       A, [SP+0x01]       ;; 1 cycle
   \   0002FB 70                    MOV       X, A               ;; 1 cycle
   \   0002FC F1                    CLRB      A                  ;; 1 cycle
   \   0002FD B810                  MOVW      [SP+0x10], AX      ;; 1 cycle
   \   0002FF 8800                  MOV       A, [SP]            ;; 1 cycle
   \   000301 70                    MOV       X, A               ;; 1 cycle
   \   000302 F1                    CLRB      A                  ;; 1 cycle
   \   000303 B81E                  MOVW      [SP+0x1E], AX      ;; 1 cycle
   \   000305 F6                    CLRW      AX                 ;; 1 cycle
   \   000306 B81A                  MOVW      [SP+0x1A], AX      ;; 1 cycle
   \   000308 B814                  MOVW      [SP+0x14], AX      ;; 1 cycle
   \   00030A 17                    MOVW      AX, HL             ;; 1 cycle
   \   00030B 317511                BF        A.7, ??TestMyCode_201  ;; 5 cycles
   \   00030E                       ; ------------------------------------- Block: 37 cycles
   \   00030E 30FFFF                MOVW      AX, #0xFFFF        ;; 1 cycle
   \   000311 B81A                  MOVW      [SP+0x1A], AX      ;; 1 cycle
   \   000313 B814                  MOVW      [SP+0x14], AX      ;; 1 cycle
   \   000315 17                    MOVW      AX, HL             ;; 1 cycle
   \   000316 7CFF                  XOR       A, #0xFF           ;; 1 cycle
   \   000318 08                    XCH       A, X               ;; 1 cycle
   \   000319 7CFF                  XOR       A, #0xFF           ;; 1 cycle
   \   00031B 08                    XCH       A, X               ;; 1 cycle
   \   00031C A1                    INCW      AX                 ;; 1 cycle
   \   00031D EF0D                  BR        S:??TestMyCode_202  ;; 3 cycles
   \   00031F                       ; ------------------------------------- Block: 12 cycles
   \                     ??TestMyCode_201:
   \   00031F 7C80                  XOR       A, #0x80           ;; 1 cycle
   \   000321 440180                CMPW      AX, #0x8001        ;; 1 cycle
   \   000324 DC05                  BC        ??TestMyCode_203   ;; 4 cycles
   \   000326                       ; ------------------------------------- Block: 6 cycles
   \   000326 E6                    ONEW      AX                 ;; 1 cycle
   \   000327 B81A                  MOVW      [SP+0x1A], AX      ;; 1 cycle
   \   000329 B814                  MOVW      [SP+0x14], AX      ;; 1 cycle
   \   00032B                       ; ------------------------------------- Block: 3 cycles
   \                     ??TestMyCode_203:
   \   00032B 17                    MOVW      AX, HL             ;; 1 cycle
   \   00032C                       ; ------------------------------------- Block: 1 cycles
   \                     ??TestMyCode_202:
   \   00032C B80A                  MOVW      [SP+0x0A], AX      ;; 1 cycle
   \   00032E F6                    CLRW      AX                 ;; 1 cycle
   \   00032F B818                  MOVW      [SP+0x18], AX      ;; 1 cycle
   \   000331 A80A                  MOVW      AX, [SP+0x0A]      ;; 1 cycle
   \   000333 7C80                  XOR       A, #0x80           ;; 1 cycle
   \   000335 440180                CMPW      AX, #0x8001        ;; 1 cycle
   \   000338 DE17                  BNC       ??TestMyCode_204   ;; 4 cycles
   \   00033A                       ; ------------------------------------- Block: 10 cycles
   \   00033A F6                    CLRW      AX                 ;; 1 cycle
   \   00033B B80A                  MOVW      [SP+0x0A], AX      ;; 1 cycle
   \   00033D 17                    MOVW      AX, HL             ;; 1 cycle
   \   00033E 317507                BF        A.7, ??TestMyCode_205  ;; 5 cycles
   \   000341                       ; ------------------------------------- Block: 8 cycles
   \   000341 7CFF                  XOR       A, #0xFF           ;; 1 cycle
   \   000343 08                    XCH       A, X               ;; 1 cycle
   \   000344 7CFF                  XOR       A, #0xFF           ;; 1 cycle
   \   000346 08                    XCH       A, X               ;; 1 cycle
   \   000347 A1                    INCW      AX                 ;; 1 cycle
   \   000348                       ; ------------------------------------- Block: 5 cycles
   \                     ??TestMyCode_205:
   \   000348 B818                  MOVW      [SP+0x18], AX      ;; 1 cycle
   \   00034A F6                    CLRW      AX                 ;; 1 cycle
   \   00034B B814                  MOVW      [SP+0x14], AX      ;; 1 cycle
   \   00034D B80C                  MOVW      [SP+0x0C], AX      ;; 1 cycle
   \   00034F EF07                  BR        S:??TestMyCode_206  ;; 3 cycles
   \   000351                       ; ------------------------------------- Block: 7 cycles
   \                     ??TestMyCode_204:
   \   000351 A80A                  MOVW      AX, [SP+0x0A]      ;; 1 cycle
   \   000353 311F                  SARW      AX, 0x1            ;; 1 cycle
   \   000355 B80C                  MOVW      [SP+0x0C], AX      ;; 1 cycle
   \   000357 F6                    CLRW      AX                 ;; 1 cycle
   \   000358                       ; ------------------------------------- Block: 4 cycles
   \                     ??TestMyCode_206:
   \   000358 B812                  MOVW      [SP+0x12], AX      ;; 1 cycle
   \   00035A                       ; ------------------------------------- Block: 1 cycles
   \                     ??DrawNeedleFiller_5:
   \   00035A A81E                  MOVW      AX, [SP+0x1E]      ;; 1 cycle
   \   00035C 60                    MOV       A, X               ;; 1 cycle
   \   00035D 73                    MOV       B, A               ;; 1 cycle
   \   00035E A810                  MOVW      AX, [SP+0x10]      ;; 1 cycle
   \   000360 340200                MOVW      DE, #0x2           ;; 1 cycle
   \   000363 E2                    ONEB      C                  ;; 1 cycle
   \   000364 60                    MOV       A, X               ;; 1 cycle
   \   000365 FD....                CALL      FBG_SetPixel       ;; 3 cycles
   \   000368 A818                  MOVW      AX, [SP+0x18]      ;; 1 cycle
   \   00036A 16                    MOVW      HL, AX             ;; 1 cycle
   \   00036B A80C                  MOVW      AX, [SP+0x0C]      ;; 1 cycle
   \   00036D 07                    ADDW      AX, HL             ;; 1 cycle
   \   00036E B80C                  MOVW      [SP+0x0C], AX      ;; 1 cycle
   \   000370 A80A                  MOVW      AX, [SP+0x0A]      ;; 1 cycle
   \   000372 12                    MOVW      BC, AX             ;; 1 cycle
   \   000373 A80C                  MOVW      AX, [SP+0x0C]      ;; 1 cycle
   \   000375 FD....                CALL      N:?SI_CMP_L02      ;; 3 cycles
   \   000378 DC0C                  BC        ??TestMyCode_207   ;; 4 cycles
   \   00037A                       ; ------------------------------------- Block: 25 cycles
   \   00037A A80A                  MOVW      AX, [SP+0x0A]      ;; 1 cycle
   \   00037C 16                    MOVW      HL, AX             ;; 1 cycle
   \   00037D A80C                  MOVW      AX, [SP+0x0C]      ;; 1 cycle
   \   00037F 27                    SUBW      AX, HL             ;; 1 cycle
   \   000380 B80C                  MOVW      [SP+0x0C], AX      ;; 1 cycle
   \   000382 A81A                  MOVW      AX, [SP+0x1A]      ;; 1 cycle
   \   000384 EF02                  BR        S:??TestMyCode_208  ;; 3 cycles
   \   000386                       ; ------------------------------------- Block: 9 cycles
   \                     ??TestMyCode_207:
   \   000386 A814                  MOVW      AX, [SP+0x14]      ;; 1 cycle
   \   000388                       ; ------------------------------------- Block: 1 cycles
   \                     ??TestMyCode_208:
   \   000388 16                    MOVW      HL, AX             ;; 1 cycle
   \   000389 A810                  MOVW      AX, [SP+0x10]      ;; 1 cycle
   \   00038B 07                    ADDW      AX, HL             ;; 1 cycle
   \   00038C B810                  MOVW      [SP+0x10], AX      ;; 1 cycle
   \   00038E A812                  MOVW      AX, [SP+0x12]      ;; 1 cycle
   \   000390 A1                    INCW      AX                 ;; 1 cycle
   \   000391 B812                  MOVW      [SP+0x12], AX      ;; 1 cycle
   \   000393 12                    MOVW      BC, AX             ;; 1 cycle
   \   000394 A80A                  MOVW      AX, [SP+0x0A]      ;; 1 cycle
   \   000396 FD....                CALL      N:?SI_CMP_L02      ;; 3 cycles
   \   000399 DEBF                  BNC       ??DrawNeedleFiller_5  ;; 4 cycles
   \   00039B                       ; ------------------------------------- Block: 16 cycles
    323                          }
   \                     ??TestMyCode_182:
   \   00039B A804                  MOVW      AX, [SP+0x04]      ;; 1 cycle
   \   00039D 8803                  MOV       A, [SP+0x03]       ;; 1 cycle
   \   00039F 6140                  CMP       X, A               ;; 1 cycle
   \   0003A1 61C8                  SKC                          ;; 4 cycles
   \   0003A3 ED....                BR        N:??DrawNeedleFiller_4  ;; 4 cycles
   \   0003A6                       ; ------------------------------------- Block: 7 cycles
    324          		s.X = x2; s.Y = y2;
   \   0003A6 A808                  MOVW      AX, [SP+0x08]      ;; 1 cycle
   \   0003A8 60                    MOV       A, X               ;; 1 cycle
   \   0003A9 9801                  MOV       [SP+0x01], A       ;; 1 cycle
   \   0003AB A804                  MOVW      AX, [SP+0x04]      ;; 1 cycle
   \   0003AD 60                    MOV       A, X               ;; 1 cycle
   \   0003AE 9800                  MOV       [SP], A            ;; 1 cycle
   \   0003B0                       ; ------------------------------------- Block: 6 cycles
    325          		while(e.Y<=y3)
   \                     ??DrawNeedleFiller_6:
   \   0003B0 A806                  MOVW      AX, [SP+0x06]      ;; 1 cycle
   \   0003B2 8803                  MOV       A, [SP+0x03]       ;; 1 cycle
   \   0003B4 6140                  CMP       X, A               ;; 1 cycle
   \   0003B6 61D8                  SKNC                         ;; 4 cycles
   \   0003B8 ED....                BR        N:??TestMyCode_192  ;; 4 cycles
   \   0003BB                       ; ------------------------------------- Block: 7 cycles
    326                          {       s.Y++;e.Y=s.Y;s.X+=dx3;e.X+=dx2;
   \   0003BB 8800                  MOV       A, [SP]            ;; 1 cycle
   \   0003BD 81                    INC       A                  ;; 1 cycle
   \   0003BE 9800                  MOV       [SP], A            ;; 1 cycle
   \   0003C0 9803                  MOV       [SP+0x03], A       ;; 1 cycle
   \   0003C2 A81C                  MOVW      AX, [SP+0x1C]      ;; 1 cycle
   \   0003C4 8801                  MOV       A, [SP+0x01]       ;; 1 cycle
   \   0003C6 6108                  ADD       A, X               ;; 1 cycle
   \   0003C8 9801                  MOV       [SP+0x01], A       ;; 1 cycle
   \   0003CA A80E                  MOVW      AX, [SP+0x0E]      ;; 1 cycle
   \   0003CC 8802                  MOV       A, [SP+0x02]       ;; 1 cycle
   \   0003CE 6108                  ADD       A, X               ;; 1 cycle
   \   0003D0 9802                  MOV       [SP+0x02], A       ;; 1 cycle
    327          			 LCDDrawLine(&s,&e,1,2);
   \   0003D2 8801                  MOV       A, [SP+0x01]       ;; 1 cycle
   \   0003D4 76                    MOV       L, A               ;; 1 cycle
   \   0003D5 8802                  MOV       A, [SP+0x02]       ;; 1 cycle
   \   0003D7 5700                  MOV       H, #0x0            ;; 1 cycle
   \   0003D9 70                    MOV       X, A               ;; 1 cycle
   \   0003DA F1                    CLRB      A                  ;; 1 cycle
   \   0003DB 27                    SUBW      AX, HL             ;; 1 cycle
   \   0003DC 16                    MOVW      HL, AX             ;; 1 cycle
   \   0003DD 8801                  MOV       A, [SP+0x01]       ;; 1 cycle
   \   0003DF 70                    MOV       X, A               ;; 1 cycle
   \   0003E0 F1                    CLRB      A                  ;; 1 cycle
   \   0003E1 B80A                  MOVW      [SP+0x0A], AX      ;; 1 cycle
   \   0003E3 8800                  MOV       A, [SP]            ;; 1 cycle
   \   0003E5 70                    MOV       X, A               ;; 1 cycle
   \   0003E6 F1                    CLRB      A                  ;; 1 cycle
   \   0003E7 B816                  MOVW      [SP+0x16], AX      ;; 1 cycle
   \   0003E9 F6                    CLRW      AX                 ;; 1 cycle
   \   0003EA B814                  MOVW      [SP+0x14], AX      ;; 1 cycle
   \   0003EC B810                  MOVW      [SP+0x10], AX      ;; 1 cycle
   \   0003EE 17                    MOVW      AX, HL             ;; 1 cycle
   \   0003EF 317511                BF        A.7, ??TestMyCode_209  ;; 5 cycles
   \   0003F2                       ; ------------------------------------- Block: 37 cycles
   \   0003F2 30FFFF                MOVW      AX, #0xFFFF        ;; 1 cycle
   \   0003F5 B814                  MOVW      [SP+0x14], AX      ;; 1 cycle
   \   0003F7 B810                  MOVW      [SP+0x10], AX      ;; 1 cycle
   \   0003F9 17                    MOVW      AX, HL             ;; 1 cycle
   \   0003FA 7CFF                  XOR       A, #0xFF           ;; 1 cycle
   \   0003FC 08                    XCH       A, X               ;; 1 cycle
   \   0003FD 7CFF                  XOR       A, #0xFF           ;; 1 cycle
   \   0003FF 08                    XCH       A, X               ;; 1 cycle
   \   000400 A1                    INCW      AX                 ;; 1 cycle
   \   000401 EF0D                  BR        S:??TestMyCode_210  ;; 3 cycles
   \   000403                       ; ------------------------------------- Block: 12 cycles
   \                     ??TestMyCode_209:
   \   000403 7C80                  XOR       A, #0x80           ;; 1 cycle
   \   000405 440180                CMPW      AX, #0x8001        ;; 1 cycle
   \   000408 DC05                  BC        ??TestMyCode_211   ;; 4 cycles
   \   00040A                       ; ------------------------------------- Block: 6 cycles
   \   00040A E6                    ONEW      AX                 ;; 1 cycle
   \   00040B B814                  MOVW      [SP+0x14], AX      ;; 1 cycle
   \   00040D B810                  MOVW      [SP+0x10], AX      ;; 1 cycle
   \   00040F                       ; ------------------------------------- Block: 3 cycles
   \                     ??TestMyCode_211:
   \   00040F 17                    MOVW      AX, HL             ;; 1 cycle
   \   000410                       ; ------------------------------------- Block: 1 cycles
   \                     ??TestMyCode_210:
   \   000410 B804                  MOVW      [SP+0x04], AX      ;; 1 cycle
   \   000412 F6                    CLRW      AX                 ;; 1 cycle
   \   000413 B812                  MOVW      [SP+0x12], AX      ;; 1 cycle
   \   000415 A804                  MOVW      AX, [SP+0x04]      ;; 1 cycle
   \   000417 7C80                  XOR       A, #0x80           ;; 1 cycle
   \   000419 440180                CMPW      AX, #0x8001        ;; 1 cycle
   \   00041C DE17                  BNC       ??TestMyCode_212   ;; 4 cycles
   \   00041E                       ; ------------------------------------- Block: 10 cycles
   \   00041E F6                    CLRW      AX                 ;; 1 cycle
   \   00041F B804                  MOVW      [SP+0x04], AX      ;; 1 cycle
   \   000421 17                    MOVW      AX, HL             ;; 1 cycle
   \   000422 317507                BF        A.7, ??TestMyCode_213  ;; 5 cycles
   \   000425                       ; ------------------------------------- Block: 8 cycles
   \   000425 7CFF                  XOR       A, #0xFF           ;; 1 cycle
   \   000427 08                    XCH       A, X               ;; 1 cycle
   \   000428 7CFF                  XOR       A, #0xFF           ;; 1 cycle
   \   00042A 08                    XCH       A, X               ;; 1 cycle
   \   00042B A1                    INCW      AX                 ;; 1 cycle
   \   00042C                       ; ------------------------------------- Block: 5 cycles
   \                     ??TestMyCode_213:
   \   00042C B812                  MOVW      [SP+0x12], AX      ;; 1 cycle
   \   00042E F6                    CLRW      AX                 ;; 1 cycle
   \   00042F B810                  MOVW      [SP+0x10], AX      ;; 1 cycle
   \   000431 B808                  MOVW      [SP+0x08], AX      ;; 1 cycle
   \   000433 EF07                  BR        S:??TestMyCode_214  ;; 3 cycles
   \   000435                       ; ------------------------------------- Block: 7 cycles
   \                     ??TestMyCode_212:
   \   000435 A804                  MOVW      AX, [SP+0x04]      ;; 1 cycle
   \   000437 311F                  SARW      AX, 0x1            ;; 1 cycle
   \   000439 B808                  MOVW      [SP+0x08], AX      ;; 1 cycle
   \   00043B F6                    CLRW      AX                 ;; 1 cycle
   \   00043C                       ; ------------------------------------- Block: 4 cycles
   \                     ??TestMyCode_214:
   \   00043C B80C                  MOVW      [SP+0x0C], AX      ;; 1 cycle
   \   00043E                       ; ------------------------------------- Block: 1 cycles
   \                     ??DrawNeedleFiller_7:
   \   00043E A816                  MOVW      AX, [SP+0x16]      ;; 1 cycle
   \   000440 60                    MOV       A, X               ;; 1 cycle
   \   000441 73                    MOV       B, A               ;; 1 cycle
   \   000442 A80A                  MOVW      AX, [SP+0x0A]      ;; 1 cycle
   \   000444 340200                MOVW      DE, #0x2           ;; 1 cycle
   \   000447 E2                    ONEB      C                  ;; 1 cycle
   \   000448 60                    MOV       A, X               ;; 1 cycle
   \   000449 FD....                CALL      FBG_SetPixel       ;; 3 cycles
   \   00044C A812                  MOVW      AX, [SP+0x12]      ;; 1 cycle
   \   00044E 16                    MOVW      HL, AX             ;; 1 cycle
   \   00044F A808                  MOVW      AX, [SP+0x08]      ;; 1 cycle
   \   000451 07                    ADDW      AX, HL             ;; 1 cycle
   \   000452 B808                  MOVW      [SP+0x08], AX      ;; 1 cycle
   \   000454 A804                  MOVW      AX, [SP+0x04]      ;; 1 cycle
   \   000456 12                    MOVW      BC, AX             ;; 1 cycle
   \   000457 A808                  MOVW      AX, [SP+0x08]      ;; 1 cycle
   \   000459 FD....                CALL      N:?SI_CMP_L02      ;; 3 cycles
   \   00045C DC0C                  BC        ??TestMyCode_215   ;; 4 cycles
   \   00045E                       ; ------------------------------------- Block: 25 cycles
   \   00045E A804                  MOVW      AX, [SP+0x04]      ;; 1 cycle
   \   000460 16                    MOVW      HL, AX             ;; 1 cycle
   \   000461 A808                  MOVW      AX, [SP+0x08]      ;; 1 cycle
   \   000463 27                    SUBW      AX, HL             ;; 1 cycle
   \   000464 B808                  MOVW      [SP+0x08], AX      ;; 1 cycle
   \   000466 A814                  MOVW      AX, [SP+0x14]      ;; 1 cycle
   \   000468 EF02                  BR        S:??TestMyCode_216  ;; 3 cycles
   \   00046A                       ; ------------------------------------- Block: 9 cycles
   \                     ??TestMyCode_215:
   \   00046A A810                  MOVW      AX, [SP+0x10]      ;; 1 cycle
   \   00046C                       ; ------------------------------------- Block: 1 cycles
   \                     ??TestMyCode_216:
   \   00046C 16                    MOVW      HL, AX             ;; 1 cycle
   \   00046D A80A                  MOVW      AX, [SP+0x0A]      ;; 1 cycle
   \   00046F 07                    ADDW      AX, HL             ;; 1 cycle
   \   000470 B80A                  MOVW      [SP+0x0A], AX      ;; 1 cycle
   \   000472 A80C                  MOVW      AX, [SP+0x0C]      ;; 1 cycle
   \   000474 A1                    INCW      AX                 ;; 1 cycle
   \   000475 B80C                  MOVW      [SP+0x0C], AX      ;; 1 cycle
   \   000477 12                    MOVW      BC, AX             ;; 1 cycle
   \   000478 A804                  MOVW      AX, [SP+0x04]      ;; 1 cycle
   \   00047A FD....                CALL      N:?SI_CMP_L02      ;; 3 cycles
   \   00047D 61D8                  SKNC                         ;; 4 cycles
   \   00047F ED....                BR        N:??DrawNeedleFiller_6  ;; 4 cycles
   \   000482                       ; ------------------------------------- Block: 16 cycles
   \   000482 EFBA                  BR        S:??DrawNeedleFiller_7  ;; 3 cycles
   \   000484                       ; ------------------------------------- Block: 3 cycles
    328                          }
    329          	}
    330          }
   \                     ??TestMyCode_192:
   \   000484 1020                  ADDW      SP, #0x20          ;; 1 cycle
   \   000486 C4                    POP       DE                 ;; 1 cycle
   \   000487 C2                    POP       BC                 ;; 1 cycle
   \   000488 FD....                CALL      N:?FUNC_LEAVE_L06
   \   00048B 0600                  DW        0x6                ;; 3 cycles
   \   00048D                       ; ------------------------------------- Block: 6 cycles
   \   00048D                       ; ------------------------------------- Total: 867 cycles
   \   00048D                       REQUIRE ?CLRL78_V1_0_L00
    331          
    332          #endif
    333          

   \                                 In  segment CODE, align 1, keep-with-next
    334          void TestMyCode()  // Test Code for Dial
   \                     TestMyCode:
    335          {
   \   000000 C3                    PUSH      BC                 ;; 1 cycle
   \   000001 C5                    PUSH      DE                 ;; 1 cycle
   \   000002 2032                  SUBW      SP, #0x32          ;; 1 cycle
    336          FBG_InitFB  ();
   \   000004                       ; * Stack frame (at entry) *
   \   000004                       ; Param size: 0
   \   000004                       ; Auto size: 50
   \   000004 FD....                CALL      FBG_InitFB         ;; 3 cycles
    337          LCDDrawDialBackground(); 
   \   000007 FD....                CALL      LCDDrawDialBackground  ;; 3 cycles
    338          FBG_RefreshLCD_BG();
   \   00000A FD....                CALL      FBG_RefreshLCD_BG  ;; 3 cycles
    339          for(float i = 0; i<10.0;i=i+0.1)
   \   00000D F6                    CLRW      AX                 ;; 1 cycle
   \   00000E B81E                  MOVW      [SP+0x1E], AX      ;; 1 cycle
   \   000010 B820                  MOVW      [SP+0x20], AX      ;; 1 cycle
   \   000012                       ; ------------------------------------- Block: 15 cycles
    340            {    
    341              LCDDrawDialNeedle(i);
   \                     ??TestMyCode_217:
   \   000012 303443                MOVW      AX, #0x4334        ;; 1 cycle
   \   000015 C1                    PUSH      AX                 ;; 1 cycle
   \   000016 F6                    CLRW      AX                 ;; 1 cycle
   \   000017 C1                    PUSH      AX                 ;; 1 cycle
   \   000018 309041                MOVW      AX, #0x4190        ;; 1 cycle
   \   00001B C1                    PUSH      AX                 ;; 1 cycle
   \   00001C F6                    CLRW      AX                 ;; 1 cycle
   \   00001D C1                    PUSH      AX                 ;; 1 cycle
   \   00001E A828                  MOVW      AX, [SP+0x28]      ;; 1 cycle
   \   000020 12                    MOVW      BC, AX             ;; 1 cycle
   \   000021 A826                  MOVW      AX, [SP+0x26]      ;; 1 cycle
   \   000023 FD....                CALL      N:?F_MUL           ;; 3 cycles
   \   000026 1004                  ADDW      SP, #0x4           ;; 1 cycle
   \   000028 FD....                CALL      N:?F_ADD           ;; 3 cycles
   \   00002B 1004                  ADDW      SP, #0x4           ;; 1 cycle
   \   00002D 16                    MOVW      HL, AX             ;; 1 cycle
   \   00002E B80C                  MOVW      [SP+0x0C], AX      ;; 1 cycle
   \   000030 13                    MOVW      AX, BC             ;; 1 cycle
   \   000031 B80E                  MOVW      [SP+0x0E], AX      ;; 1 cycle
   \   000033 30C93F                MOVW      AX, #0x3FC9        ;; 1 cycle
   \   000036 C1                    PUSH      AX                 ;; 1 cycle
   \   000037 30DB0F                MOVW      AX, #0xFDB         ;; 1 cycle
   \   00003A C1                    PUSH      AX                 ;; 1 cycle
   \   00003B 308E3C                MOVW      AX, #0x3C8E        ;; 1 cycle
   \   00003E C1                    PUSH      AX                 ;; 1 cycle
   \   00003F 3035FA                MOVW      AX, #0xFA35        ;; 1 cycle
   \   000042 C1                    PUSH      AX                 ;; 1 cycle
   \   000043 17                    MOVW      AX, HL             ;; 1 cycle
   \   000044 FD....                CALL      N:?F_MUL           ;; 3 cycles
   \   000047 1004                  ADDW      SP, #0x4           ;; 1 cycle
   \   000049 FD....                CALL      N:?F_ADD           ;; 3 cycles
   \   00004C 1004                  ADDW      SP, #0x4           ;; 1 cycle
   \   00004E 364940                MOVW      HL, #0x4049        ;; 1 cycle
   \   000051 C7                    PUSH      HL                 ;; 1 cycle
   \   000052 36DC0F                MOVW      HL, #0xFDC         ;; 1 cycle
   \   000055 C7                    PUSH      HL                 ;; 1 cycle
   \   000056 FD....                CALL      N:?FCMP_GE         ;; 3 cycles
   \   000059 1004                  ADDW      SP, #0x4           ;; 1 cycle
   \   00005B DC0D                  BC        ??TestMyCode_218   ;; 4 cycles
   \   00005D                       ; ------------------------------------- Block: 52 cycles
   \   00005D 36C9C0                MOVW      HL, #0xC0C9        ;; 1 cycle
   \   000060 C7                    PUSH      HL                 ;; 1 cycle
   \   000061 36DB0F                MOVW      HL, #0xFDB         ;; 1 cycle
   \   000064 C7                    PUSH      HL                 ;; 1 cycle
   \   000065 FD....                CALL      N:?F_ADD           ;; 3 cycles
   \   000068 1004                  ADDW      SP, #0x4           ;; 1 cycle
   \   00006A                       ; ------------------------------------- Block: 8 cycles
   \                     ??TestMyCode_218:
   \   00006A 360000                MOVW      HL, #0x0           ;; 1 cycle
   \   00006D C7                    PUSH      HL                 ;; 1 cycle
   \   00006E C7                    PUSH      HL                 ;; 1 cycle
   \   00006F FD....                CALL      N:?FCMP_LT         ;; 3 cycles
   \   000072 1004                  ADDW      SP, #0x4           ;; 1 cycle
   \   000074 DE1C                  BNC       ??TestMyCode_219   ;; 4 cycles
   \   000076                       ; ------------------------------------- Block: 11 cycles
   \   000076 C3                    PUSH      BC                 ;; 1 cycle
   \   000077 C1                    PUSH      AX                 ;; 1 cycle
   \   000078 36A23F                MOVW      HL, #0x3FA2        ;; 1 cycle
   \   00007B C7                    PUSH      HL                 ;; 1 cycle
   \   00007C 3683F9                MOVW      HL, #0xF983        ;; 1 cycle
   \   00007F C7                    PUSH      HL                 ;; 1 cycle
   \   000080 36CF3E                MOVW      HL, #0x3ECF        ;; 1 cycle
   \   000083 C7                    PUSH      HL                 ;; 1 cycle
   \   000084 367B81                MOVW      HL, #0x817B        ;; 1 cycle
   \   000087 C7                    PUSH      HL                 ;; 1 cycle
   \   000088 FD....                CALL      N:?F_MUL           ;; 3 cycles
   \   00008B 1004                  ADDW      SP, #0x4           ;; 1 cycle
   \   00008D FD....                CALL      N:?F_ADD           ;; 3 cycles
   \   000090 EF1A                  BR        S:??TestMyCode_220  ;; 3 cycles
   \   000092                       ; ------------------------------------- Block: 20 cycles
   \                     ??TestMyCode_219:
   \   000092 C3                    PUSH      BC                 ;; 1 cycle
   \   000093 C1                    PUSH      AX                 ;; 1 cycle
   \   000094 36CF3E                MOVW      HL, #0x3ECF        ;; 1 cycle
   \   000097 C7                    PUSH      HL                 ;; 1 cycle
   \   000098 367B81                MOVW      HL, #0x817B        ;; 1 cycle
   \   00009B C7                    PUSH      HL                 ;; 1 cycle
   \   00009C FD....                CALL      N:?F_MUL           ;; 3 cycles
   \   00009F 1004                  ADDW      SP, #0x4           ;; 1 cycle
   \   0000A1 C3                    PUSH      BC                 ;; 1 cycle
   \   0000A2 C1                    PUSH      AX                 ;; 1 cycle
   \   0000A3 3083F9                MOVW      AX, #0xF983        ;; 1 cycle
   \   0000A6 32A23F                MOVW      BC, #0x3FA2        ;; 1 cycle
   \   0000A9 FD....                CALL      N:?F_SUB           ;; 3 cycles
   \   0000AC                       ; ------------------------------------- Block: 17 cycles
   \                     ??TestMyCode_220:
   \   0000AC 1004                  ADDW      SP, #0x4           ;; 1 cycle
   \   0000AE FD....                CALL      N:?F_MUL           ;; 3 cycles
   \   0000B1 1004                  ADDW      SP, #0x4           ;; 1 cycle
   \   0000B3 B82E                  MOVW      [SP+0x2E], AX      ;; 1 cycle
   \   0000B5 13                    MOVW      AX, BC             ;; 1 cycle
   \   0000B6 B830                  MOVW      [SP+0x30], AX      ;; 1 cycle
   \   0000B8 308E3C                MOVW      AX, #0x3C8E        ;; 1 cycle
   \   0000BB C1                    PUSH      AX                 ;; 1 cycle
   \   0000BC 3035FA                MOVW      AX, #0xFA35        ;; 1 cycle
   \   0000BF C1                    PUSH      AX                 ;; 1 cycle
   \   0000C0 A812                  MOVW      AX, [SP+0x12]      ;; 1 cycle
   \   0000C2 12                    MOVW      BC, AX             ;; 1 cycle
   \   0000C3 A810                  MOVW      AX, [SP+0x10]      ;; 1 cycle
   \   0000C5 FD....                CALL      N:?F_MUL           ;; 3 cycles
   \   0000C8 1004                  ADDW      SP, #0x4           ;; 1 cycle
   \   0000CA B800                  MOVW      [SP], AX           ;; 1 cycle
   \   0000CC 13                    MOVW      AX, BC             ;; 1 cycle
   \   0000CD B802                  MOVW      [SP+0x02], AX      ;; 1 cycle
   \   0000CF 3049C0                MOVW      AX, #0xC049        ;; 1 cycle
   \   0000D2 C1                    PUSH      AX                 ;; 1 cycle
   \   0000D3 30DB0F                MOVW      AX, #0xFDB         ;; 1 cycle
   \   0000D6 C1                    PUSH      AX                 ;; 1 cycle
   \   0000D7 A804                  MOVW      AX, [SP+0x04]      ;; 1 cycle
   \   0000D9 FD....                CALL      N:?FCMP_LT         ;; 3 cycles
   \   0000DC 1004                  ADDW      SP, #0x4           ;; 1 cycle
   \   0000DE DE05                  BNC       ??TestMyCode_221   ;; 4 cycles
   \   0000E0                       ; ------------------------------------- Block: 35 cycles
   \   0000E0 30C940                MOVW      AX, #0x40C9        ;; 1 cycle
   \   0000E3 EF14                  BR        S:??TestMyCode_222  ;; 3 cycles
   \   0000E5                       ; ------------------------------------- Block: 4 cycles
   \                     ??TestMyCode_221:
   \   0000E5 304940                MOVW      AX, #0x4049        ;; 1 cycle
   \   0000E8 C1                    PUSH      AX                 ;; 1 cycle
   \   0000E9 30DC0F                MOVW      AX, #0xFDC         ;; 1 cycle
   \   0000EC C1                    PUSH      AX                 ;; 1 cycle
   \   0000ED A804                  MOVW      AX, [SP+0x04]      ;; 1 cycle
   \   0000EF FD....                CALL      N:?FCMP_GE         ;; 3 cycles
   \   0000F2 1004                  ADDW      SP, #0x4           ;; 1 cycle
   \   0000F4 DC14                  BC        ??TestMyCode_223   ;; 4 cycles
   \   0000F6                       ; ------------------------------------- Block: 13 cycles
   \   0000F6 30C9C0                MOVW      AX, #0xC0C9        ;; 1 cycle
   \   0000F9                       ; ------------------------------------- Block: 1 cycles
   \                     ??TestMyCode_222:
   \   0000F9 C1                    PUSH      AX                 ;; 1 cycle
   \   0000FA 30DB0F                MOVW      AX, #0xFDB         ;; 1 cycle
   \   0000FD C1                    PUSH      AX                 ;; 1 cycle
   \   0000FE A804                  MOVW      AX, [SP+0x04]      ;; 1 cycle
   \   000100 FD....                CALL      N:?F_ADD           ;; 3 cycles
   \   000103 1004                  ADDW      SP, #0x4           ;; 1 cycle
   \   000105 B800                  MOVW      [SP], AX           ;; 1 cycle
   \   000107 13                    MOVW      AX, BC             ;; 1 cycle
   \   000108 B802                  MOVW      [SP+0x02], AX      ;; 1 cycle
   \   00010A                       ; ------------------------------------- Block: 11 cycles
   \                     ??TestMyCode_223:
   \   00010A F6                    CLRW      AX                 ;; 1 cycle
   \   00010B C1                    PUSH      AX                 ;; 1 cycle
   \   00010C C1                    PUSH      AX                 ;; 1 cycle
   \   00010D A806                  MOVW      AX, [SP+0x06]      ;; 1 cycle
   \   00010F 12                    MOVW      BC, AX             ;; 1 cycle
   \   000110 A804                  MOVW      AX, [SP+0x04]      ;; 1 cycle
   \   000112 FD....                CALL      N:?FCMP_LT         ;; 3 cycles
   \   000115 1004                  ADDW      SP, #0x4           ;; 1 cycle
   \   000117 DE2C                  BNC       ??TestMyCode_224   ;; 4 cycles
   \   000119                       ; ------------------------------------- Block: 14 cycles
   \   000119 C3                    PUSH      BC                 ;; 1 cycle
   \   00011A C1                    PUSH      AX                 ;; 1 cycle
   \   00011B 30CF3E                MOVW      AX, #0x3ECF        ;; 1 cycle
   \   00011E C1                    PUSH      AX                 ;; 1 cycle
   \   00011F C7                    PUSH      HL                 ;; 1 cycle
   \   000120 A808                  MOVW      AX, [SP+0x08]      ;; 1 cycle
   \   000122 FD....                CALL      N:?F_MUL           ;; 3 cycles
   \   000125 1004                  ADDW      SP, #0x4           ;; 1 cycle
   \   000127 FD....                CALL      N:?F_MUL           ;; 3 cycles
   \   00012A 1004                  ADDW      SP, #0x4           ;; 1 cycle
   \   00012C C3                    PUSH      BC                 ;; 1 cycle
   \   00012D C1                    PUSH      AX                 ;; 1 cycle
   \   00012E 30A23F                MOVW      AX, #0x3FA2        ;; 1 cycle
   \   000131 C1                    PUSH      AX                 ;; 1 cycle
   \   000132 3083F9                MOVW      AX, #0xF983        ;; 1 cycle
   \   000135 C1                    PUSH      AX                 ;; 1 cycle
   \   000136 A80A                  MOVW      AX, [SP+0x0A]      ;; 1 cycle
   \   000138 12                    MOVW      BC, AX             ;; 1 cycle
   \   000139 A808                  MOVW      AX, [SP+0x08]      ;; 1 cycle
   \   00013B FD....                CALL      N:?F_MUL           ;; 3 cycles
   \   00013E 1004                  ADDW      SP, #0x4           ;; 1 cycle
   \   000140 FD....                CALL      N:?F_ADD           ;; 3 cycles
   \   000143 EF2A                  BR        S:??TestMyCode_225  ;; 3 cycles
   \   000145                       ; ------------------------------------- Block: 33 cycles
   \                     ??TestMyCode_224:
   \   000145 C3                    PUSH      BC                 ;; 1 cycle
   \   000146 C1                    PUSH      AX                 ;; 1 cycle
   \   000147 30CF3E                MOVW      AX, #0x3ECF        ;; 1 cycle
   \   00014A C1                    PUSH      AX                 ;; 1 cycle
   \   00014B C7                    PUSH      HL                 ;; 1 cycle
   \   00014C A808                  MOVW      AX, [SP+0x08]      ;; 1 cycle
   \   00014E FD....                CALL      N:?F_MUL           ;; 3 cycles
   \   000151 1004                  ADDW      SP, #0x4           ;; 1 cycle
   \   000153 FD....                CALL      N:?F_MUL           ;; 3 cycles
   \   000156 1004                  ADDW      SP, #0x4           ;; 1 cycle
   \   000158 C3                    PUSH      BC                 ;; 1 cycle
   \   000159 C1                    PUSH      AX                 ;; 1 cycle
   \   00015A 30A23F                MOVW      AX, #0x3FA2        ;; 1 cycle
   \   00015D C1                    PUSH      AX                 ;; 1 cycle
   \   00015E 3083F9                MOVW      AX, #0xF983        ;; 1 cycle
   \   000161 C1                    PUSH      AX                 ;; 1 cycle
   \   000162 A80A                  MOVW      AX, [SP+0x0A]      ;; 1 cycle
   \   000164 12                    MOVW      BC, AX             ;; 1 cycle
   \   000165 A808                  MOVW      AX, [SP+0x08]      ;; 1 cycle
   \   000167 FD....                CALL      N:?F_MUL           ;; 3 cycles
   \   00016A 1004                  ADDW      SP, #0x4           ;; 1 cycle
   \   00016C FD....                CALL      N:?F_SUB           ;; 3 cycles
   \   00016F                       ; ------------------------------------- Block: 30 cycles
   \                     ??TestMyCode_225:
   \   00016F 1004                  ADDW      SP, #0x4           ;; 1 cycle
   \   000171 B82A                  MOVW      [SP+0x2A], AX      ;; 1 cycle
   \   000173 13                    MOVW      AX, BC             ;; 1 cycle
   \   000174 B82C                  MOVW      [SP+0x2C], AX      ;; 1 cycle
   \   000176 30C93F                MOVW      AX, #0x3FC9        ;; 1 cycle
   \   000179 C1                    PUSH      AX                 ;; 1 cycle
   \   00017A 30DB0F                MOVW      AX, #0xFDB         ;; 1 cycle
   \   00017D C1                    PUSH      AX                 ;; 1 cycle
   \   00017E 308E3C                MOVW      AX, #0x3C8E        ;; 1 cycle
   \   000181 C1                    PUSH      AX                 ;; 1 cycle
   \   000182 3035FA                MOVW      AX, #0xFA35        ;; 1 cycle
   \   000185 C1                    PUSH      AX                 ;; 1 cycle
   \   000186 3034C3                MOVW      AX, #0xC334        ;; 1 cycle
   \   000189 C1                    PUSH      AX                 ;; 1 cycle
   \   00018A F6                    CLRW      AX                 ;; 1 cycle
   \   00018B C1                    PUSH      AX                 ;; 1 cycle
   \   00018C A81A                  MOVW      AX, [SP+0x1A]      ;; 1 cycle
   \   00018E 12                    MOVW      BC, AX             ;; 1 cycle
   \   00018F A818                  MOVW      AX, [SP+0x18]      ;; 1 cycle
   \   000191 FD....                CALL      N:?F_ADD           ;; 3 cycles
   \   000194 1004                  ADDW      SP, #0x4           ;; 1 cycle
   \   000196 FD....                CALL      N:?F_MUL           ;; 3 cycles
   \   000199 1004                  ADDW      SP, #0x4           ;; 1 cycle
   \   00019B FD....                CALL      N:?F_ADD           ;; 3 cycles
   \   00019E 1004                  ADDW      SP, #0x4           ;; 1 cycle
   \   0001A0 364940                MOVW      HL, #0x4049        ;; 1 cycle
   \   0001A3 C7                    PUSH      HL                 ;; 1 cycle
   \   0001A4 36DC0F                MOVW      HL, #0xFDC         ;; 1 cycle
   \   0001A7 C7                    PUSH      HL                 ;; 1 cycle
   \   0001A8 FD....                CALL      N:?FCMP_GE         ;; 3 cycles
   \   0001AB 1004                  ADDW      SP, #0x4           ;; 1 cycle
   \   0001AD DC0D                  BC        ??TestMyCode_226   ;; 4 cycles
   \   0001AF                       ; ------------------------------------- Block: 43 cycles
   \   0001AF 36C9C0                MOVW      HL, #0xC0C9        ;; 1 cycle
   \   0001B2 C7                    PUSH      HL                 ;; 1 cycle
   \   0001B3 36DB0F                MOVW      HL, #0xFDB         ;; 1 cycle
   \   0001B6 C7                    PUSH      HL                 ;; 1 cycle
   \   0001B7 FD....                CALL      N:?F_ADD           ;; 3 cycles
   \   0001BA 1004                  ADDW      SP, #0x4           ;; 1 cycle
   \   0001BC                       ; ------------------------------------- Block: 8 cycles
   \                     ??TestMyCode_226:
   \   0001BC 360000                MOVW      HL, #0x0           ;; 1 cycle
   \   0001BF C7                    PUSH      HL                 ;; 1 cycle
   \   0001C0 C7                    PUSH      HL                 ;; 1 cycle
   \   0001C1 FD....                CALL      N:?FCMP_LT         ;; 3 cycles
   \   0001C4 1004                  ADDW      SP, #0x4           ;; 1 cycle
   \   0001C6 DE1C                  BNC       ??TestMyCode_227   ;; 4 cycles
   \   0001C8                       ; ------------------------------------- Block: 11 cycles
   \   0001C8 C3                    PUSH      BC                 ;; 1 cycle
   \   0001C9 C1                    PUSH      AX                 ;; 1 cycle
   \   0001CA 36A23F                MOVW      HL, #0x3FA2        ;; 1 cycle
   \   0001CD C7                    PUSH      HL                 ;; 1 cycle
   \   0001CE 3683F9                MOVW      HL, #0xF983        ;; 1 cycle
   \   0001D1 C7                    PUSH      HL                 ;; 1 cycle
   \   0001D2 36CF3E                MOVW      HL, #0x3ECF        ;; 1 cycle
   \   0001D5 C7                    PUSH      HL                 ;; 1 cycle
   \   0001D6 367B81                MOVW      HL, #0x817B        ;; 1 cycle
   \   0001D9 C7                    PUSH      HL                 ;; 1 cycle
   \   0001DA FD....                CALL      N:?F_MUL           ;; 3 cycles
   \   0001DD 1004                  ADDW      SP, #0x4           ;; 1 cycle
   \   0001DF FD....                CALL      N:?F_ADD           ;; 3 cycles
   \   0001E2 EF1A                  BR        S:??TestMyCode_228  ;; 3 cycles
   \   0001E4                       ; ------------------------------------- Block: 20 cycles
   \                     ??TestMyCode_227:
   \   0001E4 C3                    PUSH      BC                 ;; 1 cycle
   \   0001E5 C1                    PUSH      AX                 ;; 1 cycle
   \   0001E6 36CF3E                MOVW      HL, #0x3ECF        ;; 1 cycle
   \   0001E9 C7                    PUSH      HL                 ;; 1 cycle
   \   0001EA 367B81                MOVW      HL, #0x817B        ;; 1 cycle
   \   0001ED C7                    PUSH      HL                 ;; 1 cycle
   \   0001EE FD....                CALL      N:?F_MUL           ;; 3 cycles
   \   0001F1 1004                  ADDW      SP, #0x4           ;; 1 cycle
   \   0001F3 C3                    PUSH      BC                 ;; 1 cycle
   \   0001F4 C1                    PUSH      AX                 ;; 1 cycle
   \   0001F5 3083F9                MOVW      AX, #0xF983        ;; 1 cycle
   \   0001F8 32A23F                MOVW      BC, #0x3FA2        ;; 1 cycle
   \   0001FB FD....                CALL      N:?F_SUB           ;; 3 cycles
   \   0001FE                       ; ------------------------------------- Block: 17 cycles
   \                     ??TestMyCode_228:
   \   0001FE 1004                  ADDW      SP, #0x4           ;; 1 cycle
   \   000200 FD....                CALL      N:?F_MUL           ;; 3 cycles
   \   000203 1004                  ADDW      SP, #0x4           ;; 1 cycle
   \   000205 B826                  MOVW      [SP+0x26], AX      ;; 1 cycle
   \   000207 13                    MOVW      AX, BC             ;; 1 cycle
   \   000208 B828                  MOVW      [SP+0x28], AX      ;; 1 cycle
   \   00020A 308E3C                MOVW      AX, #0x3C8E        ;; 1 cycle
   \   00020D C1                    PUSH      AX                 ;; 1 cycle
   \   00020E 3035FA                MOVW      AX, #0xFA35        ;; 1 cycle
   \   000211 C1                    PUSH      AX                 ;; 1 cycle
   \   000212 3034C3                MOVW      AX, #0xC334        ;; 1 cycle
   \   000215 C1                    PUSH      AX                 ;; 1 cycle
   \   000216 F6                    CLRW      AX                 ;; 1 cycle
   \   000217 C1                    PUSH      AX                 ;; 1 cycle
   \   000218 A816                  MOVW      AX, [SP+0x16]      ;; 1 cycle
   \   00021A 12                    MOVW      BC, AX             ;; 1 cycle
   \   00021B A814                  MOVW      AX, [SP+0x14]      ;; 1 cycle
   \   00021D FD....                CALL      N:?F_ADD           ;; 3 cycles
   \   000220 1004                  ADDW      SP, #0x4           ;; 1 cycle
   \   000222 FD....                CALL      N:?F_MUL           ;; 3 cycles
   \   000225 1004                  ADDW      SP, #0x4           ;; 1 cycle
   \   000227 B800                  MOVW      [SP], AX           ;; 1 cycle
   \   000229 13                    MOVW      AX, BC             ;; 1 cycle
   \   00022A B802                  MOVW      [SP+0x02], AX      ;; 1 cycle
   \   00022C 3049C0                MOVW      AX, #0xC049        ;; 1 cycle
   \   00022F C1                    PUSH      AX                 ;; 1 cycle
   \   000230 30DB0F                MOVW      AX, #0xFDB         ;; 1 cycle
   \   000233 C1                    PUSH      AX                 ;; 1 cycle
   \   000234 A804                  MOVW      AX, [SP+0x04]      ;; 1 cycle
   \   000236 FD....                CALL      N:?FCMP_LT         ;; 3 cycles
   \   000239 1004                  ADDW      SP, #0x4           ;; 1 cycle
   \   00023B DE05                  BNC       ??TestMyCode_229   ;; 4 cycles
   \   00023D                       ; ------------------------------------- Block: 43 cycles
   \   00023D 30C940                MOVW      AX, #0x40C9        ;; 1 cycle
   \   000240 EF14                  BR        S:??TestMyCode_230  ;; 3 cycles
   \   000242                       ; ------------------------------------- Block: 4 cycles
   \                     ??TestMyCode_229:
   \   000242 304940                MOVW      AX, #0x4049        ;; 1 cycle
   \   000245 C1                    PUSH      AX                 ;; 1 cycle
   \   000246 30DC0F                MOVW      AX, #0xFDC         ;; 1 cycle
   \   000249 C1                    PUSH      AX                 ;; 1 cycle
   \   00024A A804                  MOVW      AX, [SP+0x04]      ;; 1 cycle
   \   00024C FD....                CALL      N:?FCMP_GE         ;; 3 cycles
   \   00024F 1004                  ADDW      SP, #0x4           ;; 1 cycle
   \   000251 DC14                  BC        ??TestMyCode_231   ;; 4 cycles
   \   000253                       ; ------------------------------------- Block: 13 cycles
   \   000253 30C9C0                MOVW      AX, #0xC0C9        ;; 1 cycle
   \   000256                       ; ------------------------------------- Block: 1 cycles
   \                     ??TestMyCode_230:
   \   000256 C1                    PUSH      AX                 ;; 1 cycle
   \   000257 30DB0F                MOVW      AX, #0xFDB         ;; 1 cycle
   \   00025A C1                    PUSH      AX                 ;; 1 cycle
   \   00025B A804                  MOVW      AX, [SP+0x04]      ;; 1 cycle
   \   00025D FD....                CALL      N:?F_ADD           ;; 3 cycles
   \   000260 1004                  ADDW      SP, #0x4           ;; 1 cycle
   \   000262 B800                  MOVW      [SP], AX           ;; 1 cycle
   \   000264 13                    MOVW      AX, BC             ;; 1 cycle
   \   000265 B802                  MOVW      [SP+0x02], AX      ;; 1 cycle
   \   000267                       ; ------------------------------------- Block: 11 cycles
   \                     ??TestMyCode_231:
   \   000267 F6                    CLRW      AX                 ;; 1 cycle
   \   000268 C1                    PUSH      AX                 ;; 1 cycle
   \   000269 C1                    PUSH      AX                 ;; 1 cycle
   \   00026A A806                  MOVW      AX, [SP+0x06]      ;; 1 cycle
   \   00026C 12                    MOVW      BC, AX             ;; 1 cycle
   \   00026D A804                  MOVW      AX, [SP+0x04]      ;; 1 cycle
   \   00026F FD....                CALL      N:?FCMP_LT         ;; 3 cycles
   \   000272 1004                  ADDW      SP, #0x4           ;; 1 cycle
   \   000274 DE2C                  BNC       ??TestMyCode_232   ;; 4 cycles
   \   000276                       ; ------------------------------------- Block: 14 cycles
   \   000276 C3                    PUSH      BC                 ;; 1 cycle
   \   000277 C1                    PUSH      AX                 ;; 1 cycle
   \   000278 30CF3E                MOVW      AX, #0x3ECF        ;; 1 cycle
   \   00027B C1                    PUSH      AX                 ;; 1 cycle
   \   00027C C7                    PUSH      HL                 ;; 1 cycle
   \   00027D A808                  MOVW      AX, [SP+0x08]      ;; 1 cycle
   \   00027F FD....                CALL      N:?F_MUL           ;; 3 cycles
   \   000282 1004                  ADDW      SP, #0x4           ;; 1 cycle
   \   000284 FD....                CALL      N:?F_MUL           ;; 3 cycles
   \   000287 1004                  ADDW      SP, #0x4           ;; 1 cycle
   \   000289 C3                    PUSH      BC                 ;; 1 cycle
   \   00028A C1                    PUSH      AX                 ;; 1 cycle
   \   00028B 30A23F                MOVW      AX, #0x3FA2        ;; 1 cycle
   \   00028E C1                    PUSH      AX                 ;; 1 cycle
   \   00028F 3083F9                MOVW      AX, #0xF983        ;; 1 cycle
   \   000292 C1                    PUSH      AX                 ;; 1 cycle
   \   000293 A80A                  MOVW      AX, [SP+0x0A]      ;; 1 cycle
   \   000295 12                    MOVW      BC, AX             ;; 1 cycle
   \   000296 A808                  MOVW      AX, [SP+0x08]      ;; 1 cycle
   \   000298 FD....                CALL      N:?F_MUL           ;; 3 cycles
   \   00029B 1004                  ADDW      SP, #0x4           ;; 1 cycle
   \   00029D FD....                CALL      N:?F_ADD           ;; 3 cycles
   \   0002A0 EF2A                  BR        S:??TestMyCode_233  ;; 3 cycles
   \   0002A2                       ; ------------------------------------- Block: 33 cycles
   \                     ??TestMyCode_232:
   \   0002A2 C3                    PUSH      BC                 ;; 1 cycle
   \   0002A3 C1                    PUSH      AX                 ;; 1 cycle
   \   0002A4 30CF3E                MOVW      AX, #0x3ECF        ;; 1 cycle
   \   0002A7 C1                    PUSH      AX                 ;; 1 cycle
   \   0002A8 C7                    PUSH      HL                 ;; 1 cycle
   \   0002A9 A808                  MOVW      AX, [SP+0x08]      ;; 1 cycle
   \   0002AB FD....                CALL      N:?F_MUL           ;; 3 cycles
   \   0002AE 1004                  ADDW      SP, #0x4           ;; 1 cycle
   \   0002B0 FD....                CALL      N:?F_MUL           ;; 3 cycles
   \   0002B3 1004                  ADDW      SP, #0x4           ;; 1 cycle
   \   0002B5 C3                    PUSH      BC                 ;; 1 cycle
   \   0002B6 C1                    PUSH      AX                 ;; 1 cycle
   \   0002B7 30A23F                MOVW      AX, #0x3FA2        ;; 1 cycle
   \   0002BA C1                    PUSH      AX                 ;; 1 cycle
   \   0002BB 3083F9                MOVW      AX, #0xF983        ;; 1 cycle
   \   0002BE C1                    PUSH      AX                 ;; 1 cycle
   \   0002BF A80A                  MOVW      AX, [SP+0x0A]      ;; 1 cycle
   \   0002C1 12                    MOVW      BC, AX             ;; 1 cycle
   \   0002C2 A808                  MOVW      AX, [SP+0x08]      ;; 1 cycle
   \   0002C4 FD....                CALL      N:?F_MUL           ;; 3 cycles
   \   0002C7 1004                  ADDW      SP, #0x4           ;; 1 cycle
   \   0002C9 FD....                CALL      N:?F_SUB           ;; 3 cycles
   \   0002CC                       ; ------------------------------------- Block: 30 cycles
   \                     ??TestMyCode_233:
   \   0002CC 1004                  ADDW      SP, #0x4           ;; 1 cycle
   \   0002CE B822                  MOVW      [SP+0x22], AX      ;; 1 cycle
   \   0002D0 13                    MOVW      AX, BC             ;; 1 cycle
   \   0002D1 B824                  MOVW      [SP+0x24], AX      ;; 1 cycle
   \   0002D3 30C93F                MOVW      AX, #0x3FC9        ;; 1 cycle
   \   0002D6 C1                    PUSH      AX                 ;; 1 cycle
   \   0002D7 30DB0F                MOVW      AX, #0xFDB         ;; 1 cycle
   \   0002DA C1                    PUSH      AX                 ;; 1 cycle
   \   0002DB 308E3C                MOVW      AX, #0x3C8E        ;; 1 cycle
   \   0002DE C1                    PUSH      AX                 ;; 1 cycle
   \   0002DF 3035FA                MOVW      AX, #0xFA35        ;; 1 cycle
   \   0002E2 C1                    PUSH      AX                 ;; 1 cycle
   \   0002E3 30B442                MOVW      AX, #0x42B4        ;; 1 cycle
   \   0002E6 C1                    PUSH      AX                 ;; 1 cycle
   \   0002E7 F6                    CLRW      AX                 ;; 1 cycle
   \   0002E8 C1                    PUSH      AX                 ;; 1 cycle
   \   0002E9 A81A                  MOVW      AX, [SP+0x1A]      ;; 1 cycle
   \   0002EB 12                    MOVW      BC, AX             ;; 1 cycle
   \   0002EC A818                  MOVW      AX, [SP+0x18]      ;; 1 cycle
   \   0002EE FD....                CALL      N:?F_ADD           ;; 3 cycles
   \   0002F1 1004                  ADDW      SP, #0x4           ;; 1 cycle
   \   0002F3 FD....                CALL      N:?F_MUL           ;; 3 cycles
   \   0002F6 1004                  ADDW      SP, #0x4           ;; 1 cycle
   \   0002F8 FD....                CALL      N:?F_ADD           ;; 3 cycles
   \   0002FB 1004                  ADDW      SP, #0x4           ;; 1 cycle
   \   0002FD 364940                MOVW      HL, #0x4049        ;; 1 cycle
   \   000300 C7                    PUSH      HL                 ;; 1 cycle
   \   000301 36DC0F                MOVW      HL, #0xFDC         ;; 1 cycle
   \   000304 C7                    PUSH      HL                 ;; 1 cycle
   \   000305 FD....                CALL      N:?FCMP_GE         ;; 3 cycles
   \   000308 1004                  ADDW      SP, #0x4           ;; 1 cycle
   \   00030A DC0D                  BC        ??TestMyCode_234   ;; 4 cycles
   \   00030C                       ; ------------------------------------- Block: 43 cycles
   \   00030C 36C9C0                MOVW      HL, #0xC0C9        ;; 1 cycle
   \   00030F C7                    PUSH      HL                 ;; 1 cycle
   \   000310 36DB0F                MOVW      HL, #0xFDB         ;; 1 cycle
   \   000313 C7                    PUSH      HL                 ;; 1 cycle
   \   000314 FD....                CALL      N:?F_ADD           ;; 3 cycles
   \   000317 1004                  ADDW      SP, #0x4           ;; 1 cycle
   \   000319                       ; ------------------------------------- Block: 8 cycles
   \                     ??TestMyCode_234:
   \   000319 360000                MOVW      HL, #0x0           ;; 1 cycle
   \   00031C C7                    PUSH      HL                 ;; 1 cycle
   \   00031D C7                    PUSH      HL                 ;; 1 cycle
   \   00031E FD....                CALL      N:?FCMP_LT         ;; 3 cycles
   \   000321 1004                  ADDW      SP, #0x4           ;; 1 cycle
   \   000323 DE1C                  BNC       ??TestMyCode_235   ;; 4 cycles
   \   000325                       ; ------------------------------------- Block: 11 cycles
   \   000325 C3                    PUSH      BC                 ;; 1 cycle
   \   000326 C1                    PUSH      AX                 ;; 1 cycle
   \   000327 36A23F                MOVW      HL, #0x3FA2        ;; 1 cycle
   \   00032A C7                    PUSH      HL                 ;; 1 cycle
   \   00032B 3683F9                MOVW      HL, #0xF983        ;; 1 cycle
   \   00032E C7                    PUSH      HL                 ;; 1 cycle
   \   00032F 36CF3E                MOVW      HL, #0x3ECF        ;; 1 cycle
   \   000332 C7                    PUSH      HL                 ;; 1 cycle
   \   000333 367B81                MOVW      HL, #0x817B        ;; 1 cycle
   \   000336 C7                    PUSH      HL                 ;; 1 cycle
   \   000337 FD....                CALL      N:?F_MUL           ;; 3 cycles
   \   00033A 1004                  ADDW      SP, #0x4           ;; 1 cycle
   \   00033C FD....                CALL      N:?F_ADD           ;; 3 cycles
   \   00033F EF1A                  BR        S:??TestMyCode_236  ;; 3 cycles
   \   000341                       ; ------------------------------------- Block: 20 cycles
   \                     ??TestMyCode_235:
   \   000341 C3                    PUSH      BC                 ;; 1 cycle
   \   000342 C1                    PUSH      AX                 ;; 1 cycle
   \   000343 36CF3E                MOVW      HL, #0x3ECF        ;; 1 cycle
   \   000346 C7                    PUSH      HL                 ;; 1 cycle
   \   000347 367B81                MOVW      HL, #0x817B        ;; 1 cycle
   \   00034A C7                    PUSH      HL                 ;; 1 cycle
   \   00034B FD....                CALL      N:?F_MUL           ;; 3 cycles
   \   00034E 1004                  ADDW      SP, #0x4           ;; 1 cycle
   \   000350 C3                    PUSH      BC                 ;; 1 cycle
   \   000351 C1                    PUSH      AX                 ;; 1 cycle
   \   000352 3083F9                MOVW      AX, #0xF983        ;; 1 cycle
   \   000355 32A23F                MOVW      BC, #0x3FA2        ;; 1 cycle
   \   000358 FD....                CALL      N:?F_SUB           ;; 3 cycles
   \   00035B                       ; ------------------------------------- Block: 17 cycles
   \                     ??TestMyCode_236:
   \   00035B 1004                  ADDW      SP, #0x4           ;; 1 cycle
   \   00035D FD....                CALL      N:?F_MUL           ;; 3 cycles
   \   000360 1004                  ADDW      SP, #0x4           ;; 1 cycle
   \   000362 B818                  MOVW      [SP+0x18], AX      ;; 1 cycle
   \   000364 13                    MOVW      AX, BC             ;; 1 cycle
   \   000365 B81A                  MOVW      [SP+0x1A], AX      ;; 1 cycle
   \   000367 308E3C                MOVW      AX, #0x3C8E        ;; 1 cycle
   \   00036A C1                    PUSH      AX                 ;; 1 cycle
   \   00036B 3035FA                MOVW      AX, #0xFA35        ;; 1 cycle
   \   00036E C1                    PUSH      AX                 ;; 1 cycle
   \   00036F 30B442                MOVW      AX, #0x42B4        ;; 1 cycle
   \   000372 C1                    PUSH      AX                 ;; 1 cycle
   \   000373 F6                    CLRW      AX                 ;; 1 cycle
   \   000374 C1                    PUSH      AX                 ;; 1 cycle
   \   000375 A816                  MOVW      AX, [SP+0x16]      ;; 1 cycle
   \   000377 12                    MOVW      BC, AX             ;; 1 cycle
   \   000378 A814                  MOVW      AX, [SP+0x14]      ;; 1 cycle
   \   00037A FD....                CALL      N:?F_ADD           ;; 3 cycles
   \   00037D 1004                  ADDW      SP, #0x4           ;; 1 cycle
   \   00037F FD....                CALL      N:?F_MUL           ;; 3 cycles
   \   000382 1004                  ADDW      SP, #0x4           ;; 1 cycle
   \   000384 B800                  MOVW      [SP], AX           ;; 1 cycle
   \   000386 13                    MOVW      AX, BC             ;; 1 cycle
   \   000387 B802                  MOVW      [SP+0x02], AX      ;; 1 cycle
   \   000389 3049C0                MOVW      AX, #0xC049        ;; 1 cycle
   \   00038C C1                    PUSH      AX                 ;; 1 cycle
   \   00038D 30DB0F                MOVW      AX, #0xFDB         ;; 1 cycle
   \   000390 C1                    PUSH      AX                 ;; 1 cycle
   \   000391 A804                  MOVW      AX, [SP+0x04]      ;; 1 cycle
   \   000393 FD....                CALL      N:?FCMP_LT         ;; 3 cycles
   \   000396 1004                  ADDW      SP, #0x4           ;; 1 cycle
   \   000398 DE05                  BNC       ??TestMyCode_237   ;; 4 cycles
   \   00039A                       ; ------------------------------------- Block: 43 cycles
   \   00039A 30C940                MOVW      AX, #0x40C9        ;; 1 cycle
   \   00039D EF14                  BR        S:??TestMyCode_238  ;; 3 cycles
   \   00039F                       ; ------------------------------------- Block: 4 cycles
   \                     ??TestMyCode_237:
   \   00039F 304940                MOVW      AX, #0x4049        ;; 1 cycle
   \   0003A2 C1                    PUSH      AX                 ;; 1 cycle
   \   0003A3 30DC0F                MOVW      AX, #0xFDC         ;; 1 cycle
   \   0003A6 C1                    PUSH      AX                 ;; 1 cycle
   \   0003A7 A804                  MOVW      AX, [SP+0x04]      ;; 1 cycle
   \   0003A9 FD....                CALL      N:?FCMP_GE         ;; 3 cycles
   \   0003AC 1004                  ADDW      SP, #0x4           ;; 1 cycle
   \   0003AE DC14                  BC        ??TestMyCode_239   ;; 4 cycles
   \   0003B0                       ; ------------------------------------- Block: 13 cycles
   \   0003B0 30C9C0                MOVW      AX, #0xC0C9        ;; 1 cycle
   \   0003B3                       ; ------------------------------------- Block: 1 cycles
   \                     ??TestMyCode_238:
   \   0003B3 C1                    PUSH      AX                 ;; 1 cycle
   \   0003B4 30DB0F                MOVW      AX, #0xFDB         ;; 1 cycle
   \   0003B7 C1                    PUSH      AX                 ;; 1 cycle
   \   0003B8 A804                  MOVW      AX, [SP+0x04]      ;; 1 cycle
   \   0003BA FD....                CALL      N:?F_ADD           ;; 3 cycles
   \   0003BD 1004                  ADDW      SP, #0x4           ;; 1 cycle
   \   0003BF B800                  MOVW      [SP], AX           ;; 1 cycle
   \   0003C1 13                    MOVW      AX, BC             ;; 1 cycle
   \   0003C2 B802                  MOVW      [SP+0x02], AX      ;; 1 cycle
   \   0003C4                       ; ------------------------------------- Block: 11 cycles
   \                     ??TestMyCode_239:
   \   0003C4 F6                    CLRW      AX                 ;; 1 cycle
   \   0003C5 C1                    PUSH      AX                 ;; 1 cycle
   \   0003C6 C1                    PUSH      AX                 ;; 1 cycle
   \   0003C7 A806                  MOVW      AX, [SP+0x06]      ;; 1 cycle
   \   0003C9 12                    MOVW      BC, AX             ;; 1 cycle
   \   0003CA A804                  MOVW      AX, [SP+0x04]      ;; 1 cycle
   \   0003CC FD....                CALL      N:?FCMP_LT         ;; 3 cycles
   \   0003CF 1004                  ADDW      SP, #0x4           ;; 1 cycle
   \   0003D1 DE2C                  BNC       ??TestMyCode_240   ;; 4 cycles
   \   0003D3                       ; ------------------------------------- Block: 14 cycles
   \   0003D3 C3                    PUSH      BC                 ;; 1 cycle
   \   0003D4 C1                    PUSH      AX                 ;; 1 cycle
   \   0003D5 30CF3E                MOVW      AX, #0x3ECF        ;; 1 cycle
   \   0003D8 C1                    PUSH      AX                 ;; 1 cycle
   \   0003D9 C7                    PUSH      HL                 ;; 1 cycle
   \   0003DA A808                  MOVW      AX, [SP+0x08]      ;; 1 cycle
   \   0003DC FD....                CALL      N:?F_MUL           ;; 3 cycles
   \   0003DF 1004                  ADDW      SP, #0x4           ;; 1 cycle
   \   0003E1 FD....                CALL      N:?F_MUL           ;; 3 cycles
   \   0003E4 1004                  ADDW      SP, #0x4           ;; 1 cycle
   \   0003E6 C3                    PUSH      BC                 ;; 1 cycle
   \   0003E7 C1                    PUSH      AX                 ;; 1 cycle
   \   0003E8 30A23F                MOVW      AX, #0x3FA2        ;; 1 cycle
   \   0003EB C1                    PUSH      AX                 ;; 1 cycle
   \   0003EC 3083F9                MOVW      AX, #0xF983        ;; 1 cycle
   \   0003EF C1                    PUSH      AX                 ;; 1 cycle
   \   0003F0 A80A                  MOVW      AX, [SP+0x0A]      ;; 1 cycle
   \   0003F2 12                    MOVW      BC, AX             ;; 1 cycle
   \   0003F3 A808                  MOVW      AX, [SP+0x08]      ;; 1 cycle
   \   0003F5 FD....                CALL      N:?F_MUL           ;; 3 cycles
   \   0003F8 1004                  ADDW      SP, #0x4           ;; 1 cycle
   \   0003FA FD....                CALL      N:?F_ADD           ;; 3 cycles
   \   0003FD EF2A                  BR        S:??TestMyCode_241  ;; 3 cycles
   \   0003FF                       ; ------------------------------------- Block: 33 cycles
   \                     ??TestMyCode_240:
   \   0003FF C3                    PUSH      BC                 ;; 1 cycle
   \   000400 C1                    PUSH      AX                 ;; 1 cycle
   \   000401 30CF3E                MOVW      AX, #0x3ECF        ;; 1 cycle
   \   000404 C1                    PUSH      AX                 ;; 1 cycle
   \   000405 C7                    PUSH      HL                 ;; 1 cycle
   \   000406 A808                  MOVW      AX, [SP+0x08]      ;; 1 cycle
   \   000408 FD....                CALL      N:?F_MUL           ;; 3 cycles
   \   00040B 1004                  ADDW      SP, #0x4           ;; 1 cycle
   \   00040D FD....                CALL      N:?F_MUL           ;; 3 cycles
   \   000410 1004                  ADDW      SP, #0x4           ;; 1 cycle
   \   000412 C3                    PUSH      BC                 ;; 1 cycle
   \   000413 C1                    PUSH      AX                 ;; 1 cycle
   \   000414 30A23F                MOVW      AX, #0x3FA2        ;; 1 cycle
   \   000417 C1                    PUSH      AX                 ;; 1 cycle
   \   000418 3083F9                MOVW      AX, #0xF983        ;; 1 cycle
   \   00041B C1                    PUSH      AX                 ;; 1 cycle
   \   00041C A80A                  MOVW      AX, [SP+0x0A]      ;; 1 cycle
   \   00041E 12                    MOVW      BC, AX             ;; 1 cycle
   \   00041F A808                  MOVW      AX, [SP+0x08]      ;; 1 cycle
   \   000421 FD....                CALL      N:?F_MUL           ;; 3 cycles
   \   000424 1004                  ADDW      SP, #0x4           ;; 1 cycle
   \   000426 FD....                CALL      N:?F_SUB           ;; 3 cycles
   \   000429                       ; ------------------------------------- Block: 30 cycles
   \                     ??TestMyCode_241:
   \   000429 1004                  ADDW      SP, #0x4           ;; 1 cycle
   \   00042B B814                  MOVW      [SP+0x14], AX      ;; 1 cycle
   \   00042D 13                    MOVW      AX, BC             ;; 1 cycle
   \   00042E B816                  MOVW      [SP+0x16], AX      ;; 1 cycle
   \   000430 30C93F                MOVW      AX, #0x3FC9        ;; 1 cycle
   \   000433 C1                    PUSH      AX                 ;; 1 cycle
   \   000434 30DB0F                MOVW      AX, #0xFDB         ;; 1 cycle
   \   000437 C1                    PUSH      AX                 ;; 1 cycle
   \   000438 308E3C                MOVW      AX, #0x3C8E        ;; 1 cycle
   \   00043B C1                    PUSH      AX                 ;; 1 cycle
   \   00043C 3035FA                MOVW      AX, #0xFA35        ;; 1 cycle
   \   00043F C1                    PUSH      AX                 ;; 1 cycle
   \   000440 30B4C2                MOVW      AX, #0xC2B4        ;; 1 cycle
   \   000443 C1                    PUSH      AX                 ;; 1 cycle
   \   000444 F6                    CLRW      AX                 ;; 1 cycle
   \   000445 C1                    PUSH      AX                 ;; 1 cycle
   \   000446 A81A                  MOVW      AX, [SP+0x1A]      ;; 1 cycle
   \   000448 12                    MOVW      BC, AX             ;; 1 cycle
   \   000449 A818                  MOVW      AX, [SP+0x18]      ;; 1 cycle
   \   00044B FD....                CALL      N:?F_ADD           ;; 3 cycles
   \   00044E 1004                  ADDW      SP, #0x4           ;; 1 cycle
   \   000450 FD....                CALL      N:?F_MUL           ;; 3 cycles
   \   000453 1004                  ADDW      SP, #0x4           ;; 1 cycle
   \   000455 FD....                CALL      N:?F_ADD           ;; 3 cycles
   \   000458 1004                  ADDW      SP, #0x4           ;; 1 cycle
   \   00045A 364940                MOVW      HL, #0x4049        ;; 1 cycle
   \   00045D C7                    PUSH      HL                 ;; 1 cycle
   \   00045E 36DC0F                MOVW      HL, #0xFDC         ;; 1 cycle
   \   000461 C7                    PUSH      HL                 ;; 1 cycle
   \   000462 FD....                CALL      N:?FCMP_GE         ;; 3 cycles
   \   000465 1004                  ADDW      SP, #0x4           ;; 1 cycle
   \   000467 DC0D                  BC        ??TestMyCode_242   ;; 4 cycles
   \   000469                       ; ------------------------------------- Block: 43 cycles
   \   000469 36C9C0                MOVW      HL, #0xC0C9        ;; 1 cycle
   \   00046C C7                    PUSH      HL                 ;; 1 cycle
   \   00046D 36DB0F                MOVW      HL, #0xFDB         ;; 1 cycle
   \   000470 C7                    PUSH      HL                 ;; 1 cycle
   \   000471 FD....                CALL      N:?F_ADD           ;; 3 cycles
   \   000474 1004                  ADDW      SP, #0x4           ;; 1 cycle
   \   000476                       ; ------------------------------------- Block: 8 cycles
   \                     ??TestMyCode_242:
   \   000476 360000                MOVW      HL, #0x0           ;; 1 cycle
   \   000479 C7                    PUSH      HL                 ;; 1 cycle
   \   00047A C7                    PUSH      HL                 ;; 1 cycle
   \   00047B FD....                CALL      N:?FCMP_LT         ;; 3 cycles
   \   00047E 1004                  ADDW      SP, #0x4           ;; 1 cycle
   \   000480 DE1C                  BNC       ??TestMyCode_243   ;; 4 cycles
   \   000482                       ; ------------------------------------- Block: 11 cycles
   \   000482 C3                    PUSH      BC                 ;; 1 cycle
   \   000483 C1                    PUSH      AX                 ;; 1 cycle
   \   000484 36A23F                MOVW      HL, #0x3FA2        ;; 1 cycle
   \   000487 C7                    PUSH      HL                 ;; 1 cycle
   \   000488 3683F9                MOVW      HL, #0xF983        ;; 1 cycle
   \   00048B C7                    PUSH      HL                 ;; 1 cycle
   \   00048C 36CF3E                MOVW      HL, #0x3ECF        ;; 1 cycle
   \   00048F C7                    PUSH      HL                 ;; 1 cycle
   \   000490 367B81                MOVW      HL, #0x817B        ;; 1 cycle
   \   000493 C7                    PUSH      HL                 ;; 1 cycle
   \   000494 FD....                CALL      N:?F_MUL           ;; 3 cycles
   \   000497 1004                  ADDW      SP, #0x4           ;; 1 cycle
   \   000499 FD....                CALL      N:?F_ADD           ;; 3 cycles
   \   00049C EF1A                  BR        S:??TestMyCode_244  ;; 3 cycles
   \   00049E                       ; ------------------------------------- Block: 20 cycles
   \                     ??TestMyCode_243:
   \   00049E C3                    PUSH      BC                 ;; 1 cycle
   \   00049F C1                    PUSH      AX                 ;; 1 cycle
   \   0004A0 36CF3E                MOVW      HL, #0x3ECF        ;; 1 cycle
   \   0004A3 C7                    PUSH      HL                 ;; 1 cycle
   \   0004A4 367B81                MOVW      HL, #0x817B        ;; 1 cycle
   \   0004A7 C7                    PUSH      HL                 ;; 1 cycle
   \   0004A8 FD....                CALL      N:?F_MUL           ;; 3 cycles
   \   0004AB 1004                  ADDW      SP, #0x4           ;; 1 cycle
   \   0004AD C3                    PUSH      BC                 ;; 1 cycle
   \   0004AE C1                    PUSH      AX                 ;; 1 cycle
   \   0004AF 3083F9                MOVW      AX, #0xF983        ;; 1 cycle
   \   0004B2 32A23F                MOVW      BC, #0x3FA2        ;; 1 cycle
   \   0004B5 FD....                CALL      N:?F_SUB           ;; 3 cycles
   \   0004B8                       ; ------------------------------------- Block: 17 cycles
   \                     ??TestMyCode_244:
   \   0004B8 1004                  ADDW      SP, #0x4           ;; 1 cycle
   \   0004BA FD....                CALL      N:?F_MUL           ;; 3 cycles
   \   0004BD 1004                  ADDW      SP, #0x4           ;; 1 cycle
   \   0004BF B810                  MOVW      [SP+0x10], AX      ;; 1 cycle
   \   0004C1 13                    MOVW      AX, BC             ;; 1 cycle
   \   0004C2 B812                  MOVW      [SP+0x12], AX      ;; 1 cycle
   \   0004C4 308E3C                MOVW      AX, #0x3C8E        ;; 1 cycle
   \   0004C7 C1                    PUSH      AX                 ;; 1 cycle
   \   0004C8 3035FA                MOVW      AX, #0xFA35        ;; 1 cycle
   \   0004CB C1                    PUSH      AX                 ;; 1 cycle
   \   0004CC 30B4C2                MOVW      AX, #0xC2B4        ;; 1 cycle
   \   0004CF C1                    PUSH      AX                 ;; 1 cycle
   \   0004D0 F6                    CLRW      AX                 ;; 1 cycle
   \   0004D1 C1                    PUSH      AX                 ;; 1 cycle
   \   0004D2 A816                  MOVW      AX, [SP+0x16]      ;; 1 cycle
   \   0004D4 12                    MOVW      BC, AX             ;; 1 cycle
   \   0004D5 A814                  MOVW      AX, [SP+0x14]      ;; 1 cycle
   \   0004D7 FD....                CALL      N:?F_ADD           ;; 3 cycles
   \   0004DA 1004                  ADDW      SP, #0x4           ;; 1 cycle
   \   0004DC FD....                CALL      N:?F_MUL           ;; 3 cycles
   \   0004DF 1004                  ADDW      SP, #0x4           ;; 1 cycle
   \   0004E1 B800                  MOVW      [SP], AX           ;; 1 cycle
   \   0004E3 13                    MOVW      AX, BC             ;; 1 cycle
   \   0004E4 B802                  MOVW      [SP+0x02], AX      ;; 1 cycle
   \   0004E6 3049C0                MOVW      AX, #0xC049        ;; 1 cycle
   \   0004E9 C1                    PUSH      AX                 ;; 1 cycle
   \   0004EA 30DB0F                MOVW      AX, #0xFDB         ;; 1 cycle
   \   0004ED C1                    PUSH      AX                 ;; 1 cycle
   \   0004EE A804                  MOVW      AX, [SP+0x04]      ;; 1 cycle
   \   0004F0 FD....                CALL      N:?FCMP_LT         ;; 3 cycles
   \   0004F3 1004                  ADDW      SP, #0x4           ;; 1 cycle
   \   0004F5 DE05                  BNC       ??TestMyCode_245   ;; 4 cycles
   \   0004F7                       ; ------------------------------------- Block: 43 cycles
   \   0004F7 30C940                MOVW      AX, #0x40C9        ;; 1 cycle
   \   0004FA EF14                  BR        S:??TestMyCode_246  ;; 3 cycles
   \   0004FC                       ; ------------------------------------- Block: 4 cycles
   \                     ??TestMyCode_245:
   \   0004FC 304940                MOVW      AX, #0x4049        ;; 1 cycle
   \   0004FF C1                    PUSH      AX                 ;; 1 cycle
   \   000500 30DC0F                MOVW      AX, #0xFDC         ;; 1 cycle
   \   000503 C1                    PUSH      AX                 ;; 1 cycle
   \   000504 A804                  MOVW      AX, [SP+0x04]      ;; 1 cycle
   \   000506 FD....                CALL      N:?FCMP_GE         ;; 3 cycles
   \   000509 1004                  ADDW      SP, #0x4           ;; 1 cycle
   \   00050B DC14                  BC        ??TestMyCode_247   ;; 4 cycles
   \   00050D                       ; ------------------------------------- Block: 13 cycles
   \   00050D 30C9C0                MOVW      AX, #0xC0C9        ;; 1 cycle
   \   000510                       ; ------------------------------------- Block: 1 cycles
   \                     ??TestMyCode_246:
   \   000510 C1                    PUSH      AX                 ;; 1 cycle
   \   000511 30DB0F                MOVW      AX, #0xFDB         ;; 1 cycle
   \   000514 C1                    PUSH      AX                 ;; 1 cycle
   \   000515 A804                  MOVW      AX, [SP+0x04]      ;; 1 cycle
   \   000517 FD....                CALL      N:?F_ADD           ;; 3 cycles
   \   00051A 1004                  ADDW      SP, #0x4           ;; 1 cycle
   \   00051C B800                  MOVW      [SP], AX           ;; 1 cycle
   \   00051E 13                    MOVW      AX, BC             ;; 1 cycle
   \   00051F B802                  MOVW      [SP+0x02], AX      ;; 1 cycle
   \   000521                       ; ------------------------------------- Block: 11 cycles
   \                     ??TestMyCode_247:
   \   000521 F6                    CLRW      AX                 ;; 1 cycle
   \   000522 C1                    PUSH      AX                 ;; 1 cycle
   \   000523 C1                    PUSH      AX                 ;; 1 cycle
   \   000524 A806                  MOVW      AX, [SP+0x06]      ;; 1 cycle
   \   000526 12                    MOVW      BC, AX             ;; 1 cycle
   \   000527 A804                  MOVW      AX, [SP+0x04]      ;; 1 cycle
   \   000529 FD....                CALL      N:?FCMP_LT         ;; 3 cycles
   \   00052C 1004                  ADDW      SP, #0x4           ;; 1 cycle
   \   00052E DE2C                  BNC       ??TestMyCode_248   ;; 4 cycles
   \   000530                       ; ------------------------------------- Block: 14 cycles
   \   000530 C3                    PUSH      BC                 ;; 1 cycle
   \   000531 C1                    PUSH      AX                 ;; 1 cycle
   \   000532 30CF3E                MOVW      AX, #0x3ECF        ;; 1 cycle
   \   000535 C1                    PUSH      AX                 ;; 1 cycle
   \   000536 C7                    PUSH      HL                 ;; 1 cycle
   \   000537 A808                  MOVW      AX, [SP+0x08]      ;; 1 cycle
   \   000539 FD....                CALL      N:?F_MUL           ;; 3 cycles
   \   00053C 1004                  ADDW      SP, #0x4           ;; 1 cycle
   \   00053E FD....                CALL      N:?F_MUL           ;; 3 cycles
   \   000541 1004                  ADDW      SP, #0x4           ;; 1 cycle
   \   000543 C3                    PUSH      BC                 ;; 1 cycle
   \   000544 C1                    PUSH      AX                 ;; 1 cycle
   \   000545 30A23F                MOVW      AX, #0x3FA2        ;; 1 cycle
   \   000548 C1                    PUSH      AX                 ;; 1 cycle
   \   000549 3083F9                MOVW      AX, #0xF983        ;; 1 cycle
   \   00054C C1                    PUSH      AX                 ;; 1 cycle
   \   00054D A80A                  MOVW      AX, [SP+0x0A]      ;; 1 cycle
   \   00054F 12                    MOVW      BC, AX             ;; 1 cycle
   \   000550 A808                  MOVW      AX, [SP+0x08]      ;; 1 cycle
   \   000552 FD....                CALL      N:?F_MUL           ;; 3 cycles
   \   000555 1004                  ADDW      SP, #0x4           ;; 1 cycle
   \   000557 FD....                CALL      N:?F_ADD           ;; 3 cycles
   \   00055A EF2A                  BR        S:??TestMyCode_249  ;; 3 cycles
   \   00055C                       ; ------------------------------------- Block: 33 cycles
   \                     ??TestMyCode_248:
   \   00055C C3                    PUSH      BC                 ;; 1 cycle
   \   00055D C1                    PUSH      AX                 ;; 1 cycle
   \   00055E 30CF3E                MOVW      AX, #0x3ECF        ;; 1 cycle
   \   000561 C1                    PUSH      AX                 ;; 1 cycle
   \   000562 C7                    PUSH      HL                 ;; 1 cycle
   \   000563 A808                  MOVW      AX, [SP+0x08]      ;; 1 cycle
   \   000565 FD....                CALL      N:?F_MUL           ;; 3 cycles
   \   000568 1004                  ADDW      SP, #0x4           ;; 1 cycle
   \   00056A FD....                CALL      N:?F_MUL           ;; 3 cycles
   \   00056D 1004                  ADDW      SP, #0x4           ;; 1 cycle
   \   00056F C3                    PUSH      BC                 ;; 1 cycle
   \   000570 C1                    PUSH      AX                 ;; 1 cycle
   \   000571 30A23F                MOVW      AX, #0x3FA2        ;; 1 cycle
   \   000574 C1                    PUSH      AX                 ;; 1 cycle
   \   000575 3083F9                MOVW      AX, #0xF983        ;; 1 cycle
   \   000578 C1                    PUSH      AX                 ;; 1 cycle
   \   000579 A80A                  MOVW      AX, [SP+0x0A]      ;; 1 cycle
   \   00057B 12                    MOVW      BC, AX             ;; 1 cycle
   \   00057C A808                  MOVW      AX, [SP+0x08]      ;; 1 cycle
   \   00057E FD....                CALL      N:?F_MUL           ;; 3 cycles
   \   000581 1004                  ADDW      SP, #0x4           ;; 1 cycle
   \   000583 FD....                CALL      N:?F_SUB           ;; 3 cycles
   \   000586                       ; ------------------------------------- Block: 30 cycles
   \                     ??TestMyCode_249:
   \   000586 1004                  ADDW      SP, #0x4           ;; 1 cycle
   \   000588 B80C                  MOVW      [SP+0x0C], AX      ;; 1 cycle
   \   00058A 13                    MOVW      AX, BC             ;; 1 cycle
   \   00058B B80E                  MOVW      [SP+0x0E], AX      ;; 1 cycle
   \   00058D 304042                MOVW      AX, #0x4240        ;; 1 cycle
   \   000590 C1                    PUSH      AX                 ;; 1 cycle
   \   000591 F6                    CLRW      AX                 ;; 1 cycle
   \   000592 C1                    PUSH      AX                 ;; 1 cycle
   \   000593 304042                MOVW      AX, #0x4240        ;; 1 cycle
   \   000596 C1                    PUSH      AX                 ;; 1 cycle
   \   000597 F6                    CLRW      AX                 ;; 1 cycle
   \   000598 C1                    PUSH      AX                 ;; 1 cycle
   \   000599 A838                  MOVW      AX, [SP+0x38]      ;; 1 cycle
   \   00059B 12                    MOVW      BC, AX             ;; 1 cycle
   \   00059C A836                  MOVW      AX, [SP+0x36]      ;; 1 cycle
   \   00059E FD....                CALL      N:?F_MUL           ;; 3 cycles
   \   0005A1 1004                  ADDW      SP, #0x4           ;; 1 cycle
   \   0005A3 FD....                CALL      N:?F_ADD           ;; 3 cycles
   \   0005A6 FD....                CALL      N:?F_F2SL          ;; 3 cycles
   \   0005A9 60                    MOV       A, X               ;; 1 cycle
   \   0005AA 980E                  MOV       [SP+0x0E], A       ;; 1 cycle
   \   0005AC 1004                  ADDW      SP, #0x4           ;; 1 cycle
   \   0005AE 301C42                MOVW      AX, #0x421C        ;; 1 cycle
   \   0005B1 C1                    PUSH      AX                 ;; 1 cycle
   \   0005B2 F6                    CLRW      AX                 ;; 1 cycle
   \   0005B3 C1                    PUSH      AX                 ;; 1 cycle
   \   0005B4 5142                  MOV       A, #0x42           ;; 1 cycle
   \   0005B6 C1                    PUSH      AX                 ;; 1 cycle
   \   0005B7 F6                    CLRW      AX                 ;; 1 cycle
   \   0005B8 C1                    PUSH      AX                 ;; 1 cycle
   \   0005B9 A834                  MOVW      AX, [SP+0x34]      ;; 1 cycle
   \   0005BB 12                    MOVW      BC, AX             ;; 1 cycle
   \   0005BC A832                  MOVW      AX, [SP+0x32]      ;; 1 cycle
   \   0005BE FD....                CALL      N:?F_MUL           ;; 3 cycles
   \   0005C1 1004                  ADDW      SP, #0x4           ;; 1 cycle
   \   0005C3 FD....                CALL      N:?F_ADD           ;; 3 cycles
   \   0005C6 FD....                CALL      N:?F_F2SL          ;; 3 cycles
   \   0005C9 60                    MOV       A, X               ;; 1 cycle
   \   0005CA 9805                  MOV       [SP+0x05], A       ;; 1 cycle
   \   0005CC 980F                  MOV       [SP+0x0F], A       ;; 1 cycle
   \   0005CE 1004                  ADDW      SP, #0x4           ;; 1 cycle
   \   0005D0 304042                MOVW      AX, #0x4240        ;; 1 cycle
   \   0005D3 C1                    PUSH      AX                 ;; 1 cycle
   \   0005D4 F6                    CLRW      AX                 ;; 1 cycle
   \   0005D5 C1                    PUSH      AX                 ;; 1 cycle
   \   0005D6 308040                MOVW      AX, #0x4080        ;; 1 cycle
   \   0005D9 C1                    PUSH      AX                 ;; 1 cycle
   \   0005DA F6                    CLRW      AX                 ;; 1 cycle
   \   0005DB C1                    PUSH      AX                 ;; 1 cycle
   \   0005DC A81A                  MOVW      AX, [SP+0x1A]      ;; 1 cycle
   \   0005DE 12                    MOVW      BC, AX             ;; 1 cycle
   \   0005DF A818                  MOVW      AX, [SP+0x18]      ;; 1 cycle
   \   0005E1 FD....                CALL      N:?F_MUL           ;; 3 cycles
   \   0005E4 1004                  ADDW      SP, #0x4           ;; 1 cycle
   \   0005E6 FD....                CALL      N:?F_ADD           ;; 3 cycles
   \   0005E9 FD....                CALL      N:?F_F2SL          ;; 3 cycles
   \   0005EC 60                    MOV       A, X               ;; 1 cycle
   \   0005ED 980A                  MOV       [SP+0x0A], A       ;; 1 cycle
   \   0005EF 1004                  ADDW      SP, #0x4           ;; 1 cycle
   \   0005F1 301C42                MOVW      AX, #0x421C        ;; 1 cycle
   \   0005F4 C1                    PUSH      AX                 ;; 1 cycle
   \   0005F5 F6                    CLRW      AX                 ;; 1 cycle
   \   0005F6 C1                    PUSH      AX                 ;; 1 cycle
   \   0005F7 302640                MOVW      AX, #0x4026        ;; 1 cycle
   \   0005FA C1                    PUSH      AX                 ;; 1 cycle
   \   0005FB 306666                MOVW      AX, #0x6666        ;; 1 cycle
   \   0005FE C1                    PUSH      AX                 ;; 1 cycle
   \   0005FF A816                  MOVW      AX, [SP+0x16]      ;; 1 cycle
   \   000601 12                    MOVW      BC, AX             ;; 1 cycle
   \   000602 A814                  MOVW      AX, [SP+0x14]      ;; 1 cycle
   \   000604 FD....                CALL      N:?F_MUL           ;; 3 cycles
   \   000607 1004                  ADDW      SP, #0x4           ;; 1 cycle
   \   000609 FD....                CALL      N:?F_ADD           ;; 3 cycles
   \   00060C FD....                CALL      N:?F_F2SL          ;; 3 cycles
   \   00060F 60                    MOV       A, X               ;; 1 cycle
   \   000610 980B                  MOV       [SP+0x0B], A       ;; 1 cycle
   \   000612 1004                  ADDW      SP, #0x4           ;; 1 cycle
   \   000614 304042                MOVW      AX, #0x4240        ;; 1 cycle
   \   000617 C1                    PUSH      AX                 ;; 1 cycle
   \   000618 F6                    CLRW      AX                 ;; 1 cycle
   \   000619 C1                    PUSH      AX                 ;; 1 cycle
   \   00061A 5141                  MOV       A, #0x41           ;; 1 cycle
   \   00061C C1                    PUSH      AX                 ;; 1 cycle
   \   00061D F6                    CLRW      AX                 ;; 1 cycle
   \   00061E C1                    PUSH      AX                 ;; 1 cycle
   \   00061F A830                  MOVW      AX, [SP+0x30]      ;; 1 cycle
   \   000621 12                    MOVW      BC, AX             ;; 1 cycle
   \   000622 A82E                  MOVW      AX, [SP+0x2E]      ;; 1 cycle
   \   000624 FD....                CALL      N:?F_MUL           ;; 3 cycles
   \   000627 1004                  ADDW      SP, #0x4           ;; 1 cycle
   \   000629 FD....                CALL      N:?F_ADD           ;; 3 cycles
   \   00062C FD....                CALL      N:?F_F2SL          ;; 3 cycles
   \   00062F 60                    MOV       A, X               ;; 1 cycle
   \   000630 980C                  MOV       [SP+0x0C], A       ;; 1 cycle
   \   000632 1004                  ADDW      SP, #0x4           ;; 1 cycle
   \   000634 301C42                MOVW      AX, #0x421C        ;; 1 cycle
   \   000637 C1                    PUSH      AX                 ;; 1 cycle
   \   000638 F6                    CLRW      AX                 ;; 1 cycle
   \   000639 C1                    PUSH      AX                 ;; 1 cycle
   \   00063A 30A940                MOVW      AX, #0x40A9        ;; 1 cycle
   \   00063D C1                    PUSH      AX                 ;; 1 cycle
   \   00063E 309A99                MOVW      AX, #0x999A        ;; 1 cycle
   \   000641 C1                    PUSH      AX                 ;; 1 cycle
   \   000642 A82C                  MOVW      AX, [SP+0x2C]      ;; 1 cycle
   \   000644 12                    MOVW      BC, AX             ;; 1 cycle
   \   000645 A82A                  MOVW      AX, [SP+0x2A]      ;; 1 cycle
   \   000647 FD....                CALL      N:?F_MUL           ;; 3 cycles
   \   00064A 1004                  ADDW      SP, #0x4           ;; 1 cycle
   \   00064C FD....                CALL      N:?F_ADD           ;; 3 cycles
   \   00064F FD....                CALL      N:?F_F2SL          ;; 3 cycles
   \   000652 60                    MOV       A, X               ;; 1 cycle
   \   000653 9804                  MOV       [SP+0x04], A       ;; 1 cycle
   \   000655 980D                  MOV       [SP+0x0D], A       ;; 1 cycle
   \   000657 1004                  ADDW      SP, #0x4           ;; 1 cycle
   \   000659 304042                MOVW      AX, #0x4240        ;; 1 cycle
   \   00065C C1                    PUSH      AX                 ;; 1 cycle
   \   00065D F6                    CLRW      AX                 ;; 1 cycle
   \   00065E C1                    PUSH      AX                 ;; 1 cycle
   \   00065F 308040                MOVW      AX, #0x4080        ;; 1 cycle
   \   000662 C1                    PUSH      AX                 ;; 1 cycle
   \   000663 F6                    CLRW      AX                 ;; 1 cycle
   \   000664 C1                    PUSH      AX                 ;; 1 cycle
   \   000665 A822                  MOVW      AX, [SP+0x22]      ;; 1 cycle
   \   000667 12                    MOVW      BC, AX             ;; 1 cycle
   \   000668 A820                  MOVW      AX, [SP+0x20]      ;; 1 cycle
   \   00066A FD....                CALL      N:?F_MUL           ;; 3 cycles
   \   00066D 1004                  ADDW      SP, #0x4           ;; 1 cycle
   \   00066F FD....                CALL      N:?F_ADD           ;; 3 cycles
   \   000672 FD....                CALL      N:?F_F2SL          ;; 3 cycles
   \   000675 60                    MOV       A, X               ;; 1 cycle
   \   000676 9808                  MOV       [SP+0x08], A       ;; 1 cycle
   \   000678 1004                  ADDW      SP, #0x4           ;; 1 cycle
   \   00067A 301C42                MOVW      AX, #0x421C        ;; 1 cycle
   \   00067D C1                    PUSH      AX                 ;; 1 cycle
   \   00067E F6                    CLRW      AX                 ;; 1 cycle
   \   00067F C1                    PUSH      AX                 ;; 1 cycle
   \   000680 302640                MOVW      AX, #0x4026        ;; 1 cycle
   \   000683 C1                    PUSH      AX                 ;; 1 cycle
   \   000684 306666                MOVW      AX, #0x6666        ;; 1 cycle
   \   000687 C1                    PUSH      AX                 ;; 1 cycle
   \   000688 A81E                  MOVW      AX, [SP+0x1E]      ;; 1 cycle
   \   00068A 12                    MOVW      BC, AX             ;; 1 cycle
   \   00068B A81C                  MOVW      AX, [SP+0x1C]      ;; 1 cycle
   \   00068D FD....                CALL      N:?F_MUL           ;; 3 cycles
   \   000690 1004                  ADDW      SP, #0x4           ;; 1 cycle
   \   000692 FD....                CALL      N:?F_ADD           ;; 3 cycles
   \   000695 FD....                CALL      N:?F_F2SL          ;; 3 cycles
   \   000698 60                    MOV       A, X               ;; 1 cycle
   \   000699 9809                  MOV       [SP+0x09], A       ;; 1 cycle
   \   00069B 880E                  MOV       A, [SP+0x0E]       ;; 1 cycle
   \   00069D 76                    MOV       L, A               ;; 1 cycle
   \   00069E 880A                  MOV       A, [SP+0x0A]       ;; 1 cycle
   \   0006A0 5700                  MOV       H, #0x0            ;; 1 cycle
   \   0006A2 70                    MOV       X, A               ;; 1 cycle
   \   0006A3 F1                    CLRB      A                  ;; 1 cycle
   \   0006A4 27                    SUBW      AX, HL             ;; 1 cycle
   \   0006A5 16                    MOVW      HL, AX             ;; 1 cycle
   \   0006A6 8805                  MOV       A, [SP+0x05]       ;; 1 cycle
   \   0006A8 74                    MOV       E, A               ;; 1 cycle
   \   0006A9 880B                  MOV       A, [SP+0x0B]       ;; 1 cycle
   \   0006AB 5500                  MOV       D, #0x0            ;; 1 cycle
   \   0006AD 70                    MOV       X, A               ;; 1 cycle
   \   0006AE F1                    CLRB      A                  ;; 1 cycle
   \   0006AF 25                    SUBW      AX, DE             ;; 1 cycle
   \   0006B0 14                    MOVW      DE, AX             ;; 1 cycle
   \   0006B1 880E                  MOV       A, [SP+0x0E]       ;; 1 cycle
   \   0006B3 70                    MOV       X, A               ;; 1 cycle
   \   0006B4 F1                    CLRB      A                  ;; 1 cycle
   \   0006B5 B816                  MOVW      [SP+0x16], AX      ;; 1 cycle
   \   0006B7 8805                  MOV       A, [SP+0x05]       ;; 1 cycle
   \   0006B9 70                    MOV       X, A               ;; 1 cycle
   \   0006BA F1                    CLRB      A                  ;; 1 cycle
   \   0006BB B814                  MOVW      [SP+0x14], AX      ;; 1 cycle
   \   0006BD F6                    CLRW      AX                 ;; 1 cycle
   \   0006BE B820                  MOVW      [SP+0x20], AX      ;; 1 cycle
   \   0006C0 B818                  MOVW      [SP+0x18], AX      ;; 1 cycle
   \   0006C2 B81E                  MOVW      [SP+0x1E], AX      ;; 1 cycle
   \   0006C4 B81C                  MOVW      [SP+0x1C], AX      ;; 1 cycle
   \   0006C6 17                    MOVW      AX, HL             ;; 1 cycle
   \   0006C7 1004                  ADDW      SP, #0x4           ;; 1 cycle
   \   0006C9 317505                BF        A.7, ??TestMyCode_250  ;; 5 cycles
   \   0006CC                       ; ------------------------------------- Block: 233 cycles
   \   0006CC 30FFFF                MOVW      AX, #0xFFFF        ;; 1 cycle
   \   0006CF EF08                  BR        S:??TestMyCode_251  ;; 3 cycles
   \   0006D1                       ; ------------------------------------- Block: 4 cycles
   \                     ??TestMyCode_250:
   \   0006D1 7C80                  XOR       A, #0x80           ;; 1 cycle
   \   0006D3 440180                CMPW      AX, #0x8001        ;; 1 cycle
   \   0006D6 DC05                  BC        ??TestMyCode_252   ;; 4 cycles
   \   0006D8                       ; ------------------------------------- Block: 6 cycles
   \   0006D8 E6                    ONEW      AX                 ;; 1 cycle
   \   0006D9                       ; ------------------------------------- Block: 1 cycles
   \                     ??TestMyCode_251:
   \   0006D9 B81C                  MOVW      [SP+0x1C], AX      ;; 1 cycle
   \   0006DB B814                  MOVW      [SP+0x14], AX      ;; 1 cycle
   \   0006DD                       ; ------------------------------------- Block: 2 cycles
   \                     ??TestMyCode_252:
   \   0006DD 15                    MOVW      AX, DE             ;; 1 cycle
   \   0006DE 317505                BF        A.7, ??TestMyCode_253  ;; 5 cycles
   \   0006E1                       ; ------------------------------------- Block: 6 cycles
   \   0006E1 30FFFF                MOVW      AX, #0xFFFF        ;; 1 cycle
   \   0006E4 EF08                  BR        S:??TestMyCode_254  ;; 3 cycles
   \   0006E6                       ; ------------------------------------- Block: 4 cycles
   \                     ??TestMyCode_253:
   \   0006E6 7C80                  XOR       A, #0x80           ;; 1 cycle
   \   0006E8 440180                CMPW      AX, #0x8001        ;; 1 cycle
   \   0006EB DC03                  BC        ??TestMyCode_255   ;; 4 cycles
   \   0006ED                       ; ------------------------------------- Block: 6 cycles
   \   0006ED E6                    ONEW      AX                 ;; 1 cycle
   \   0006EE                       ; ------------------------------------- Block: 1 cycles
   \                     ??TestMyCode_254:
   \   0006EE B81A                  MOVW      [SP+0x1A], AX      ;; 1 cycle
   \   0006F0                       ; ------------------------------------- Block: 1 cycles
   \                     ??TestMyCode_255:
   \   0006F0 17                    MOVW      AX, HL             ;; 1 cycle
   \   0006F1 317507                BF        A.7, ??TestMyCode_256  ;; 5 cycles
   \   0006F4                       ; ------------------------------------- Block: 6 cycles
   \   0006F4 7CFF                  XOR       A, #0xFF           ;; 1 cycle
   \   0006F6 08                    XCH       A, X               ;; 1 cycle
   \   0006F7 7CFF                  XOR       A, #0xFF           ;; 1 cycle
   \   0006F9 08                    XCH       A, X               ;; 1 cycle
   \   0006FA A1                    INCW      AX                 ;; 1 cycle
   \   0006FB                       ; ------------------------------------- Block: 5 cycles
   \                     ??TestMyCode_256:
   \   0006FB B802                  MOVW      [SP+0x02], AX      ;; 1 cycle
   \   0006FD 15                    MOVW      AX, DE             ;; 1 cycle
   \   0006FE 317507                BF        A.7, ??TestMyCode_257  ;; 5 cycles
   \   000701                       ; ------------------------------------- Block: 7 cycles
   \   000701 7CFF                  XOR       A, #0xFF           ;; 1 cycle
   \   000703 08                    XCH       A, X               ;; 1 cycle
   \   000704 7CFF                  XOR       A, #0xFF           ;; 1 cycle
   \   000706 08                    XCH       A, X               ;; 1 cycle
   \   000707 A1                    INCW      AX                 ;; 1 cycle
   \   000708                       ; ------------------------------------- Block: 5 cycles
   \                     ??TestMyCode_257:
   \   000708 B80C                  MOVW      [SP+0x0C], AX      ;; 1 cycle
   \   00070A A802                  MOVW      AX, [SP+0x02]      ;; 1 cycle
   \   00070C 12                    MOVW      BC, AX             ;; 1 cycle
   \   00070D A80C                  MOVW      AX, [SP+0x0C]      ;; 1 cycle
   \   00070F FD....                CALL      N:?SI_CMP_L02      ;; 3 cycles
   \   000712 DC25                  BC        ??TestMyCode_258   ;; 4 cycles
   \   000714                       ; ------------------------------------- Block: 11 cycles
   \   000714 B802                  MOVW      [SP+0x02], AX      ;; 1 cycle
   \   000716 17                    MOVW      AX, HL             ;; 1 cycle
   \   000717 317507                BF        A.7, ??TestMyCode_259  ;; 5 cycles
   \   00071A                       ; ------------------------------------- Block: 7 cycles
   \   00071A 7CFF                  XOR       A, #0xFF           ;; 1 cycle
   \   00071C 08                    XCH       A, X               ;; 1 cycle
   \   00071D 7CFF                  XOR       A, #0xFF           ;; 1 cycle
   \   00071F 08                    XCH       A, X               ;; 1 cycle
   \   000720 A1                    INCW      AX                 ;; 1 cycle
   \   000721                       ; ------------------------------------- Block: 5 cycles
   \                     ??TestMyCode_259:
   \   000721 B80C                  MOVW      [SP+0x0C], AX      ;; 1 cycle
   \   000723 15                    MOVW      AX, DE             ;; 1 cycle
   \   000724 317505                BF        A.7, ??TestMyCode_260  ;; 5 cycles
   \   000727                       ; ------------------------------------- Block: 7 cycles
   \   000727 30FFFF                MOVW      AX, #0xFFFF        ;; 1 cycle
   \   00072A EF08                  BR        S:??TestMyCode_261  ;; 3 cycles
   \   00072C                       ; ------------------------------------- Block: 4 cycles
   \                     ??TestMyCode_260:
   \   00072C 7C80                  XOR       A, #0x80           ;; 1 cycle
   \   00072E 440180                CMPW      AX, #0x8001        ;; 1 cycle
   \   000731 DC03                  BC        ??TestMyCode_262   ;; 4 cycles
   \   000733                       ; ------------------------------------- Block: 6 cycles
   \   000733 E6                    ONEW      AX                 ;; 1 cycle
   \   000734                       ; ------------------------------------- Block: 1 cycles
   \                     ??TestMyCode_261:
   \   000734 B818                  MOVW      [SP+0x18], AX      ;; 1 cycle
   \   000736                       ; ------------------------------------- Block: 1 cycles
   \                     ??TestMyCode_262:
   \   000736 F6                    CLRW      AX                 ;; 1 cycle
   \   000737 B814                  MOVW      [SP+0x14], AX      ;; 1 cycle
   \   000739                       ; ------------------------------------- Block: 2 cycles
   \                     ??TestMyCode_258:
   \   000739 A802                  MOVW      AX, [SP+0x02]      ;; 1 cycle
   \   00073B 311F                  SARW      AX, 0x1            ;; 1 cycle
   \   00073D B80E                  MOVW      [SP+0x0E], AX      ;; 1 cycle
   \   00073F F6                    CLRW      AX                 ;; 1 cycle
   \   000740 B816                  MOVW      [SP+0x16], AX      ;; 1 cycle
   \   000742 A802                  MOVW      AX, [SP+0x02]      ;; 1 cycle
   \   000744 317351                BT        A.7, ??TestMyCode_263  ;; 5 cycles
   \   000747                       ; ------------------------------------- Block: 11 cycles
   \                     ??TestMyCode_264:
   \   000747 A810                  MOVW      AX, [SP+0x10]      ;; 1 cycle
   \   000749 60                    MOV       A, X               ;; 1 cycle
   \   00074A 73                    MOV       B, A               ;; 1 cycle
   \   00074B A812                  MOVW      AX, [SP+0x12]      ;; 1 cycle
   \   00074D 340200                MOVW      DE, #0x2           ;; 1 cycle
   \   000750 E2                    ONEB      C                  ;; 1 cycle
   \   000751 60                    MOV       A, X               ;; 1 cycle
   \   000752 FD....                CALL      FBG_SetPixel       ;; 3 cycles
   \   000755 A80C                  MOVW      AX, [SP+0x0C]      ;; 1 cycle
   \   000757 16                    MOVW      HL, AX             ;; 1 cycle
   \   000758 A80E                  MOVW      AX, [SP+0x0E]      ;; 1 cycle
   \   00075A 07                    ADDW      AX, HL             ;; 1 cycle
   \   00075B B80E                  MOVW      [SP+0x0E], AX      ;; 1 cycle
   \   00075D A802                  MOVW      AX, [SP+0x02]      ;; 1 cycle
   \   00075F 12                    MOVW      BC, AX             ;; 1 cycle
   \   000760 A80E                  MOVW      AX, [SP+0x0E]      ;; 1 cycle
   \   000762 FD....                CALL      N:?SI_CMP_L02      ;; 3 cycles
   \   000765 DC14                  BC        ??TestMyCode_265   ;; 4 cycles
   \   000767                       ; ------------------------------------- Block: 25 cycles
   \   000767 A802                  MOVW      AX, [SP+0x02]      ;; 1 cycle
   \   000769 16                    MOVW      HL, AX             ;; 1 cycle
   \   00076A A80E                  MOVW      AX, [SP+0x0E]      ;; 1 cycle
   \   00076C 27                    SUBW      AX, HL             ;; 1 cycle
   \   00076D B80E                  MOVW      [SP+0x0E], AX      ;; 1 cycle
   \   00076F A81C                  MOVW      AX, [SP+0x1C]      ;; 1 cycle
   \   000771 16                    MOVW      HL, AX             ;; 1 cycle
   \   000772 A812                  MOVW      AX, [SP+0x12]      ;; 1 cycle
   \   000774 07                    ADDW      AX, HL             ;; 1 cycle
   \   000775 B812                  MOVW      [SP+0x12], AX      ;; 1 cycle
   \   000777 A81A                  MOVW      AX, [SP+0x1A]      ;; 1 cycle
   \   000779 EF0A                  BR        S:??TestMyCode_266  ;; 3 cycles
   \   00077B                       ; ------------------------------------- Block: 14 cycles
   \                     ??TestMyCode_265:
   \   00077B A814                  MOVW      AX, [SP+0x14]      ;; 1 cycle
   \   00077D 16                    MOVW      HL, AX             ;; 1 cycle
   \   00077E A812                  MOVW      AX, [SP+0x12]      ;; 1 cycle
   \   000780 07                    ADDW      AX, HL             ;; 1 cycle
   \   000781 B812                  MOVW      [SP+0x12], AX      ;; 1 cycle
   \   000783 A818                  MOVW      AX, [SP+0x18]      ;; 1 cycle
   \   000785                       ; ------------------------------------- Block: 6 cycles
   \                     ??TestMyCode_266:
   \   000785 16                    MOVW      HL, AX             ;; 1 cycle
   \   000786 A810                  MOVW      AX, [SP+0x10]      ;; 1 cycle
   \   000788 07                    ADDW      AX, HL             ;; 1 cycle
   \   000789 B810                  MOVW      [SP+0x10], AX      ;; 1 cycle
   \   00078B A816                  MOVW      AX, [SP+0x16]      ;; 1 cycle
   \   00078D A1                    INCW      AX                 ;; 1 cycle
   \   00078E B816                  MOVW      [SP+0x16], AX      ;; 1 cycle
   \   000790 12                    MOVW      BC, AX             ;; 1 cycle
   \   000791 A802                  MOVW      AX, [SP+0x02]      ;; 1 cycle
   \   000793 FD....                CALL      N:?SI_CMP_L02      ;; 3 cycles
   \   000796 DEAF                  BNC       ??TestMyCode_264   ;; 4 cycles
   \   000798                       ; ------------------------------------- Block: 16 cycles
   \                     ??TestMyCode_263:
   \   000798 880A                  MOV       A, [SP+0x0A]       ;; 1 cycle
   \   00079A 76                    MOV       L, A               ;; 1 cycle
   \   00079B 8804                  MOV       A, [SP+0x04]       ;; 1 cycle
   \   00079D 5700                  MOV       H, #0x0            ;; 1 cycle
   \   00079F 70                    MOV       X, A               ;; 1 cycle
   \   0007A0 F1                    CLRB      A                  ;; 1 cycle
   \   0007A1 27                    SUBW      AX, HL             ;; 1 cycle
   \   0007A2 16                    MOVW      HL, AX             ;; 1 cycle
   \   0007A3 8801                  MOV       A, [SP+0x01]       ;; 1 cycle
   \   0007A5 74                    MOV       E, A               ;; 1 cycle
   \   0007A6 8805                  MOV       A, [SP+0x05]       ;; 1 cycle
   \   0007A8 5500                  MOV       D, #0x0            ;; 1 cycle
   \   0007AA 70                    MOV       X, A               ;; 1 cycle
   \   0007AB F1                    CLRB      A                  ;; 1 cycle
   \   0007AC 25                    SUBW      AX, DE             ;; 1 cycle
   \   0007AD 14                    MOVW      DE, AX             ;; 1 cycle
   \   0007AE 880A                  MOV       A, [SP+0x0A]       ;; 1 cycle
   \   0007B0 70                    MOV       X, A               ;; 1 cycle
   \   0007B1 F1                    CLRB      A                  ;; 1 cycle
   \   0007B2 B812                  MOVW      [SP+0x12], AX      ;; 1 cycle
   \   0007B4 8801                  MOV       A, [SP+0x01]       ;; 1 cycle
   \   0007B6 70                    MOV       X, A               ;; 1 cycle
   \   0007B7 F1                    CLRB      A                  ;; 1 cycle
   \   0007B8 B810                  MOVW      [SP+0x10], AX      ;; 1 cycle
   \   0007BA F6                    CLRW      AX                 ;; 1 cycle
   \   0007BB B81C                  MOVW      [SP+0x1C], AX      ;; 1 cycle
   \   0007BD B814                  MOVW      [SP+0x14], AX      ;; 1 cycle
   \   0007BF B81A                  MOVW      [SP+0x1A], AX      ;; 1 cycle
   \   0007C1 B818                  MOVW      [SP+0x18], AX      ;; 1 cycle
   \   0007C3 17                    MOVW      AX, HL             ;; 1 cycle
   \   0007C4 317505                BF        A.7, ??TestMyCode_267  ;; 5 cycles
   \   0007C7                       ; ------------------------------------- Block: 35 cycles
   \   0007C7 30FFFF                MOVW      AX, #0xFFFF        ;; 1 cycle
   \   0007CA EF08                  BR        S:??TestMyCode_268  ;; 3 cycles
   \   0007CC                       ; ------------------------------------- Block: 4 cycles
   \                     ??TestMyCode_267:
   \   0007CC 7C80                  XOR       A, #0x80           ;; 1 cycle
   \   0007CE 440180                CMPW      AX, #0x8001        ;; 1 cycle
   \   0007D1 DC05                  BC        ??TestMyCode_269   ;; 4 cycles
   \   0007D3                       ; ------------------------------------- Block: 6 cycles
   \   0007D3 E6                    ONEW      AX                 ;; 1 cycle
   \   0007D4                       ; ------------------------------------- Block: 1 cycles
   \                     ??TestMyCode_268:
   \   0007D4 B81C                  MOVW      [SP+0x1C], AX      ;; 1 cycle
   \   0007D6 B814                  MOVW      [SP+0x14], AX      ;; 1 cycle
   \   0007D8                       ; ------------------------------------- Block: 2 cycles
   \                     ??TestMyCode_269:
   \   0007D8 15                    MOVW      AX, DE             ;; 1 cycle
   \   0007D9 317505                BF        A.7, ??TestMyCode_270  ;; 5 cycles
   \   0007DC                       ; ------------------------------------- Block: 6 cycles
   \   0007DC 30FFFF                MOVW      AX, #0xFFFF        ;; 1 cycle
   \   0007DF EF08                  BR        S:??TestMyCode_271  ;; 3 cycles
   \   0007E1                       ; ------------------------------------- Block: 4 cycles
   \                     ??TestMyCode_270:
   \   0007E1 7C80                  XOR       A, #0x80           ;; 1 cycle
   \   0007E3 440180                CMPW      AX, #0x8001        ;; 1 cycle
   \   0007E6 DC03                  BC        ??TestMyCode_272   ;; 4 cycles
   \   0007E8                       ; ------------------------------------- Block: 6 cycles
   \   0007E8 E6                    ONEW      AX                 ;; 1 cycle
   \   0007E9                       ; ------------------------------------- Block: 1 cycles
   \                     ??TestMyCode_271:
   \   0007E9 B81A                  MOVW      [SP+0x1A], AX      ;; 1 cycle
   \   0007EB                       ; ------------------------------------- Block: 1 cycles
   \                     ??TestMyCode_272:
   \   0007EB 17                    MOVW      AX, HL             ;; 1 cycle
   \   0007EC 317507                BF        A.7, ??TestMyCode_273  ;; 5 cycles
   \   0007EF                       ; ------------------------------------- Block: 6 cycles
   \   0007EF 7CFF                  XOR       A, #0xFF           ;; 1 cycle
   \   0007F1 08                    XCH       A, X               ;; 1 cycle
   \   0007F2 7CFF                  XOR       A, #0xFF           ;; 1 cycle
   \   0007F4 08                    XCH       A, X               ;; 1 cycle
   \   0007F5 A1                    INCW      AX                 ;; 1 cycle
   \   0007F6                       ; ------------------------------------- Block: 5 cycles
   \                     ??TestMyCode_273:
   \   0007F6 B802                  MOVW      [SP+0x02], AX      ;; 1 cycle
   \   0007F8 15                    MOVW      AX, DE             ;; 1 cycle
   \   0007F9 317507                BF        A.7, ??TestMyCode_274  ;; 5 cycles
   \   0007FC                       ; ------------------------------------- Block: 7 cycles
   \   0007FC 7CFF                  XOR       A, #0xFF           ;; 1 cycle
   \   0007FE 08                    XCH       A, X               ;; 1 cycle
   \   0007FF 7CFF                  XOR       A, #0xFF           ;; 1 cycle
   \   000801 08                    XCH       A, X               ;; 1 cycle
   \   000802 A1                    INCW      AX                 ;; 1 cycle
   \   000803                       ; ------------------------------------- Block: 5 cycles
   \                     ??TestMyCode_274:
   \   000803 B80C                  MOVW      [SP+0x0C], AX      ;; 1 cycle
   \   000805 A802                  MOVW      AX, [SP+0x02]      ;; 1 cycle
   \   000807 12                    MOVW      BC, AX             ;; 1 cycle
   \   000808 A80C                  MOVW      AX, [SP+0x0C]      ;; 1 cycle
   \   00080A FD....                CALL      N:?SI_CMP_L02      ;; 3 cycles
   \   00080D DC25                  BC        ??TestMyCode_275   ;; 4 cycles
   \   00080F                       ; ------------------------------------- Block: 11 cycles
   \   00080F B802                  MOVW      [SP+0x02], AX      ;; 1 cycle
   \   000811 17                    MOVW      AX, HL             ;; 1 cycle
   \   000812 317507                BF        A.7, ??TestMyCode_276  ;; 5 cycles
   \   000815                       ; ------------------------------------- Block: 7 cycles
   \   000815 7CFF                  XOR       A, #0xFF           ;; 1 cycle
   \   000817 08                    XCH       A, X               ;; 1 cycle
   \   000818 7CFF                  XOR       A, #0xFF           ;; 1 cycle
   \   00081A 08                    XCH       A, X               ;; 1 cycle
   \   00081B A1                    INCW      AX                 ;; 1 cycle
   \   00081C                       ; ------------------------------------- Block: 5 cycles
   \                     ??TestMyCode_276:
   \   00081C B80C                  MOVW      [SP+0x0C], AX      ;; 1 cycle
   \   00081E 15                    MOVW      AX, DE             ;; 1 cycle
   \   00081F 317505                BF        A.7, ??TestMyCode_277  ;; 5 cycles
   \   000822                       ; ------------------------------------- Block: 7 cycles
   \   000822 30FFFF                MOVW      AX, #0xFFFF        ;; 1 cycle
   \   000825 EF08                  BR        S:??TestMyCode_278  ;; 3 cycles
   \   000827                       ; ------------------------------------- Block: 4 cycles
   \                     ??TestMyCode_277:
   \   000827 7C80                  XOR       A, #0x80           ;; 1 cycle
   \   000829 440180                CMPW      AX, #0x8001        ;; 1 cycle
   \   00082C DC03                  BC        ??TestMyCode_279   ;; 4 cycles
   \   00082E                       ; ------------------------------------- Block: 6 cycles
   \   00082E E6                    ONEW      AX                 ;; 1 cycle
   \   00082F                       ; ------------------------------------- Block: 1 cycles
   \                     ??TestMyCode_278:
   \   00082F B818                  MOVW      [SP+0x18], AX      ;; 1 cycle
   \   000831                       ; ------------------------------------- Block: 1 cycles
   \                     ??TestMyCode_279:
   \   000831 F6                    CLRW      AX                 ;; 1 cycle
   \   000832 B814                  MOVW      [SP+0x14], AX      ;; 1 cycle
   \   000834                       ; ------------------------------------- Block: 2 cycles
   \                     ??TestMyCode_275:
   \   000834 A802                  MOVW      AX, [SP+0x02]      ;; 1 cycle
   \   000836 311F                  SARW      AX, 0x1            ;; 1 cycle
   \   000838 B80E                  MOVW      [SP+0x0E], AX      ;; 1 cycle
   \   00083A F6                    CLRW      AX                 ;; 1 cycle
   \   00083B B816                  MOVW      [SP+0x16], AX      ;; 1 cycle
   \   00083D A802                  MOVW      AX, [SP+0x02]      ;; 1 cycle
   \   00083F 317351                BT        A.7, ??TestMyCode_280  ;; 5 cycles
   \   000842                       ; ------------------------------------- Block: 11 cycles
   \                     ??TestMyCode_281:
   \   000842 A810                  MOVW      AX, [SP+0x10]      ;; 1 cycle
   \   000844 60                    MOV       A, X               ;; 1 cycle
   \   000845 73                    MOV       B, A               ;; 1 cycle
   \   000846 A812                  MOVW      AX, [SP+0x12]      ;; 1 cycle
   \   000848 340200                MOVW      DE, #0x2           ;; 1 cycle
   \   00084B E2                    ONEB      C                  ;; 1 cycle
   \   00084C 60                    MOV       A, X               ;; 1 cycle
   \   00084D FD....                CALL      FBG_SetPixel       ;; 3 cycles
   \   000850 A80C                  MOVW      AX, [SP+0x0C]      ;; 1 cycle
   \   000852 16                    MOVW      HL, AX             ;; 1 cycle
   \   000853 A80E                  MOVW      AX, [SP+0x0E]      ;; 1 cycle
   \   000855 07                    ADDW      AX, HL             ;; 1 cycle
   \   000856 B80E                  MOVW      [SP+0x0E], AX      ;; 1 cycle
   \   000858 A802                  MOVW      AX, [SP+0x02]      ;; 1 cycle
   \   00085A 12                    MOVW      BC, AX             ;; 1 cycle
   \   00085B A80E                  MOVW      AX, [SP+0x0E]      ;; 1 cycle
   \   00085D FD....                CALL      N:?SI_CMP_L02      ;; 3 cycles
   \   000860 DC14                  BC        ??TestMyCode_282   ;; 4 cycles
   \   000862                       ; ------------------------------------- Block: 25 cycles
   \   000862 A802                  MOVW      AX, [SP+0x02]      ;; 1 cycle
   \   000864 16                    MOVW      HL, AX             ;; 1 cycle
   \   000865 A80E                  MOVW      AX, [SP+0x0E]      ;; 1 cycle
   \   000867 27                    SUBW      AX, HL             ;; 1 cycle
   \   000868 B80E                  MOVW      [SP+0x0E], AX      ;; 1 cycle
   \   00086A A81C                  MOVW      AX, [SP+0x1C]      ;; 1 cycle
   \   00086C 16                    MOVW      HL, AX             ;; 1 cycle
   \   00086D A812                  MOVW      AX, [SP+0x12]      ;; 1 cycle
   \   00086F 07                    ADDW      AX, HL             ;; 1 cycle
   \   000870 B812                  MOVW      [SP+0x12], AX      ;; 1 cycle
   \   000872 A81A                  MOVW      AX, [SP+0x1A]      ;; 1 cycle
   \   000874 EF0A                  BR        S:??TestMyCode_283  ;; 3 cycles
   \   000876                       ; ------------------------------------- Block: 14 cycles
   \                     ??TestMyCode_282:
   \   000876 A814                  MOVW      AX, [SP+0x14]      ;; 1 cycle
   \   000878 16                    MOVW      HL, AX             ;; 1 cycle
   \   000879 A812                  MOVW      AX, [SP+0x12]      ;; 1 cycle
   \   00087B 07                    ADDW      AX, HL             ;; 1 cycle
   \   00087C B812                  MOVW      [SP+0x12], AX      ;; 1 cycle
   \   00087E A818                  MOVW      AX, [SP+0x18]      ;; 1 cycle
   \   000880                       ; ------------------------------------- Block: 6 cycles
   \                     ??TestMyCode_283:
   \   000880 16                    MOVW      HL, AX             ;; 1 cycle
   \   000881 A810                  MOVW      AX, [SP+0x10]      ;; 1 cycle
   \   000883 07                    ADDW      AX, HL             ;; 1 cycle
   \   000884 B810                  MOVW      [SP+0x10], AX      ;; 1 cycle
   \   000886 A816                  MOVW      AX, [SP+0x16]      ;; 1 cycle
   \   000888 A1                    INCW      AX                 ;; 1 cycle
   \   000889 B816                  MOVW      [SP+0x16], AX      ;; 1 cycle
   \   00088B 12                    MOVW      BC, AX             ;; 1 cycle
   \   00088C A802                  MOVW      AX, [SP+0x02]      ;; 1 cycle
   \   00088E FD....                CALL      N:?SI_CMP_L02      ;; 3 cycles
   \   000891 DEAF                  BNC       ??TestMyCode_281   ;; 4 cycles
   \   000893                       ; ------------------------------------- Block: 16 cycles
   \                     ??TestMyCode_280:
   \   000893 8808                  MOV       A, [SP+0x08]       ;; 1 cycle
   \   000895 76                    MOV       L, A               ;; 1 cycle
   \   000896 8804                  MOV       A, [SP+0x04]       ;; 1 cycle
   \   000898 5700                  MOV       H, #0x0            ;; 1 cycle
   \   00089A 70                    MOV       X, A               ;; 1 cycle
   \   00089B F1                    CLRB      A                  ;; 1 cycle
   \   00089C 27                    SUBW      AX, HL             ;; 1 cycle
   \   00089D 16                    MOVW      HL, AX             ;; 1 cycle
   \   00089E 8800                  MOV       A, [SP]            ;; 1 cycle
   \   0008A0 74                    MOV       E, A               ;; 1 cycle
   \   0008A1 8805                  MOV       A, [SP+0x05]       ;; 1 cycle
   \   0008A3 5500                  MOV       D, #0x0            ;; 1 cycle
   \   0008A5 70                    MOV       X, A               ;; 1 cycle
   \   0008A6 F1                    CLRB      A                  ;; 1 cycle
   \   0008A7 25                    SUBW      AX, DE             ;; 1 cycle
   \   0008A8 14                    MOVW      DE, AX             ;; 1 cycle
   \   0008A9 8808                  MOV       A, [SP+0x08]       ;; 1 cycle
   \   0008AB 70                    MOV       X, A               ;; 1 cycle
   \   0008AC F1                    CLRB      A                  ;; 1 cycle
   \   0008AD B812                  MOVW      [SP+0x12], AX      ;; 1 cycle
   \   0008AF 8800                  MOV       A, [SP]            ;; 1 cycle
   \   0008B1 70                    MOV       X, A               ;; 1 cycle
   \   0008B2 F1                    CLRB      A                  ;; 1 cycle
   \   0008B3 B810                  MOVW      [SP+0x10], AX      ;; 1 cycle
   \   0008B5 F6                    CLRW      AX                 ;; 1 cycle
   \   0008B6 B81C                  MOVW      [SP+0x1C], AX      ;; 1 cycle
   \   0008B8 B814                  MOVW      [SP+0x14], AX      ;; 1 cycle
   \   0008BA B81A                  MOVW      [SP+0x1A], AX      ;; 1 cycle
   \   0008BC B818                  MOVW      [SP+0x18], AX      ;; 1 cycle
   \   0008BE 17                    MOVW      AX, HL             ;; 1 cycle
   \   0008BF 317505                BF        A.7, ??TestMyCode_284  ;; 5 cycles
   \   0008C2                       ; ------------------------------------- Block: 35 cycles
   \   0008C2 30FFFF                MOVW      AX, #0xFFFF        ;; 1 cycle
   \   0008C5 EF08                  BR        S:??TestMyCode_285  ;; 3 cycles
   \   0008C7                       ; ------------------------------------- Block: 4 cycles
   \                     ??TestMyCode_284:
   \   0008C7 7C80                  XOR       A, #0x80           ;; 1 cycle
   \   0008C9 440180                CMPW      AX, #0x8001        ;; 1 cycle
   \   0008CC DC05                  BC        ??TestMyCode_286   ;; 4 cycles
   \   0008CE                       ; ------------------------------------- Block: 6 cycles
   \   0008CE E6                    ONEW      AX                 ;; 1 cycle
   \   0008CF                       ; ------------------------------------- Block: 1 cycles
   \                     ??TestMyCode_285:
   \   0008CF B81C                  MOVW      [SP+0x1C], AX      ;; 1 cycle
   \   0008D1 B814                  MOVW      [SP+0x14], AX      ;; 1 cycle
   \   0008D3                       ; ------------------------------------- Block: 2 cycles
   \                     ??TestMyCode_286:
   \   0008D3 15                    MOVW      AX, DE             ;; 1 cycle
   \   0008D4 317505                BF        A.7, ??TestMyCode_287  ;; 5 cycles
   \   0008D7                       ; ------------------------------------- Block: 6 cycles
   \   0008D7 30FFFF                MOVW      AX, #0xFFFF        ;; 1 cycle
   \   0008DA EF08                  BR        S:??TestMyCode_288  ;; 3 cycles
   \   0008DC                       ; ------------------------------------- Block: 4 cycles
   \                     ??TestMyCode_287:
   \   0008DC 7C80                  XOR       A, #0x80           ;; 1 cycle
   \   0008DE 440180                CMPW      AX, #0x8001        ;; 1 cycle
   \   0008E1 DC03                  BC        ??TestMyCode_289   ;; 4 cycles
   \   0008E3                       ; ------------------------------------- Block: 6 cycles
   \   0008E3 E6                    ONEW      AX                 ;; 1 cycle
   \   0008E4                       ; ------------------------------------- Block: 1 cycles
   \                     ??TestMyCode_288:
   \   0008E4 B81A                  MOVW      [SP+0x1A], AX      ;; 1 cycle
   \   0008E6                       ; ------------------------------------- Block: 1 cycles
   \                     ??TestMyCode_289:
   \   0008E6 17                    MOVW      AX, HL             ;; 1 cycle
   \   0008E7 317507                BF        A.7, ??TestMyCode_290  ;; 5 cycles
   \   0008EA                       ; ------------------------------------- Block: 6 cycles
   \   0008EA 7CFF                  XOR       A, #0xFF           ;; 1 cycle
   \   0008EC 08                    XCH       A, X               ;; 1 cycle
   \   0008ED 7CFF                  XOR       A, #0xFF           ;; 1 cycle
   \   0008EF 08                    XCH       A, X               ;; 1 cycle
   \   0008F0 A1                    INCW      AX                 ;; 1 cycle
   \   0008F1                       ; ------------------------------------- Block: 5 cycles
   \                     ??TestMyCode_290:
   \   0008F1 B802                  MOVW      [SP+0x02], AX      ;; 1 cycle
   \   0008F3 15                    MOVW      AX, DE             ;; 1 cycle
   \   0008F4 317507                BF        A.7, ??TestMyCode_291  ;; 5 cycles
   \   0008F7                       ; ------------------------------------- Block: 7 cycles
   \   0008F7 7CFF                  XOR       A, #0xFF           ;; 1 cycle
   \   0008F9 08                    XCH       A, X               ;; 1 cycle
   \   0008FA 7CFF                  XOR       A, #0xFF           ;; 1 cycle
   \   0008FC 08                    XCH       A, X               ;; 1 cycle
   \   0008FD A1                    INCW      AX                 ;; 1 cycle
   \   0008FE                       ; ------------------------------------- Block: 5 cycles
   \                     ??TestMyCode_291:
   \   0008FE B80C                  MOVW      [SP+0x0C], AX      ;; 1 cycle
   \   000900 A802                  MOVW      AX, [SP+0x02]      ;; 1 cycle
   \   000902 12                    MOVW      BC, AX             ;; 1 cycle
   \   000903 A80C                  MOVW      AX, [SP+0x0C]      ;; 1 cycle
   \   000905 FD....                CALL      N:?SI_CMP_L02      ;; 3 cycles
   \   000908 DC25                  BC        ??TestMyCode_292   ;; 4 cycles
   \   00090A                       ; ------------------------------------- Block: 11 cycles
   \   00090A B802                  MOVW      [SP+0x02], AX      ;; 1 cycle
   \   00090C 17                    MOVW      AX, HL             ;; 1 cycle
   \   00090D 317507                BF        A.7, ??TestMyCode_293  ;; 5 cycles
   \   000910                       ; ------------------------------------- Block: 7 cycles
   \   000910 7CFF                  XOR       A, #0xFF           ;; 1 cycle
   \   000912 08                    XCH       A, X               ;; 1 cycle
   \   000913 7CFF                  XOR       A, #0xFF           ;; 1 cycle
   \   000915 08                    XCH       A, X               ;; 1 cycle
   \   000916 A1                    INCW      AX                 ;; 1 cycle
   \   000917                       ; ------------------------------------- Block: 5 cycles
   \                     ??TestMyCode_293:
   \   000917 B80C                  MOVW      [SP+0x0C], AX      ;; 1 cycle
   \   000919 15                    MOVW      AX, DE             ;; 1 cycle
   \   00091A 317505                BF        A.7, ??TestMyCode_294  ;; 5 cycles
   \   00091D                       ; ------------------------------------- Block: 7 cycles
   \   00091D 30FFFF                MOVW      AX, #0xFFFF        ;; 1 cycle
   \   000920 EF08                  BR        S:??TestMyCode_295  ;; 3 cycles
   \   000922                       ; ------------------------------------- Block: 4 cycles
   \                     ??TestMyCode_294:
   \   000922 7C80                  XOR       A, #0x80           ;; 1 cycle
   \   000924 440180                CMPW      AX, #0x8001        ;; 1 cycle
   \   000927 DC03                  BC        ??TestMyCode_296   ;; 4 cycles
   \   000929                       ; ------------------------------------- Block: 6 cycles
   \   000929 E6                    ONEW      AX                 ;; 1 cycle
   \   00092A                       ; ------------------------------------- Block: 1 cycles
   \                     ??TestMyCode_295:
   \   00092A B818                  MOVW      [SP+0x18], AX      ;; 1 cycle
   \   00092C                       ; ------------------------------------- Block: 1 cycles
   \                     ??TestMyCode_296:
   \   00092C F6                    CLRW      AX                 ;; 1 cycle
   \   00092D B814                  MOVW      [SP+0x14], AX      ;; 1 cycle
   \   00092F                       ; ------------------------------------- Block: 2 cycles
   \                     ??TestMyCode_292:
   \   00092F A802                  MOVW      AX, [SP+0x02]      ;; 1 cycle
   \   000931 311F                  SARW      AX, 0x1            ;; 1 cycle
   \   000933 B80E                  MOVW      [SP+0x0E], AX      ;; 1 cycle
   \   000935 F6                    CLRW      AX                 ;; 1 cycle
   \   000936 B816                  MOVW      [SP+0x16], AX      ;; 1 cycle
   \   000938 A802                  MOVW      AX, [SP+0x02]      ;; 1 cycle
   \   00093A 317351                BT        A.7, ??TestMyCode_297  ;; 5 cycles
   \   00093D                       ; ------------------------------------- Block: 11 cycles
   \                     ??TestMyCode_298:
   \   00093D A810                  MOVW      AX, [SP+0x10]      ;; 1 cycle
   \   00093F 60                    MOV       A, X               ;; 1 cycle
   \   000940 73                    MOV       B, A               ;; 1 cycle
   \   000941 A812                  MOVW      AX, [SP+0x12]      ;; 1 cycle
   \   000943 340200                MOVW      DE, #0x2           ;; 1 cycle
   \   000946 E2                    ONEB      C                  ;; 1 cycle
   \   000947 60                    MOV       A, X               ;; 1 cycle
   \   000948 FD....                CALL      FBG_SetPixel       ;; 3 cycles
   \   00094B A80C                  MOVW      AX, [SP+0x0C]      ;; 1 cycle
   \   00094D 16                    MOVW      HL, AX             ;; 1 cycle
   \   00094E A80E                  MOVW      AX, [SP+0x0E]      ;; 1 cycle
   \   000950 07                    ADDW      AX, HL             ;; 1 cycle
   \   000951 B80E                  MOVW      [SP+0x0E], AX      ;; 1 cycle
   \   000953 A802                  MOVW      AX, [SP+0x02]      ;; 1 cycle
   \   000955 12                    MOVW      BC, AX             ;; 1 cycle
   \   000956 A80E                  MOVW      AX, [SP+0x0E]      ;; 1 cycle
   \   000958 FD....                CALL      N:?SI_CMP_L02      ;; 3 cycles
   \   00095B DC14                  BC        ??TestMyCode_299   ;; 4 cycles
   \   00095D                       ; ------------------------------------- Block: 25 cycles
   \   00095D A802                  MOVW      AX, [SP+0x02]      ;; 1 cycle
   \   00095F 16                    MOVW      HL, AX             ;; 1 cycle
   \   000960 A80E                  MOVW      AX, [SP+0x0E]      ;; 1 cycle
   \   000962 27                    SUBW      AX, HL             ;; 1 cycle
   \   000963 B80E                  MOVW      [SP+0x0E], AX      ;; 1 cycle
   \   000965 A81C                  MOVW      AX, [SP+0x1C]      ;; 1 cycle
   \   000967 16                    MOVW      HL, AX             ;; 1 cycle
   \   000968 A812                  MOVW      AX, [SP+0x12]      ;; 1 cycle
   \   00096A 07                    ADDW      AX, HL             ;; 1 cycle
   \   00096B B812                  MOVW      [SP+0x12], AX      ;; 1 cycle
   \   00096D A81A                  MOVW      AX, [SP+0x1A]      ;; 1 cycle
   \   00096F EF0A                  BR        S:??TestMyCode_300  ;; 3 cycles
   \   000971                       ; ------------------------------------- Block: 14 cycles
   \                     ??TestMyCode_299:
   \   000971 A814                  MOVW      AX, [SP+0x14]      ;; 1 cycle
   \   000973 16                    MOVW      HL, AX             ;; 1 cycle
   \   000974 A812                  MOVW      AX, [SP+0x12]      ;; 1 cycle
   \   000976 07                    ADDW      AX, HL             ;; 1 cycle
   \   000977 B812                  MOVW      [SP+0x12], AX      ;; 1 cycle
   \   000979 A818                  MOVW      AX, [SP+0x18]      ;; 1 cycle
   \   00097B                       ; ------------------------------------- Block: 6 cycles
   \                     ??TestMyCode_300:
   \   00097B 16                    MOVW      HL, AX             ;; 1 cycle
   \   00097C A810                  MOVW      AX, [SP+0x10]      ;; 1 cycle
   \   00097E 07                    ADDW      AX, HL             ;; 1 cycle
   \   00097F B810                  MOVW      [SP+0x10], AX      ;; 1 cycle
   \   000981 A816                  MOVW      AX, [SP+0x16]      ;; 1 cycle
   \   000983 A1                    INCW      AX                 ;; 1 cycle
   \   000984 B816                  MOVW      [SP+0x16], AX      ;; 1 cycle
   \   000986 12                    MOVW      BC, AX             ;; 1 cycle
   \   000987 A802                  MOVW      AX, [SP+0x02]      ;; 1 cycle
   \   000989 FD....                CALL      N:?SI_CMP_L02      ;; 3 cycles
   \   00098C DEAF                  BNC       ??TestMyCode_298   ;; 4 cycles
   \   00098E                       ; ------------------------------------- Block: 16 cycles
   \                     ??TestMyCode_297:
   \   00098E 8808                  MOV       A, [SP+0x08]       ;; 1 cycle
   \   000990 76                    MOV       L, A               ;; 1 cycle
   \   000991 8806                  MOV       A, [SP+0x06]       ;; 1 cycle
   \   000993 5700                  MOV       H, #0x0            ;; 1 cycle
   \   000995 70                    MOV       X, A               ;; 1 cycle
   \   000996 F1                    CLRB      A                  ;; 1 cycle
   \   000997 27                    SUBW      AX, HL             ;; 1 cycle
   \   000998 16                    MOVW      HL, AX             ;; 1 cycle
   \   000999 8800                  MOV       A, [SP]            ;; 1 cycle
   \   00099B 74                    MOV       E, A               ;; 1 cycle
   \   00099C 8807                  MOV       A, [SP+0x07]       ;; 1 cycle
   \   00099E 5500                  MOV       D, #0x0            ;; 1 cycle
   \   0009A0 70                    MOV       X, A               ;; 1 cycle
   \   0009A1 F1                    CLRB      A                  ;; 1 cycle
   \   0009A2 25                    SUBW      AX, DE             ;; 1 cycle
   \   0009A3 14                    MOVW      DE, AX             ;; 1 cycle
   \   0009A4 8808                  MOV       A, [SP+0x08]       ;; 1 cycle
   \   0009A6 70                    MOV       X, A               ;; 1 cycle
   \   0009A7 F1                    CLRB      A                  ;; 1 cycle
   \   0009A8 B810                  MOVW      [SP+0x10], AX      ;; 1 cycle
   \   0009AA 8800                  MOV       A, [SP]            ;; 1 cycle
   \   0009AC 70                    MOV       X, A               ;; 1 cycle
   \   0009AD F1                    CLRB      A                  ;; 1 cycle
   \   0009AE B80E                  MOVW      [SP+0x0E], AX      ;; 1 cycle
   \   0009B0 F6                    CLRW      AX                 ;; 1 cycle
   \   0009B1 B81A                  MOVW      [SP+0x1A], AX      ;; 1 cycle
   \   0009B3 B812                  MOVW      [SP+0x12], AX      ;; 1 cycle
   \   0009B5 B818                  MOVW      [SP+0x18], AX      ;; 1 cycle
   \   0009B7 B816                  MOVW      [SP+0x16], AX      ;; 1 cycle
   \   0009B9 17                    MOVW      AX, HL             ;; 1 cycle
   \   0009BA 317505                BF        A.7, ??TestMyCode_301  ;; 5 cycles
   \   0009BD                       ; ------------------------------------- Block: 35 cycles
   \   0009BD 30FFFF                MOVW      AX, #0xFFFF        ;; 1 cycle
   \   0009C0 EF08                  BR        S:??TestMyCode_302  ;; 3 cycles
   \   0009C2                       ; ------------------------------------- Block: 4 cycles
   \                     ??TestMyCode_301:
   \   0009C2 7C80                  XOR       A, #0x80           ;; 1 cycle
   \   0009C4 440180                CMPW      AX, #0x8001        ;; 1 cycle
   \   0009C7 DC05                  BC        ??TestMyCode_303   ;; 4 cycles
   \   0009C9                       ; ------------------------------------- Block: 6 cycles
   \   0009C9 E6                    ONEW      AX                 ;; 1 cycle
   \   0009CA                       ; ------------------------------------- Block: 1 cycles
   \                     ??TestMyCode_302:
   \   0009CA B81A                  MOVW      [SP+0x1A], AX      ;; 1 cycle
   \   0009CC B812                  MOVW      [SP+0x12], AX      ;; 1 cycle
   \   0009CE                       ; ------------------------------------- Block: 2 cycles
   \                     ??TestMyCode_303:
   \   0009CE 15                    MOVW      AX, DE             ;; 1 cycle
   \   0009CF 317505                BF        A.7, ??TestMyCode_304  ;; 5 cycles
   \   0009D2                       ; ------------------------------------- Block: 6 cycles
   \   0009D2 30FFFF                MOVW      AX, #0xFFFF        ;; 1 cycle
   \   0009D5 EF08                  BR        S:??TestMyCode_305  ;; 3 cycles
   \   0009D7                       ; ------------------------------------- Block: 4 cycles
   \                     ??TestMyCode_304:
   \   0009D7 7C80                  XOR       A, #0x80           ;; 1 cycle
   \   0009D9 440180                CMPW      AX, #0x8001        ;; 1 cycle
   \   0009DC DC03                  BC        ??TestMyCode_306   ;; 4 cycles
   \   0009DE                       ; ------------------------------------- Block: 6 cycles
   \   0009DE E6                    ONEW      AX                 ;; 1 cycle
   \   0009DF                       ; ------------------------------------- Block: 1 cycles
   \                     ??TestMyCode_305:
   \   0009DF B818                  MOVW      [SP+0x18], AX      ;; 1 cycle
   \   0009E1                       ; ------------------------------------- Block: 1 cycles
   \                     ??TestMyCode_306:
   \   0009E1 17                    MOVW      AX, HL             ;; 1 cycle
   \   0009E2 317507                BF        A.7, ??TestMyCode_307  ;; 5 cycles
   \   0009E5                       ; ------------------------------------- Block: 6 cycles
   \   0009E5 7CFF                  XOR       A, #0xFF           ;; 1 cycle
   \   0009E7 08                    XCH       A, X               ;; 1 cycle
   \   0009E8 7CFF                  XOR       A, #0xFF           ;; 1 cycle
   \   0009EA 08                    XCH       A, X               ;; 1 cycle
   \   0009EB A1                    INCW      AX                 ;; 1 cycle
   \   0009EC                       ; ------------------------------------- Block: 5 cycles
   \                     ??TestMyCode_307:
   \   0009EC B800                  MOVW      [SP], AX           ;; 1 cycle
   \   0009EE 15                    MOVW      AX, DE             ;; 1 cycle
   \   0009EF 317507                BF        A.7, ??TestMyCode_308  ;; 5 cycles
   \   0009F2                       ; ------------------------------------- Block: 7 cycles
   \   0009F2 7CFF                  XOR       A, #0xFF           ;; 1 cycle
   \   0009F4 08                    XCH       A, X               ;; 1 cycle
   \   0009F5 7CFF                  XOR       A, #0xFF           ;; 1 cycle
   \   0009F7 08                    XCH       A, X               ;; 1 cycle
   \   0009F8 A1                    INCW      AX                 ;; 1 cycle
   \   0009F9                       ; ------------------------------------- Block: 5 cycles
   \                     ??TestMyCode_308:
   \   0009F9 B802                  MOVW      [SP+0x02], AX      ;; 1 cycle
   \   0009FB A800                  MOVW      AX, [SP]           ;; 1 cycle
   \   0009FD 12                    MOVW      BC, AX             ;; 1 cycle
   \   0009FE A802                  MOVW      AX, [SP+0x02]      ;; 1 cycle
   \   000A00 FD....                CALL      N:?SI_CMP_L02      ;; 3 cycles
   \   000A03 DC25                  BC        ??TestMyCode_309   ;; 4 cycles
   \   000A05                       ; ------------------------------------- Block: 11 cycles
   \   000A05 B800                  MOVW      [SP], AX           ;; 1 cycle
   \   000A07 17                    MOVW      AX, HL             ;; 1 cycle
   \   000A08 317507                BF        A.7, ??TestMyCode_310  ;; 5 cycles
   \   000A0B                       ; ------------------------------------- Block: 7 cycles
   \   000A0B 7CFF                  XOR       A, #0xFF           ;; 1 cycle
   \   000A0D 08                    XCH       A, X               ;; 1 cycle
   \   000A0E 7CFF                  XOR       A, #0xFF           ;; 1 cycle
   \   000A10 08                    XCH       A, X               ;; 1 cycle
   \   000A11 A1                    INCW      AX                 ;; 1 cycle
   \   000A12                       ; ------------------------------------- Block: 5 cycles
   \                     ??TestMyCode_310:
   \   000A12 B802                  MOVW      [SP+0x02], AX      ;; 1 cycle
   \   000A14 15                    MOVW      AX, DE             ;; 1 cycle
   \   000A15 317505                BF        A.7, ??TestMyCode_311  ;; 5 cycles
   \   000A18                       ; ------------------------------------- Block: 7 cycles
   \   000A18 30FFFF                MOVW      AX, #0xFFFF        ;; 1 cycle
   \   000A1B EF08                  BR        S:??TestMyCode_312  ;; 3 cycles
   \   000A1D                       ; ------------------------------------- Block: 4 cycles
   \                     ??TestMyCode_311:
   \   000A1D 7C80                  XOR       A, #0x80           ;; 1 cycle
   \   000A1F 440180                CMPW      AX, #0x8001        ;; 1 cycle
   \   000A22 DC03                  BC        ??TestMyCode_313   ;; 4 cycles
   \   000A24                       ; ------------------------------------- Block: 6 cycles
   \   000A24 E6                    ONEW      AX                 ;; 1 cycle
   \   000A25                       ; ------------------------------------- Block: 1 cycles
   \                     ??TestMyCode_312:
   \   000A25 B816                  MOVW      [SP+0x16], AX      ;; 1 cycle
   \   000A27                       ; ------------------------------------- Block: 1 cycles
   \                     ??TestMyCode_313:
   \   000A27 F6                    CLRW      AX                 ;; 1 cycle
   \   000A28 B812                  MOVW      [SP+0x12], AX      ;; 1 cycle
   \   000A2A                       ; ------------------------------------- Block: 2 cycles
   \                     ??TestMyCode_309:
   \   000A2A A800                  MOVW      AX, [SP]           ;; 1 cycle
   \   000A2C 311F                  SARW      AX, 0x1            ;; 1 cycle
   \   000A2E B80C                  MOVW      [SP+0x0C], AX      ;; 1 cycle
   \   000A30 F6                    CLRW      AX                 ;; 1 cycle
   \   000A31 B814                  MOVW      [SP+0x14], AX      ;; 1 cycle
   \   000A33 A800                  MOVW      AX, [SP]           ;; 1 cycle
   \   000A35 317351                BT        A.7, ??TestMyCode_314  ;; 5 cycles
   \   000A38                       ; ------------------------------------- Block: 11 cycles
   \                     ??TestMyCode_315:
   \   000A38 A80E                  MOVW      AX, [SP+0x0E]      ;; 1 cycle
   \   000A3A 60                    MOV       A, X               ;; 1 cycle
   \   000A3B 73                    MOV       B, A               ;; 1 cycle
   \   000A3C A810                  MOVW      AX, [SP+0x10]      ;; 1 cycle
   \   000A3E 340200                MOVW      DE, #0x2           ;; 1 cycle
   \   000A41 E2                    ONEB      C                  ;; 1 cycle
   \   000A42 60                    MOV       A, X               ;; 1 cycle
   \   000A43 FD....                CALL      FBG_SetPixel       ;; 3 cycles
   \   000A46 A802                  MOVW      AX, [SP+0x02]      ;; 1 cycle
   \   000A48 16                    MOVW      HL, AX             ;; 1 cycle
   \   000A49 A80C                  MOVW      AX, [SP+0x0C]      ;; 1 cycle
   \   000A4B 07                    ADDW      AX, HL             ;; 1 cycle
   \   000A4C B80C                  MOVW      [SP+0x0C], AX      ;; 1 cycle
   \   000A4E A800                  MOVW      AX, [SP]           ;; 1 cycle
   \   000A50 12                    MOVW      BC, AX             ;; 1 cycle
   \   000A51 A80C                  MOVW      AX, [SP+0x0C]      ;; 1 cycle
   \   000A53 FD....                CALL      N:?SI_CMP_L02      ;; 3 cycles
   \   000A56 DC14                  BC        ??TestMyCode_316   ;; 4 cycles
   \   000A58                       ; ------------------------------------- Block: 25 cycles
   \   000A58 A800                  MOVW      AX, [SP]           ;; 1 cycle
   \   000A5A 16                    MOVW      HL, AX             ;; 1 cycle
   \   000A5B A80C                  MOVW      AX, [SP+0x0C]      ;; 1 cycle
   \   000A5D 27                    SUBW      AX, HL             ;; 1 cycle
   \   000A5E B80C                  MOVW      [SP+0x0C], AX      ;; 1 cycle
   \   000A60 A81A                  MOVW      AX, [SP+0x1A]      ;; 1 cycle
   \   000A62 16                    MOVW      HL, AX             ;; 1 cycle
   \   000A63 A810                  MOVW      AX, [SP+0x10]      ;; 1 cycle
   \   000A65 07                    ADDW      AX, HL             ;; 1 cycle
   \   000A66 B810                  MOVW      [SP+0x10], AX      ;; 1 cycle
   \   000A68 A818                  MOVW      AX, [SP+0x18]      ;; 1 cycle
   \   000A6A EF0A                  BR        S:??TestMyCode_317  ;; 3 cycles
   \   000A6C                       ; ------------------------------------- Block: 14 cycles
   \                     ??TestMyCode_316:
   \   000A6C A812                  MOVW      AX, [SP+0x12]      ;; 1 cycle
   \   000A6E 16                    MOVW      HL, AX             ;; 1 cycle
   \   000A6F A810                  MOVW      AX, [SP+0x10]      ;; 1 cycle
   \   000A71 07                    ADDW      AX, HL             ;; 1 cycle
   \   000A72 B810                  MOVW      [SP+0x10], AX      ;; 1 cycle
   \   000A74 A816                  MOVW      AX, [SP+0x16]      ;; 1 cycle
   \   000A76                       ; ------------------------------------- Block: 6 cycles
   \                     ??TestMyCode_317:
   \   000A76 16                    MOVW      HL, AX             ;; 1 cycle
   \   000A77 A80E                  MOVW      AX, [SP+0x0E]      ;; 1 cycle
   \   000A79 07                    ADDW      AX, HL             ;; 1 cycle
   \   000A7A B80E                  MOVW      [SP+0x0E], AX      ;; 1 cycle
   \   000A7C A814                  MOVW      AX, [SP+0x14]      ;; 1 cycle
   \   000A7E A1                    INCW      AX                 ;; 1 cycle
   \   000A7F B814                  MOVW      [SP+0x14], AX      ;; 1 cycle
   \   000A81 12                    MOVW      BC, AX             ;; 1 cycle
   \   000A82 A800                  MOVW      AX, [SP]           ;; 1 cycle
   \   000A84 FD....                CALL      N:?SI_CMP_L02      ;; 3 cycles
   \   000A87 DEAF                  BNC       ??TestMyCode_315   ;; 4 cycles
   \   000A89                       ; ------------------------------------- Block: 16 cycles
   \                     ??TestMyCode_314:
   \   000A89 AEF8                  MOVW      AX, SP             ;; 1 cycle
   \   000A8B 040400                ADDW      AX, #0x4           ;; 1 cycle
   \   000A8E C1                    PUSH      AX                 ;; 1 cycle
   \   000A8F 16                    MOVW      HL, AX             ;; 1 cycle
   \   000A90 EBF8FF                MOVW      DE, SP             ;; 1 cycle
   \   000A93 320200                MOVW      BC, #0x2           ;; 1 cycle
   \   000A96 FD....                CALL      N:?MOVE_LONG_L06   ;; 3 cycles
   \   000A99 040200                ADDW      AX, #0x2           ;; 1 cycle
   \   000A9C A7                    INCW      HL                 ;; 1 cycle
   \   000A9D C1                    PUSH      AX                 ;; 1 cycle
   \   000A9E A7                    INCW      HL                 ;; 1 cycle
   \   000A9F EBF8FF                MOVW      DE, SP             ;; 1 cycle
   \   000AA2 FD....                CALL      N:?MOVE_LONG_L06   ;; 3 cycles
   \   000AA5 040400                ADDW      AX, #0x4           ;; 1 cycle
   \   000AA8 C1                    PUSH      AX                 ;; 1 cycle
   \   000AA9 16                    MOVW      HL, AX             ;; 1 cycle
   \   000AAA EBF8FF                MOVW      DE, SP             ;; 1 cycle
   \   000AAD FD....                CALL      N:?MOVE_LONG_L06   ;; 3 cycles
   \   000AB0 E1                    ONEB      A                  ;; 1 cycle
   \   000AB1 FD....                CALL      DrawNeedleFiller   ;; 3 cycles
   \   000AB4 AEF8                  MOVW      AX, SP             ;; 1 cycle
   \   000AB6 040800                ADDW      AX, #0x8           ;; 1 cycle
   \   000AB9 C1                    PUSH      AX                 ;; 1 cycle
   \   000ABA 16                    MOVW      HL, AX             ;; 1 cycle
   \   000ABB EBF8FF                MOVW      DE, SP             ;; 1 cycle
   \   000ABE FD....                CALL      N:?MOVE_LONG_L06   ;; 3 cycles
   \   000AC1 04FCFF                ADDW      AX, #0xFFFC        ;; 1 cycle
   \   000AC4 C1                    PUSH      AX                 ;; 1 cycle
   \   000AC5 16                    MOVW      HL, AX             ;; 1 cycle
   \   000AC6 EBF8FF                MOVW      DE, SP             ;; 1 cycle
   \   000AC9 FD....                CALL      N:?MOVE_LONG_L06   ;; 3 cycles
   \   000ACC 040200                ADDW      AX, #0x2           ;; 1 cycle
   \   000ACF A7                    INCW      HL                 ;; 1 cycle
   \   000AD0 C1                    PUSH      AX                 ;; 1 cycle
   \   000AD1 A7                    INCW      HL                 ;; 1 cycle
   \   000AD2 EBF8FF                MOVW      DE, SP             ;; 1 cycle
   \   000AD5 FD....                CALL      N:?MOVE_LONG_L06   ;; 3 cycles
   \   000AD8 E1                    ONEB      A                  ;; 1 cycle
   \   000AD9 FD....                CALL      DrawNeedleFiller   ;; 3 cycles
    342              FBG_RefreshLCD_FG();
   \   000ADC FD....                CALL      FBG_RefreshLCD_FG  ;; 3 cycles
    343            }
   \   000ADF 30CC3D                MOVW      AX, #0x3DCC        ;; 1 cycle
   \   000AE2 C1                    PUSH      AX                 ;; 1 cycle
   \   000AE3 30CDCC                MOVW      AX, #0xCCCD        ;; 1 cycle
   \   000AE6 C1                    PUSH      AX                 ;; 1 cycle
   \   000AE7 A824                  MOVW      AX, [SP+0x24]      ;; 1 cycle
   \   000AE9 12                    MOVW      BC, AX             ;; 1 cycle
   \   000AEA A822                  MOVW      AX, [SP+0x22]      ;; 1 cycle
   \   000AEC FD....                CALL      N:?F_ADD           ;; 3 cycles
   \   000AEF 1004                  ADDW      SP, #0x4           ;; 1 cycle
   \   000AF1 16                    MOVW      HL, AX             ;; 1 cycle
   \   000AF2 B81E                  MOVW      [SP+0x1E], AX      ;; 1 cycle
   \   000AF4 13                    MOVW      AX, BC             ;; 1 cycle
   \   000AF5 B820                  MOVW      [SP+0x20], AX      ;; 1 cycle
   \   000AF7 302041                MOVW      AX, #0x4120        ;; 1 cycle
   \   000AFA C1                    PUSH      AX                 ;; 1 cycle
   \   000AFB F6                    CLRW      AX                 ;; 1 cycle
   \   000AFC C1                    PUSH      AX                 ;; 1 cycle
   \   000AFD 17                    MOVW      AX, HL             ;; 1 cycle
   \   000AFE FD....                CALL      N:?FCMP_LT         ;; 3 cycles
   \   000B01 1004                  ADDW      SP, #0x4           ;; 1 cycle
   \   000B03 61D8                  SKNC                         ;; 4 cycles
   \   000B05 ED....                BR        N:??TestMyCode_217  ;; 4 cycles
   \   000B08                       ; ------------------------------------- Block: 86 cycles
    344          }
   \   000B08 1032                  ADDW      SP, #0x32          ;; 1 cycle
   \   000B0A C4                    POP       DE                 ;; 1 cycle
   \   000B0B C2                    POP       BC                 ;; 1 cycle
   \   000B0C D7                    RET                          ;; 6 cycles
   \   000B0D                       ; ------------------------------------- Block: 9 cycles
   \   000B0D                       ; ------------------------------------- Total: 2121 cycles
   \   000B0D                       REQUIRE ?CLRL78_V1_0_L00

   Maximum stack usage in bytes:

   CSTACK Function
   ------ --------
     42   DrawNeedleFiller
       36   -> FBG_SetPixel
     40   LCDDrawDialBackground
       28   -> FBG_SetPixel
       32   -> FBG_SetPixel
     58   LCDDrawDialNeedle
       52   -> DrawNeedleFiller
       46   -> FBG_SetPixel
     28   LCDDrawLine
       26   -> FBG_SetPixel
     30   LCDDrawLineSteps
       26   -> FBG_SetPixel
     66   TestMyCode
       60   -> DrawNeedleFiller
       54   -> FBG_InitFB
       54   -> FBG_RefreshLCD_BG
       54   -> FBG_RefreshLCD_FG
       54   -> FBG_SetPixel
       54   -> LCDDrawDialBackground
     12   taylor_cos
     12   taylor_sin


   Segment part sizes:

   Bytes  Function/Label
   -----  --------------
    1165  DrawNeedleFiller
     956  LCDDrawDialBackground
    2768  LCDDrawDialNeedle
     268  LCDDrawLine
     273  LCDDrawLineSteps
    2829  TestMyCode
     115  taylor_cos
     173  taylor_sin

 
 8 547 bytes in segment CODE
 
 8 547 bytes of CODE memory

Errors: none
Warnings: 10
