###############################################################################
#                                                                             #
# IAR C/C++ Compiler V1.30.5.50715 for RL78             17/Apr/2014  11:25:50 #
# Copyright 2011-2013 IAR Systems AB.                                         #
# Network license: ece-lic-19.ece.ncsu.edu (STD)                              #
#                                                                             #
#    Core         =  rl78_2                                                   #
#    Code model   =  Near                                                     #
#    Data model   =  Near                                                     #
#                 =                                                           #
#    Source file  =  D:\NCSU\Courses\ECE 561 Embedded System Design\Project   #
#                    3\Project3\Project3\Project3Code\Glyph\Drivers\ST7579_LC #
#                    D.c                                                      #
#    Command line =  "D:\NCSU\Courses\ECE 561 Embedded System Design\Project  #
#                    3\Project3\Project3\Project3Code\Glyph\Drivers\ST7579_LC #
#                    D.c" --core rl78_2 --code_model near --data_model near   #
#                    --near_const_location rom0 -o "D:\NCSU\Courses\ECE 561   #
#                    Embedded System Design\Project                           #
#                    3\Project3\Project3\Project3Code\Debug\Obj\"             #
#                    --dlib_config "C:\Program Files (x86)\IAR                #
#                    Systems\Embedded Workbench 6.5\rl78\LIB\dlrl78nn2n.h"    #
#                    -e -Ohs --no_crosscall --debug -lCN                      #
#                    "D:\NCSU\Courses\ECE 561 Embedded System Design\Project  #
#                    3\Project3\Project3\Project3Code\Debug\List\" -I         #
#                    "D:\NCSU\Courses\ECE 561 Embedded System Design\Project  #
#                    3\Project3\Project3\Project3Code/applilet3_src/\" -I     #
#                    "D:\NCSU\Courses\ECE 561 Embedded System Design\Project  #
#                    3\Project3\Project3\Project3Code/Glyph/\" -I             #
#                    "D:\NCSU\Courses\ECE 561 Embedded System Design\Project  #
#                    3\Project3\Project3\Project3Code/Glyph/Drivers/\" -I     #
#                    "D:\NCSU\Courses\ECE 561 Embedded System Design\Project  #
#                    3\Project3\Project3\Project3Code/user_include/\" -I      #
#                    "D:\NCSU\Courses\ECE 561 Embedded System Design\Project  #
#                    3\Project3\Project3\Project3Code/RTC/\"                  #
#                    --no_size_constraints                                    #
#    List file    =  D:\NCSU\Courses\ECE 561 Embedded System Design\Project   #
#                    3\Project3\Project3\Project3Code\Debug\List\ST7579_LCD.l #
#                    st                                                       #
#    Object file  =  D:\NCSU\Courses\ECE 561 Embedded System Design\Project   #
#                    3\Project3\Project3\Project3Code\Debug\Obj\ST7579_LCD.r8 #
#                    7                                                        #
#                                                                             #
#                                                                             #
###############################################################################

D:\NCSU\Courses\ECE 561 Embedded System Design\Project 3\Project3\Project3\Project3Code\Glyph\Drivers\ST7579_LCD.c
      1          /******************************************************************************
      2          * DISCLAIMER
      3          * This software is supplied by Renesas Electronics Corporation and is only
      4          * intended for use with Renesas products. No other uses are authorized.
      5          * This software is owned by Renesas Electronics Corporation and is protected under
      6          * all applicable laws, including copyright laws.
      7          * THIS SOFTWARE IS PROVIDED "AS IS" AND RENESAS MAKES NO WARRANTIES
      8          * REGARDING THIS SOFTWARE, WHETHER EXPRESS, IMPLIED OR STATUTORY,
      9          * INCLUDING BUT NOT LIMITED TO WARRANTIES OF MERCHANTABILITY, FITNESS FOR A
     10          * PARTICULAR PURPOSE AND NON-INFRINGEMENT. ALL SUCH WARRANTIES ARE EXPRESSLY
     11          * DISCLAIMED.
     12          * TO THE MAXIMUM EXTENT PERMITTED NOT PROHIBITED BY LAW, NEITHER RENESAS
     13          * ELECTRONICS CORPORATION NOR ANY OF ITS AFFILIATED COMPANIES SHALL BE LIABLE
     14          * FOR ANY DIRECT, INDIRECT, SPECIAL, INCIDENTAL OR CONSEQUENTIAL DAMAGES
     15          * FOR ANY REASON RELATED TO THIS SOFTWARE, EVEN IF RENESAS OR ITS
     16          * AFFILIATES HAVE BEEN ADVISED OF THE POSSIBILITY OF SUCH DAMAGES.
     17          * Renesas reserves the right, without notice, to make changes to this
     18          * software and to discontinue the availability of this software.
     19          * By using this software, you agree to the additional terms and
     20          * conditions found by accessing the following link:
     21          * http://www.renesas.com/disclaimer
     22          ******************************************************************************/
     23          /* Copyright (C) 2010 Renesas Electronics Corporation. All rights reserved. */
     24          /* Code written for Renesas by Future Designs, Inc. www.teamfdi.com */
     25          
     26          /******************************************************************************
     27          * File Name : ST7579_LCD.c
     28          * Version : 1.00
     29          * Device(s) : ST7579 LCD Controller
     30          * Tool-Chain : Glyph - The Generic API for Graphics LCD API version 1.00
     31          * H/W Platform : RX62N Group
     32          * Description : A collection of functions used to operate an OKAYA 96x64
     33          *               LCD display with the ST7579 controller chip.
     34          *               (Okaya Graphic LCD P/N  SE9664WRF-004-I02Q uses ST7579 driver IC)
     35          * Communications Required: 3-Wire SPI with a 4th Wire independent
     36          *                          Transmit Only
     37          ******************************************************************************
     38          * History :
     39          * : 21.07.2010 1.00 First Release
     40          ******************************************************************************/
     41          
     42          /******************************************************************************
     43          Includes “ST7579 Includes”
     44          ******************************************************************************/
     45          #include "ST7579_LCD.h"
     46          #include "glyph_api.h"
     47          #include "lcd.h"
     48          
     49          /******************************************************************************
     50          * ID : 30.0
     51          * Outline : ST7579_Open
     52          * Include : ST7579_LCD.h
     53          * Function Name: ST7579_Open
     54          * Description : Assign values to the handle variables and configure LCD.
     55          * Argument : aHandle - the Glyph handle to setup for the LCD.
     56          *          : aAddress - may be used for some communications.
     57          * Return Value : 0=success, not 0= error
     58          * Calling Functions : GlyphOpen
     59          ******************************************************************************/

   \                                 In  segment CODE, align 1, keep-with-next
     60          T_glyphError ST7579_Open(T_glyphHandle aHandle, uint16_t aAddress)
   \                     ST7579_Open:
     61          {
   \   000000 16                    MOVW      HL, AX             ;; 1 cycle
   \   000001 C5                    PUSH      DE                 ;; 1 cycle
   \   000002 C1                    PUSH      AX                 ;; 1 cycle
     62              T_glyphWorkspace *p_gw = (T_glyphWorkspace *)aHandle;
     63          
     64              p_gw->iLCDAPI->iAddress = aAddress;
   \   000003 AB                    MOVW      AX, [HL]           ;; 1 cycle
   \   000004 2004                  SUBW      SP, #0x4           ;; 1 cycle
   \   000006 16                    MOVW      HL, AX             ;; 1 cycle
   \   000007 13                    MOVW      AX, BC             ;; 1 cycle
   \   000008 BC16                  MOVW      [HL+0x16], AX      ;; 1 cycle
     65          
     66              p_gw->iLCDAPI->iFont = USE_DEFAULT_FONT ;
   \   00000A A804                  MOVW      AX, [SP+0x04]      ;; 1 cycle
   \   00000C 16                    MOVW      HL, AX             ;; 1 cycle
   \   00000D 34....                MOVW      DE, #Font8x8_table  ;; 1 cycle
   \   000010 AB                    MOVW      AX, [HL]           ;; 1 cycle
   \   000011 16                    MOVW      HL, AX             ;; 1 cycle
   \   000012 15                    MOVW      AX, DE             ;; 1 cycle
   \   000013 BB                    MOVW      [HL], AX           ;; 1 cycle
     67          
     68              /* FP_STATUS */
     69              p_gw->iLCDAPI->iStatusRegister = 0x01 ;
   \   000014 A804                  MOVW      AX, [SP+0x04]      ;; 1 cycle
   \   000016 16                    MOVW      HL, AX             ;; 1 cycle
   \   000017 AB                    MOVW      AX, [HL]           ;; 1 cycle
   \   000018 16                    MOVW      HL, AX             ;; 1 cycle
   \   000019 E6                    ONEW      AX                 ;; 1 cycle
   \   00001A BC14                  MOVW      [HL+0x14], AX      ;; 1 cycle
     70          
     71              p_gw->iLCDAPI->iFP_API_MAJOR_VERSION = 0x01 ;
   \   00001C A804                  MOVW      AX, [SP+0x04]      ;; 1 cycle
   \   00001E 16                    MOVW      HL, AX             ;; 1 cycle
   \   00001F AB                    MOVW      AX, [HL]           ;; 1 cycle
   \   000020 16                    MOVW      HL, AX             ;; 1 cycle
   \   000021 E1                    ONEB      A                  ;; 1 cycle
   \   000022 9C0B                  MOV       [HL+0x0B], A       ;; 1 cycle
     72              p_gw->iLCDAPI->iFP_API_MINOR_VERSION = 0x00 ;
   \   000024 A804                  MOVW      AX, [SP+0x04]      ;; 1 cycle
   \   000026 16                    MOVW      HL, AX             ;; 1 cycle
   \   000027 AB                    MOVW      AX, [HL]           ;; 1 cycle
   \   000028 16                    MOVW      HL, AX             ;; 1 cycle
   \   000029 F1                    CLRB      A                  ;; 1 cycle
   \   00002A 9C0C                  MOV       [HL+0x0C], A       ;; 1 cycle
     73              p_gw->iLCDAPI->iFP_IMPLEMENTATION_ID = 0x01 ;
   \   00002C A804                  MOVW      AX, [SP+0x04]      ;; 1 cycle
   \   00002E 16                    MOVW      HL, AX             ;; 1 cycle
   \   00002F AB                    MOVW      AX, [HL]           ;; 1 cycle
   \   000030 16                    MOVW      HL, AX             ;; 1 cycle
   \   000031 E1                    ONEB      A                  ;; 1 cycle
   \   000032 9C0D                  MOV       [HL+0x0D], A       ;; 1 cycle
     74              p_gw->iLCDAPI->iFP_IMPL_MAJOR_VERSION = VERSION_MAJOR ;
   \   000034 A804                  MOVW      AX, [SP+0x04]      ;; 1 cycle
   \   000036 16                    MOVW      HL, AX             ;; 1 cycle
   \   000037 AB                    MOVW      AX, [HL]           ;; 1 cycle
   \   000038 16                    MOVW      HL, AX             ;; 1 cycle
   \   000039 E1                    ONEB      A                  ;; 1 cycle
   \   00003A 9C0E                  MOV       [HL+0x0E], A       ;; 1 cycle
     75              p_gw->iLCDAPI->iFP_IMPL_MINOR_VERSION = VERSION_MINOR ;
   \   00003C A804                  MOVW      AX, [SP+0x04]      ;; 1 cycle
   \   00003E 16                    MOVW      HL, AX             ;; 1 cycle
   \   00003F AB                    MOVW      AX, [HL]           ;; 1 cycle
   \   000040 16                    MOVW      HL, AX             ;; 1 cycle
   \   000041 F1                    CLRB      A                  ;; 1 cycle
   \   000042 9C0F                  MOV       [HL+0x0F], A       ;; 1 cycle
     76              p_gw->iLCDAPI->iMAX_HEIGHT = 64 ;
   \   000044 A804                  MOVW      AX, [SP+0x04]      ;; 1 cycle
   \   000046 16                    MOVW      HL, AX             ;; 1 cycle
   \   000047 AB                    MOVW      AX, [HL]           ;; 1 cycle
   \   000048 16                    MOVW      HL, AX             ;; 1 cycle
   \   000049 304000                MOVW      AX, #0x40          ;; 1 cycle
   \   00004C BC10                  MOVW      [HL+0x10], AX      ;; 1 cycle
     77              p_gw->iLCDAPI->iMAX_WIDTH = 96 ;
   \   00004E A804                  MOVW      AX, [SP+0x04]      ;; 1 cycle
   \   000050 16                    MOVW      HL, AX             ;; 1 cycle
   \   000051 AB                    MOVW      AX, [HL]           ;; 1 cycle
   \   000052 16                    MOVW      HL, AX             ;; 1 cycle
   \   000053 306000                MOVW      AX, #0x60          ;; 1 cycle
   \   000056 BC12                  MOVW      [HL+0x12], AX      ;; 1 cycle
     78                      
     79              /* Set Default Contrast */
     80              p_gw->iLCDAPI->iContrast = 95 ;
   \   000058 A804                  MOVW      AX, [SP+0x04]      ;; 1 cycle
   \   00005A 16                    MOVW      HL, AX             ;; 1 cycle
   \   00005B AB                    MOVW      AX, [HL]           ;; 1 cycle
   \   00005C 16                    MOVW      HL, AX             ;; 1 cycle
   \   00005D 515F                  MOV       A, #0x5F           ;; 1 cycle
   \   00005F 9C18                  MOV       [HL+0x18], A       ;; 1 cycle
     81              p_gw->iLCDAPI->iContrastBoost = 5 ;
   \   000061 A804                  MOVW      AX, [SP+0x04]      ;; 1 cycle
   \   000063 16                    MOVW      HL, AX             ;; 1 cycle
   \   000064 AB                    MOVW      AX, [HL]           ;; 1 cycle
   \   000065 16                    MOVW      HL, AX             ;; 1 cycle
   \   000066 5105                  MOV       A, #0x5            ;; 1 cycle
   \   000068 9C19                  MOV       [HL+0x19], A       ;; 1 cycle
     82              p_gw->iLCDAPI->iFrameRate = 137 ;
   \   00006A A804                  MOVW      AX, [SP+0x04]      ;; 1 cycle
   \   00006C 16                    MOVW      HL, AX             ;; 1 cycle
   \   00006D AB                    MOVW      AX, [HL]           ;; 1 cycle
   \   00006E 16                    MOVW      HL, AX             ;; 1 cycle
   \   00006F 5189                  MOV       A, #0x89           ;; 1 cycle
   \   000071 9C1A                  MOV       [HL+0x1A], A       ;; 1 cycle
     83              
     84              /* Turn on the LCD commands */
     85              ST7579_Config(aHandle) ;
   \   000073 F6                    CLRW      AX                 ;; 1 cycle
   \   000074 B800                  MOVW      [SP], AX           ;; 1 cycle
   \   000076 A804                  MOVW      AX, [SP+0x04]      ;; 1 cycle
   \   000078 16                    MOVW      HL, AX             ;; 1 cycle
   \   000079 AB                    MOVW      AX, [HL]           ;; 1 cycle
   \   00007A 16                    MOVW      HL, AX             ;; 1 cycle
   \   00007B 8C19                  MOV       A, [HL+0x19]       ;; 1 cycle
   \   00007D 70                    MOV       X, A               ;; 1 cycle
   \   00007E 7C80                  XOR       A, #0x80           ;; 1 cycle
   \   000080 2C92                  SUB       A, #0x92           ;; 1 cycle
   \   000082 61C8                  SKC                          ;; 4 cycles
   \   000084 ED....                BR        N:??ST7579_SetLine_0  ;; 4 cycles
   \   000087                       ; ------------------------------------- Block: 95 cycles
   \   000087                       ; * Stack frame (at entry) *
   \   000087                       ; Param size: 0
   \   000087                       ; Auto size: 6
   \   000087 60                    MOV       A, X               ;; 1 cycle
   \   000088 D1                    CMP0      A                  ;; 1 cycle
   \   000089 DD75                  BZ        ??ST7579_SetLine_1  ;; 4 cycles
   \   00008B                       ; ------------------------------------- Block: 6 cycles
   \   00008B 91                    DEC       A                  ;; 1 cycle
   \   00008C DD64                  BZ        ??ST7579_SetLine_2  ;; 4 cycles
   \   00008E                       ; ------------------------------------- Block: 5 cycles
   \   00008E 91                    DEC       A                  ;; 1 cycle
   \   00008F DD47                  BZ        ??ST7579_SetLine_3  ;; 4 cycles
   \   000091                       ; ------------------------------------- Block: 5 cycles
   \   000091 91                    DEC       A                  ;; 1 cycle
   \   000092 DD68                  BZ        ??ST7579_SetLine_4  ;; 4 cycles
   \   000094                       ; ------------------------------------- Block: 5 cycles
   \   000094 91                    DEC       A                  ;; 1 cycle
   \   000095 DD57                  BZ        ??ST7579_SetLine_5  ;; 4 cycles
   \   000097                       ; ------------------------------------- Block: 5 cycles
   \   000097 91                    DEC       A                  ;; 1 cycle
   \   000098 DD3A                  BZ        ??ST7579_SetLine_6  ;; 4 cycles
   \   00009A                       ; ------------------------------------- Block: 5 cycles
   \   00009A 91                    DEC       A                  ;; 1 cycle
   \   00009B DD5B                  BZ        ??ST7579_SetLine_7  ;; 4 cycles
   \   00009D                       ; ------------------------------------- Block: 5 cycles
   \   00009D 91                    DEC       A                  ;; 1 cycle
   \   00009E DD4A                  BZ        ??ST7579_SetLine_8  ;; 4 cycles
   \   0000A0                       ; ------------------------------------- Block: 5 cycles
   \   0000A0 91                    DEC       A                  ;; 1 cycle
   \   0000A1 DD2D                  BZ        ??ST7579_SetLine_9  ;; 4 cycles
   \   0000A3                       ; ------------------------------------- Block: 5 cycles
   \   0000A3 2C02                  SUB       A, #0x2            ;; 1 cycle
   \   0000A5 DD3F                  BZ        ??ST7579_SetLine_10  ;; 4 cycles
   \   0000A7                       ; ------------------------------------- Block: 5 cycles
   \   0000A7 91                    DEC       A                  ;; 1 cycle
   \   0000A8 DD22                  BZ        ??ST7579_SetLine_11  ;; 4 cycles
   \   0000AA                       ; ------------------------------------- Block: 5 cycles
   \   0000AA 91                    DEC       A                  ;; 1 cycle
   \   0000AB DD35                  BZ        ??ST7579_SetLine_12  ;; 4 cycles
   \   0000AD                       ; ------------------------------------- Block: 5 cycles
   \   0000AD 91                    DEC       A                  ;; 1 cycle
   \   0000AE DD18                  BZ        ??ST7579_SetLine_13  ;; 4 cycles
   \   0000B0                       ; ------------------------------------- Block: 5 cycles
   \   0000B0 91                    DEC       A                  ;; 1 cycle
   \   0000B1 DD2B                  BZ        ??ST7579_SetLine_14  ;; 4 cycles
   \   0000B3                       ; ------------------------------------- Block: 5 cycles
   \   0000B3 91                    DEC       A                  ;; 1 cycle
   \   0000B4 DD0E                  BZ        ??ST7579_SetLine_15  ;; 4 cycles
   \   0000B6                       ; ------------------------------------- Block: 5 cycles
   \   0000B6 91                    DEC       A                  ;; 1 cycle
   \   0000B7 DD07                  BZ        ??ST7579_SetLine_16  ;; 4 cycles
   \   0000B9                       ; ------------------------------------- Block: 5 cycles
   \   0000B9 91                    DEC       A                  ;; 1 cycle
   \   0000BA DF48                  BNZ       ??ST7579_SetLine_17  ;; 4 cycles
   \   0000BC                       ; ------------------------------------- Block: 5 cycles
   \   0000BC 5210                  MOV       C, #0x10           ;; 1 cycle
   \   0000BE EF1A                  BR        S:??ST7579_SetLine_18  ;; 3 cycles
   \   0000C0                       ; ------------------------------------- Block: 4 cycles
   \                     ??ST7579_SetLine_16:
   \   0000C0 5211                  MOV       C, #0x11           ;; 1 cycle
   \   0000C2 EF16                  BR        S:??ST7579_SetLine_18  ;; 3 cycles
   \   0000C4                       ; ------------------------------------- Block: 4 cycles
   \                     ??ST7579_SetLine_15:
   \   0000C4 5212                  MOV       C, #0x12           ;; 1 cycle
   \   0000C6 EF12                  BR        S:??ST7579_SetLine_18  ;; 3 cycles
   \   0000C8                       ; ------------------------------------- Block: 4 cycles
   \                     ??ST7579_SetLine_13:
   \   0000C8 5213                  MOV       C, #0x13           ;; 1 cycle
   \   0000CA EF0E                  BR        S:??ST7579_SetLine_18  ;; 3 cycles
   \   0000CC                       ; ------------------------------------- Block: 4 cycles
   \                     ??ST7579_SetLine_11:
   \   0000CC 5214                  MOV       C, #0x14           ;; 1 cycle
   \   0000CE EF0A                  BR        S:??ST7579_SetLine_18  ;; 3 cycles
   \   0000D0                       ; ------------------------------------- Block: 4 cycles
   \                     ??ST7579_SetLine_9:
   \   0000D0 5215                  MOV       C, #0x15           ;; 1 cycle
   \   0000D2 EF06                  BR        S:??ST7579_SetLine_18  ;; 3 cycles
   \   0000D4                       ; ------------------------------------- Block: 4 cycles
   \                     ??ST7579_SetLine_6:
   \   0000D4 5216                  MOV       C, #0x16           ;; 1 cycle
   \   0000D6 EF02                  BR        S:??ST7579_SetLine_18  ;; 3 cycles
   \   0000D8                       ; ------------------------------------- Block: 4 cycles
   \                     ??ST7579_SetLine_3:
   \   0000D8 5217                  MOV       C, #0x17           ;; 1 cycle
   \   0000DA                       ; ------------------------------------- Block: 1 cycles
   \                     ??ST7579_SetLine_18:
   \   0000DA 539B                  MOV       B, #0x9B           ;; 1 cycle
   \   0000DC EF2A                  BR        S:??ST7579_SetLine_19  ;; 3 cycles
   \   0000DE                       ; ------------------------------------- Block: 4 cycles
   \                     ??ST7579_SetLine_14:
   \   0000DE 5212                  MOV       C, #0x12           ;; 1 cycle
   \   0000E0 EF12                  BR        S:??ST7579_SetLine_20  ;; 3 cycles
   \   0000E2                       ; ------------------------------------- Block: 4 cycles
   \                     ??ST7579_SetLine_12:
   \   0000E2 5213                  MOV       C, #0x13           ;; 1 cycle
   \   0000E4 EF0E                  BR        S:??ST7579_SetLine_20  ;; 3 cycles
   \   0000E6                       ; ------------------------------------- Block: 4 cycles
   \                     ??ST7579_SetLine_10:
   \   0000E6 5214                  MOV       C, #0x14           ;; 1 cycle
   \   0000E8 EF0A                  BR        S:??ST7579_SetLine_20  ;; 3 cycles
   \   0000EA                       ; ------------------------------------- Block: 4 cycles
   \                     ??ST7579_SetLine_8:
   \   0000EA 5215                  MOV       C, #0x15           ;; 1 cycle
   \   0000EC EF06                  BR        S:??ST7579_SetLine_20  ;; 3 cycles
   \   0000EE                       ; ------------------------------------- Block: 4 cycles
   \                     ??ST7579_SetLine_5:
   \   0000EE 5216                  MOV       C, #0x16           ;; 1 cycle
   \   0000F0 EF02                  BR        S:??ST7579_SetLine_20  ;; 3 cycles
   \   0000F2                       ; ------------------------------------- Block: 4 cycles
   \                     ??ST7579_SetLine_2:
   \   0000F2 5217                  MOV       C, #0x17           ;; 1 cycle
   \   0000F4                       ; ------------------------------------- Block: 1 cycles
   \                     ??ST7579_SetLine_20:
   \   0000F4 539A                  MOV       B, #0x9A           ;; 1 cycle
   \   0000F6 EF10                  BR        S:??ST7579_SetLine_19  ;; 3 cycles
   \   0000F8                       ; ------------------------------------- Block: 4 cycles
   \                     ??ST7579_SetLine_7:
   \   0000F8 5215                  MOV       C, #0x15           ;; 1 cycle
   \   0000FA EF0A                  BR        S:??ST7579_SetLine_21  ;; 3 cycles
   \   0000FC                       ; ------------------------------------- Block: 4 cycles
   \                     ??ST7579_SetLine_4:
   \   0000FC 5216                  MOV       C, #0x16           ;; 1 cycle
   \   0000FE EF06                  BR        S:??ST7579_SetLine_21  ;; 3 cycles
   \   000100                       ; ------------------------------------- Block: 4 cycles
   \                     ??ST7579_SetLine_1:
   \   000100 5217                  MOV       C, #0x17           ;; 1 cycle
   \   000102 EF02                  BR        S:??ST7579_SetLine_21  ;; 3 cycles
   \   000104                       ; ------------------------------------- Block: 4 cycles
   \                     ??ST7579_SetLine_17:
   \   000104 5214                  MOV       C, #0x14           ;; 1 cycle
   \   000106                       ; ------------------------------------- Block: 1 cycles
   \                     ??ST7579_SetLine_21:
   \   000106 5399                  MOV       B, #0x99           ;; 1 cycle
   \   000108                       ; ------------------------------------- Block: 1 cycles
   \                     ??ST7579_SetLine_19:
   \   000108 A804                  MOVW      AX, [SP+0x04]      ;; 1 cycle
   \   00010A 040200                ADDW      AX, #0x2           ;; 1 cycle
   \   00010D B800                  MOVW      [SP], AX           ;; 1 cycle
   \   00010F 5129                  MOV       A, #0x29           ;; 1 cycle
   \   000111 C1                    PUSH      AX                 ;; 1 cycle
   \   000112 CEFC00                MOV       CS, #0x0           ;; 1 cycle
   \   000115 A802                  MOVW      AX, [SP+0x02]      ;; 1 cycle
   \   000117 16                    MOVW      HL, AX             ;; 1 cycle
   \   000118 AB                    MOVW      AX, [HL]           ;; 1 cycle
   \   000119 16                    MOVW      HL, AX             ;; 1 cycle
   \   00011A AC02                  MOVW      AX, [HL+0x02]      ;; 1 cycle
   \   00011C 14                    MOVW      DE, AX             ;; 1 cycle
   \   00011D 8801                  MOV       A, [SP+0x01]       ;; 1 cycle
   \   00011F 1002                  ADDW      SP, #0x2           ;; 1 cycle
   \   000121 61EA                  CALL      DE                 ;; 3 cycles
   \   000123 62                    MOV       A, C               ;; 1 cycle
   \   000124 16                    MOVW      HL, AX             ;; 1 cycle
   \   000125 A800                  MOVW      AX, [SP]           ;; 1 cycle
   \   000127 37                    XCHW      AX, HL             ;; 1 cycle
   \   000128 14                    MOVW      DE, AX             ;; 1 cycle
   \   000129 AB                    MOVW      AX, [HL]           ;; 1 cycle
   \   00012A 35                    XCHW      AX, DE             ;; 1 cycle
   \   00012B C5                    PUSH      DE                 ;; 1 cycle
   \   00012C C6                    POP       HL                 ;; 1 cycle
   \   00012D 14                    MOVW      DE, AX             ;; 1 cycle
   \   00012E AC02                  MOVW      AX, [HL+0x02]      ;; 1 cycle
   \   000130 35                    XCHW      AX, DE             ;; 1 cycle
   \   000131 CEFC00                MOV       CS, #0x0           ;; 1 cycle
   \   000134 61EA                  CALL      DE                 ;; 3 cycles
   \   000136 512B                  MOV       A, #0x2B           ;; 1 cycle
   \   000138 16                    MOVW      HL, AX             ;; 1 cycle
   \   000139 A800                  MOVW      AX, [SP]           ;; 1 cycle
   \   00013B 37                    XCHW      AX, HL             ;; 1 cycle
   \   00013C 14                    MOVW      DE, AX             ;; 1 cycle
   \   00013D AB                    MOVW      AX, [HL]           ;; 1 cycle
   \   00013E 35                    XCHW      AX, DE             ;; 1 cycle
   \   00013F C5                    PUSH      DE                 ;; 1 cycle
   \   000140 C6                    POP       HL                 ;; 1 cycle
   \   000141 14                    MOVW      DE, AX             ;; 1 cycle
   \   000142 AC02                  MOVW      AX, [HL+0x02]      ;; 1 cycle
   \   000144 35                    XCHW      AX, DE             ;; 1 cycle
   \   000145 CEFC00                MOV       CS, #0x0           ;; 1 cycle
   \   000148 61EA                  CALL      DE                 ;; 3 cycles
   \   00014A A800                  MOVW      AX, [SP]           ;; 1 cycle
   \   00014C 16                    MOVW      HL, AX             ;; 1 cycle
   \   00014D CEFC00                MOV       CS, #0x0           ;; 1 cycle
   \   000150 AB                    MOVW      AX, [HL]           ;; 1 cycle
   \   000151 16                    MOVW      HL, AX             ;; 1 cycle
   \   000152 AC02                  MOVW      AX, [HL+0x02]      ;; 1 cycle
   \   000154 14                    MOVW      DE, AX             ;; 1 cycle
   \   000155 63                    MOV       A, B               ;; 1 cycle
   \   000156 61EA                  CALL      DE                 ;; 3 cycles
   \   000158                       ; ------------------------------------- Block: 60 cycles
   \                     ??ST7579_SetLine_0:
   \   000158 A804                  MOVW      AX, [SP+0x04]      ;; 1 cycle
   \   00015A 16                    MOVW      HL, AX             ;; 1 cycle
   \   00015B AB                    MOVW      AX, [HL]           ;; 1 cycle
   \   00015C 16                    MOVW      HL, AX             ;; 1 cycle
   \   00015D 8C18                  MOV       A, [HL+0x18]       ;; 1 cycle
   \   00015F 76                    MOV       L, A               ;; 1 cycle
   \   000160 81                    INC       A                  ;; 1 cycle
   \   000161 61F8                  SKNZ                         ;; 4 cycles
   \   000163 ED....                BR        N:??ST7579_SetLine_22  ;; 4 cycles
   \   000166                       ; ------------------------------------- Block: 11 cycles
   \   000166 F1                    CLRB      A                  ;; 1 cycle
   \   000167 9802                  MOV       [SP+0x02], A       ;; 1 cycle
   \   000169 66                    MOV       A, L               ;; 1 cycle
   \   00016A 4C80                  CMP       A, #0x80           ;; 1 cycle
   \   00016C DC0A                  BC        ??ST7579_SetLine_23  ;; 4 cycles
   \   00016E                       ; ------------------------------------- Block: 8 cycles
   \   00016E 0C81                  ADD       A, #0x81           ;; 1 cycle
   \   000170 6C80                  OR        A, #0x80           ;; 1 cycle
   \   000172 73                    MOV       B, A               ;; 1 cycle
   \   000173 E1                    ONEB      A                  ;; 1 cycle
   \   000174 9802                  MOV       [SP+0x02], A       ;; 1 cycle
   \   000176 EF03                  BR        S:??ST7579_SetLine_24  ;; 3 cycles
   \   000178                       ; ------------------------------------- Block: 8 cycles
   \                     ??ST7579_SetLine_23:
   \   000178 6C80                  OR        A, #0x80           ;; 1 cycle
   \   00017A 73                    MOV       B, A               ;; 1 cycle
   \   00017B                       ; ------------------------------------- Block: 2 cycles
   \                     ??ST7579_SetLine_24:
   \   00017B A804                  MOVW      AX, [SP+0x04]      ;; 1 cycle
   \   00017D 040200                ADDW      AX, #0x2           ;; 1 cycle
   \   000180 B800                  MOVW      [SP], AX           ;; 1 cycle
   \   000182 5128                  MOV       A, #0x28           ;; 1 cycle
   \   000184 16                    MOVW      HL, AX             ;; 1 cycle
   \   000185 A800                  MOVW      AX, [SP]           ;; 1 cycle
   \   000187 37                    XCHW      AX, HL             ;; 1 cycle
   \   000188 14                    MOVW      DE, AX             ;; 1 cycle
   \   000189 AB                    MOVW      AX, [HL]           ;; 1 cycle
   \   00018A 35                    XCHW      AX, DE             ;; 1 cycle
   \   00018B C5                    PUSH      DE                 ;; 1 cycle
   \   00018C C6                    POP       HL                 ;; 1 cycle
   \   00018D 14                    MOVW      DE, AX             ;; 1 cycle
   \   00018E AC02                  MOVW      AX, [HL+0x02]      ;; 1 cycle
   \   000190 35                    XCHW      AX, DE             ;; 1 cycle
   \   000191 CEFC00                MOV       CS, #0x0           ;; 1 cycle
   \   000194 61EA                  CALL      DE                 ;; 3 cycles
   \   000196 AEF8                  MOVW      AX, SP             ;; 1 cycle
   \   000198 040200                ADDW      AX, #0x2           ;; 1 cycle
   \   00019B 16                    MOVW      HL, AX             ;; 1 cycle
   \   00019C 318314                BT        [HL].0, ??ST7579_SetLine_25  ;; 5 cycles
   \   00019F                       ; ------------------------------------- Block: 27 cycles
   \   00019F 5104                  MOV       A, #0x4            ;; 1 cycle
   \   0001A1 16                    MOVW      HL, AX             ;; 1 cycle
   \   0001A2 A800                  MOVW      AX, [SP]           ;; 1 cycle
   \   0001A4 37                    XCHW      AX, HL             ;; 1 cycle
   \   0001A5 14                    MOVW      DE, AX             ;; 1 cycle
   \   0001A6 AB                    MOVW      AX, [HL]           ;; 1 cycle
   \   0001A7 35                    XCHW      AX, DE             ;; 1 cycle
   \   0001A8 C5                    PUSH      DE                 ;; 1 cycle
   \   0001A9 C6                    POP       HL                 ;; 1 cycle
   \   0001AA 14                    MOVW      DE, AX             ;; 1 cycle
   \   0001AB AC02                  MOVW      AX, [HL+0x02]      ;; 1 cycle
   \   0001AD 35                    XCHW      AX, DE             ;; 1 cycle
   \   0001AE CEFC00                MOV       CS, #0x0           ;; 1 cycle
   \   0001B1 61EA                  CALL      DE                 ;; 3 cycles
   \   0001B3                       ; ------------------------------------- Block: 16 cycles
   \                     ??ST7579_SetLine_25:
   \   0001B3 AEF8                  MOVW      AX, SP             ;; 1 cycle
   \   0001B5 040200                ADDW      AX, #0x2           ;; 1 cycle
   \   0001B8 16                    MOVW      HL, AX             ;; 1 cycle
   \   0001B9 318514                BF        [HL].0, ??ST7579_SetLine_26  ;; 5 cycles
   \   0001BC                       ; ------------------------------------- Block: 8 cycles
   \   0001BC 5105                  MOV       A, #0x5            ;; 1 cycle
   \   0001BE 16                    MOVW      HL, AX             ;; 1 cycle
   \   0001BF A800                  MOVW      AX, [SP]           ;; 1 cycle
   \   0001C1 37                    XCHW      AX, HL             ;; 1 cycle
   \   0001C2 14                    MOVW      DE, AX             ;; 1 cycle
   \   0001C3 AB                    MOVW      AX, [HL]           ;; 1 cycle
   \   0001C4 35                    XCHW      AX, DE             ;; 1 cycle
   \   0001C5 C5                    PUSH      DE                 ;; 1 cycle
   \   0001C6 C6                    POP       HL                 ;; 1 cycle
   \   0001C7 14                    MOVW      DE, AX             ;; 1 cycle
   \   0001C8 AC02                  MOVW      AX, [HL+0x02]      ;; 1 cycle
   \   0001CA 35                    XCHW      AX, DE             ;; 1 cycle
   \   0001CB CEFC00                MOV       CS, #0x0           ;; 1 cycle
   \   0001CE 61EA                  CALL      DE                 ;; 3 cycles
   \   0001D0                       ; ------------------------------------- Block: 16 cycles
   \                     ??ST7579_SetLine_26:
   \   0001D0 5129                  MOV       A, #0x29           ;; 1 cycle
   \   0001D2 16                    MOVW      HL, AX             ;; 1 cycle
   \   0001D3 A800                  MOVW      AX, [SP]           ;; 1 cycle
   \   0001D5 37                    XCHW      AX, HL             ;; 1 cycle
   \   0001D6 14                    MOVW      DE, AX             ;; 1 cycle
   \   0001D7 AB                    MOVW      AX, [HL]           ;; 1 cycle
   \   0001D8 35                    XCHW      AX, DE             ;; 1 cycle
   \   0001D9 C5                    PUSH      DE                 ;; 1 cycle
   \   0001DA C6                    POP       HL                 ;; 1 cycle
   \   0001DB 14                    MOVW      DE, AX             ;; 1 cycle
   \   0001DC AC02                  MOVW      AX, [HL+0x02]      ;; 1 cycle
   \   0001DE 35                    XCHW      AX, DE             ;; 1 cycle
   \   0001DF CEFC00                MOV       CS, #0x0           ;; 1 cycle
   \   0001E2 61EA                  CALL      DE                 ;; 3 cycles
   \   0001E4 A800                  MOVW      AX, [SP]           ;; 1 cycle
   \   0001E6 16                    MOVW      HL, AX             ;; 1 cycle
   \   0001E7 CEFC00                MOV       CS, #0x0           ;; 1 cycle
   \   0001EA AB                    MOVW      AX, [HL]           ;; 1 cycle
   \   0001EB 16                    MOVW      HL, AX             ;; 1 cycle
   \   0001EC AC02                  MOVW      AX, [HL+0x02]      ;; 1 cycle
   \   0001EE 14                    MOVW      DE, AX             ;; 1 cycle
   \   0001EF 63                    MOV       A, B               ;; 1 cycle
   \   0001F0 61EA                  CALL      DE                 ;; 3 cycles
   \   0001F2                       ; ------------------------------------- Block: 27 cycles
   \                     ??ST7579_SetLine_22:
   \   0001F2 F6                    CLRW      AX                 ;; 1 cycle
   \   0001F3 B800                  MOVW      [SP], AX           ;; 1 cycle
   \   0001F5 A800                  MOVW      AX, [SP]           ;; 1 cycle
   \   0001F7 7C80                  XOR       A, #0x80           ;; 1 cycle
   \   0001F9 44E883                CMPW      AX, #0x83E8        ;; 1 cycle
   \   0001FC DE2A                  BNC       ??ST7579_SetLine_27  ;; 4 cycles
   \   0001FE                       ; ------------------------------------- Block: 9 cycles
   \                     ??ST7579_Open_0:
   \   0001FE A800                  MOVW      AX, [SP]           ;; 1 cycle
   \   000200 A1                    INCW      AX                 ;; 1 cycle
   \   000201 B800                  MOVW      [SP], AX           ;; 1 cycle
   \   000203 A800                  MOVW      AX, [SP]           ;; 1 cycle
   \   000205 7C80                  XOR       A, #0x80           ;; 1 cycle
   \   000207 44E883                CMPW      AX, #0x83E8        ;; 1 cycle
   \   00020A DE1C                  BNC       ??ST7579_SetLine_27  ;; 4 cycles
   \   00020C                       ; ------------------------------------- Block: 10 cycles
   \   00020C A800                  MOVW      AX, [SP]           ;; 1 cycle
   \   00020E A1                    INCW      AX                 ;; 1 cycle
   \   00020F B800                  MOVW      [SP], AX           ;; 1 cycle
   \   000211 A800                  MOVW      AX, [SP]           ;; 1 cycle
   \   000213 7C80                  XOR       A, #0x80           ;; 1 cycle
   \   000215 44E883                CMPW      AX, #0x83E8        ;; 1 cycle
   \   000218 DE0E                  BNC       ??ST7579_SetLine_27  ;; 4 cycles
   \   00021A                       ; ------------------------------------- Block: 10 cycles
   \   00021A A800                  MOVW      AX, [SP]           ;; 1 cycle
   \   00021C A1                    INCW      AX                 ;; 1 cycle
   \   00021D B800                  MOVW      [SP], AX           ;; 1 cycle
   \   00021F A800                  MOVW      AX, [SP]           ;; 1 cycle
   \   000221 7C80                  XOR       A, #0x80           ;; 1 cycle
   \   000223 44E883                CMPW      AX, #0x83E8        ;; 1 cycle
   \   000226 DCD6                  BC        ??ST7579_Open_0    ;; 4 cycles
   \   000228                       ; ------------------------------------- Block: 10 cycles
   \                     ??ST7579_SetLine_27:
   \   000228 A804                  MOVW      AX, [SP+0x04]      ;; 1 cycle
   \   00022A 16                    MOVW      HL, AX             ;; 1 cycle
   \   00022B CEFC00                MOV       CS, #0x0           ;; 1 cycle
   \   00022E AB                    MOVW      AX, [HL]           ;; 1 cycle
   \   00022F 16                    MOVW      HL, AX             ;; 1 cycle
   \   000230 8C1A                  MOV       A, [HL+0x1A]       ;; 1 cycle
   \   000232 72                    MOV       C, A               ;; 1 cycle
   \   000233 A804                  MOVW      AX, [SP+0x04]      ;; 1 cycle
   \   000235 040200                ADDW      AX, #0x2           ;; 1 cycle
   \   000238 B800                  MOVW      [SP], AX           ;; 1 cycle
   \   00023A 512B                  MOV       A, #0x2B           ;; 1 cycle
   \   00023C 16                    MOVW      HL, AX             ;; 1 cycle
   \   00023D A800                  MOVW      AX, [SP]           ;; 1 cycle
   \   00023F 37                    XCHW      AX, HL             ;; 1 cycle
   \   000240 14                    MOVW      DE, AX             ;; 1 cycle
   \   000241 AB                    MOVW      AX, [HL]           ;; 1 cycle
   \   000242 35                    XCHW      AX, DE             ;; 1 cycle
   \   000243 C5                    PUSH      DE                 ;; 1 cycle
   \   000244 C6                    POP       HL                 ;; 1 cycle
   \   000245 14                    MOVW      DE, AX             ;; 1 cycle
   \   000246 AC02                  MOVW      AX, [HL+0x02]      ;; 1 cycle
   \   000248 35                    XCHW      AX, DE             ;; 1 cycle
   \   000249 61EA                  CALL      DE                 ;; 3 cycles
   \   00024B 62                    MOV       A, C               ;; 1 cycle
   \   00024C 2C37                  SUB       A, #0x37           ;; 1 cycle
   \   00024E DD72                  BZ        ??ST7579_SetLine_28  ;; 4 cycles
   \   000250                       ; ------------------------------------- Block: 31 cycles
   \   000250 2C0A                  SUB       A, #0xA            ;; 1 cycle
   \   000252 DD5F                  BZ        ??ST7579_SetLine_29  ;; 4 cycles
   \   000254                       ; ------------------------------------- Block: 5 cycles
   \   000254 2C03                  SUB       A, #0x3            ;; 1 cycle
   \   000256 DD4C                  BZ        ??ST7579_SetLine_30  ;; 4 cycles
   \   000258                       ; ------------------------------------- Block: 5 cycles
   \   000258 2C02                  SUB       A, #0x2            ;; 1 cycle
   \   00025A DD39                  BZ        ??ST7579_SetLine_31  ;; 4 cycles
   \   00025C                       ; ------------------------------------- Block: 5 cycles
   \   00025C 2C06                  SUB       A, #0x6            ;; 1 cycle
   \   00025E DD26                  BZ        ??ST7579_SetLine_32  ;; 4 cycles
   \   000260                       ; ------------------------------------- Block: 5 cycles
   \   000260 2C04                  SUB       A, #0x4            ;; 1 cycle
   \   000262 DD13                  BZ        ??ST7579_SetLine_33  ;; 4 cycles
   \   000264                       ; ------------------------------------- Block: 5 cycles
   \   000264 2C39                  SUB       A, #0x39           ;; 1 cycle
   \   000266 A800                  MOVW      AX, [SP]           ;; 1 cycle
   \   000268 16                    MOVW      HL, AX             ;; 1 cycle
   \   000269 CEFC00                MOV       CS, #0x0           ;; 1 cycle
   \   00026C AB                    MOVW      AX, [HL]           ;; 1 cycle
   \   00026D 16                    MOVW      HL, AX             ;; 1 cycle
   \   00026E AC02                  MOVW      AX, [HL+0x02]      ;; 1 cycle
   \   000270 14                    MOVW      DE, AX             ;; 1 cycle
   \   000271 DF5E                  BNZ       ??ST7579_SetLine_34  ;; 4 cycles
   \   000273                       ; ------------------------------------- Block: 12 cycles
   \   000273 510F                  MOV       A, #0xF            ;; 1 cycle
   \   000275 EF5C                  BR        S:??ST7579_SetLine_35  ;; 3 cycles
   \   000277                       ; ------------------------------------- Block: 4 cycles
   \                     ??ST7579_SetLine_33:
   \   000277 A800                  MOVW      AX, [SP]           ;; 1 cycle
   \   000279 16                    MOVW      HL, AX             ;; 1 cycle
   \   00027A CEFC00                MOV       CS, #0x0           ;; 1 cycle
   \   00027D AB                    MOVW      AX, [HL]           ;; 1 cycle
   \   00027E 16                    MOVW      HL, AX             ;; 1 cycle
   \   00027F AC02                  MOVW      AX, [HL+0x02]      ;; 1 cycle
   \   000281 14                    MOVW      DE, AX             ;; 1 cycle
   \   000282 510E                  MOV       A, #0xE            ;; 1 cycle
   \   000284 EF4D                  BR        S:??ST7579_SetLine_35  ;; 3 cycles
   \   000286                       ; ------------------------------------- Block: 11 cycles
   \                     ??ST7579_SetLine_32:
   \   000286 A800                  MOVW      AX, [SP]           ;; 1 cycle
   \   000288 16                    MOVW      HL, AX             ;; 1 cycle
   \   000289 CEFC00                MOV       CS, #0x0           ;; 1 cycle
   \   00028C AB                    MOVW      AX, [HL]           ;; 1 cycle
   \   00028D 16                    MOVW      HL, AX             ;; 1 cycle
   \   00028E AC02                  MOVW      AX, [HL+0x02]      ;; 1 cycle
   \   000290 14                    MOVW      DE, AX             ;; 1 cycle
   \   000291 510D                  MOV       A, #0xD            ;; 1 cycle
   \   000293 EF3E                  BR        S:??ST7579_SetLine_35  ;; 3 cycles
   \   000295                       ; ------------------------------------- Block: 11 cycles
   \                     ??ST7579_SetLine_31:
   \   000295 A800                  MOVW      AX, [SP]           ;; 1 cycle
   \   000297 16                    MOVW      HL, AX             ;; 1 cycle
   \   000298 CEFC00                MOV       CS, #0x0           ;; 1 cycle
   \   00029B AB                    MOVW      AX, [HL]           ;; 1 cycle
   \   00029C 16                    MOVW      HL, AX             ;; 1 cycle
   \   00029D AC02                  MOVW      AX, [HL+0x02]      ;; 1 cycle
   \   00029F 14                    MOVW      DE, AX             ;; 1 cycle
   \   0002A0 510B                  MOV       A, #0xB            ;; 1 cycle
   \   0002A2 EF2F                  BR        S:??ST7579_SetLine_35  ;; 3 cycles
   \   0002A4                       ; ------------------------------------- Block: 11 cycles
   \                     ??ST7579_SetLine_30:
   \   0002A4 A800                  MOVW      AX, [SP]           ;; 1 cycle
   \   0002A6 16                    MOVW      HL, AX             ;; 1 cycle
   \   0002A7 CEFC00                MOV       CS, #0x0           ;; 1 cycle
   \   0002AA AB                    MOVW      AX, [HL]           ;; 1 cycle
   \   0002AB 16                    MOVW      HL, AX             ;; 1 cycle
   \   0002AC AC02                  MOVW      AX, [HL+0x02]      ;; 1 cycle
   \   0002AE 14                    MOVW      DE, AX             ;; 1 cycle
   \   0002AF 510A                  MOV       A, #0xA            ;; 1 cycle
   \   0002B1 EF20                  BR        S:??ST7579_SetLine_35  ;; 3 cycles
   \   0002B3                       ; ------------------------------------- Block: 11 cycles
   \                     ??ST7579_SetLine_29:
   \   0002B3 A800                  MOVW      AX, [SP]           ;; 1 cycle
   \   0002B5 16                    MOVW      HL, AX             ;; 1 cycle
   \   0002B6 CEFC00                MOV       CS, #0x0           ;; 1 cycle
   \   0002B9 AB                    MOVW      AX, [HL]           ;; 1 cycle
   \   0002BA 16                    MOVW      HL, AX             ;; 1 cycle
   \   0002BB AC02                  MOVW      AX, [HL+0x02]      ;; 1 cycle
   \   0002BD 14                    MOVW      DE, AX             ;; 1 cycle
   \   0002BE 5109                  MOV       A, #0x9            ;; 1 cycle
   \   0002C0 EF11                  BR        S:??ST7579_SetLine_35  ;; 3 cycles
   \   0002C2                       ; ------------------------------------- Block: 11 cycles
   \                     ??ST7579_SetLine_28:
   \   0002C2 A800                  MOVW      AX, [SP]           ;; 1 cycle
   \   0002C4 16                    MOVW      HL, AX             ;; 1 cycle
   \   0002C5 CEFC00                MOV       CS, #0x0           ;; 1 cycle
   \   0002C8 AB                    MOVW      AX, [HL]           ;; 1 cycle
   \   0002C9 16                    MOVW      HL, AX             ;; 1 cycle
   \   0002CA AC02                  MOVW      AX, [HL+0x02]      ;; 1 cycle
   \   0002CC 14                    MOVW      DE, AX             ;; 1 cycle
   \   0002CD 5108                  MOV       A, #0x8            ;; 1 cycle
   \   0002CF EF02                  BR        S:??ST7579_SetLine_35  ;; 3 cycles
   \   0002D1                       ; ------------------------------------- Block: 11 cycles
   \                     ??ST7579_SetLine_34:
   \   0002D1 510C                  MOV       A, #0xC            ;; 1 cycle
   \   0002D3                       ; ------------------------------------- Block: 1 cycles
   \                     ??ST7579_SetLine_35:
   \   0002D3 61EA                  CALL      DE                 ;; 3 cycles
   \   0002D5 A800                  MOVW      AX, [SP]           ;; 1 cycle
   \   0002D7 16                    MOVW      HL, AX             ;; 1 cycle
   \   0002D8 CEFC00                MOV       CS, #0x0           ;; 1 cycle
   \   0002DB AB                    MOVW      AX, [HL]           ;; 1 cycle
   \   0002DC 16                    MOVW      HL, AX             ;; 1 cycle
   \   0002DD AC02                  MOVW      AX, [HL+0x02]      ;; 1 cycle
   \   0002DF 14                    MOVW      DE, AX             ;; 1 cycle
   \   0002E0 5128                  MOV       A, #0x28           ;; 1 cycle
   \   0002E2 61EA                  CALL      DE                 ;; 3 cycles
   \   0002E4 A800                  MOVW      AX, [SP]           ;; 1 cycle
   \   0002E6 16                    MOVW      HL, AX             ;; 1 cycle
   \   0002E7 CEFC00                MOV       CS, #0x0           ;; 1 cycle
   \   0002EA AB                    MOVW      AX, [HL]           ;; 1 cycle
   \   0002EB 16                    MOVW      HL, AX             ;; 1 cycle
   \   0002EC AC02                  MOVW      AX, [HL+0x02]      ;; 1 cycle
   \   0002EE 14                    MOVW      DE, AX             ;; 1 cycle
   \   0002EF 5140                  MOV       A, #0x40           ;; 1 cycle
   \   0002F1 61EA                  CALL      DE                 ;; 3 cycles
   \   0002F3 A800                  MOVW      AX, [SP]           ;; 1 cycle
   \   0002F5 16                    MOVW      HL, AX             ;; 1 cycle
   \   0002F6 CEFC00                MOV       CS, #0x0           ;; 1 cycle
   \   0002F9 AB                    MOVW      AX, [HL]           ;; 1 cycle
   \   0002FA 16                    MOVW      HL, AX             ;; 1 cycle
   \   0002FB AC02                  MOVW      AX, [HL+0x02]      ;; 1 cycle
   \   0002FD 14                    MOVW      DE, AX             ;; 1 cycle
   \   0002FE 5128                  MOV       A, #0x28           ;; 1 cycle
   \   000300 61EA                  CALL      DE                 ;; 3 cycles
   \   000302 A800                  MOVW      AX, [SP]           ;; 1 cycle
   \   000304 16                    MOVW      HL, AX             ;; 1 cycle
   \   000305 CEFC00                MOV       CS, #0x0           ;; 1 cycle
   \   000308 AB                    MOVW      AX, [HL]           ;; 1 cycle
   \   000309 16                    MOVW      HL, AX             ;; 1 cycle
   \   00030A AC02                  MOVW      AX, [HL+0x02]      ;; 1 cycle
   \   00030C 14                    MOVW      DE, AX             ;; 1 cycle
   \   00030D 5180                  MOV       A, #0x80           ;; 1 cycle
   \   00030F 61EA                  CALL      DE                 ;; 3 cycles
     86          
     87              return GLYPH_ERROR_NONE ;
   \   000311 1006                  ADDW      SP, #0x6           ;; 1 cycle
   \   000313 F1                    CLRB      A                  ;; 1 cycle
   \   000314 C4                    POP       DE                 ;; 1 cycle
   \   000315 D7                    RET                          ;; 6 cycles
   \   000316                       ; ------------------------------------- Block: 56 cycles
   \   000316                       ; ------------------------------------- Total: 670 cycles
   \   000316                       REQUIRE ?CLRL78_V1_0_L00
     88          }
     89          
     90          /******************************************************************************
     91          * ID : 30.2
     92          * Outline : ST7579_Close
     93          * Include : ST7579_LCD.h
     94          * Function Name: ST7579_Close
     95          * Description : Clear all settings in the global ST7579_LCD.
     96          * Argument : aHandle - the Glyph handle to setup for the LCD and Communications.
     97          * Return Value : 0=success, not 0= error
     98          * Calling Functions : GlyphOpen
     99          ******************************************************************************/

   \                                 In  segment CODE, align 1, keep-with-next
    100          T_glyphError ST7579_Close(T_glyphHandle aHandle)
   \                     ST7579_Close:
    101          {
    102              return GLYPH_ERROR_NONE ;
   \   000000 F1                    CLRB      A                  ;; 1 cycle
   \   000001 D7                    RET                          ;; 6 cycles
   \   000002                       ; ------------------------------------- Block: 7 cycles
   \   000002                       ; ------------------------------------- Total: 7 cycles
   \   000002                       ; * Stack frame (at entry) *
   \   000002                       ; Param size: 0
   \   000002                       ; Auto size: 0
   \   000002                       REQUIRE ?CLRL78_V1_0_L00
    103          }
    104          
    105          /******************************************************************************
    106          * ID : 31.0
    107          * Outline : ST7579_Write
    108          * Include : ST7579_LCD.h
    109          * Function Name: ST7579_Write
    110          * Description : Write to the LCD using a Glyph Register value, to the Glyph
    111          * data storage or run an LCD Glyph Command.
    112          * Argument : aHandle - the Glyph handle setup by the LCD and Communications.
    113          *          : aRegister - specifies what to do.
    114          *          : aValue - data if required
    115          * Return Value : 0=success, not 0= error
    116          * Calling Functions : GlyphWrite
    117          ******************************************************************************/

   \                                 In  segment CODE, align 1, keep-with-next
    118          T_glyphError ST7579_Write(T_glyphHandle aHandle, uint16_t aRegister, uint16_t aValue)
   \                     ST7579_Write:
    119          {
   \   000000 C1                    PUSH      AX                 ;; 1 cycle
   \   000001 C3                    PUSH      BC                 ;; 1 cycle
   \   000002 2008                  SUBW      SP, #0x8           ;; 1 cycle
    120              uint16_t pCounter;
    121              uint16_t column;
    122              uint16_t line;
    123              const uint8_t *p_char;
    124              uint8_t width;
    125              uint8_t height;
    126              const uint8_t *p_charData;
    127              uint16_t page;
    128              T_glyphError error = GLYPH_ERROR_ILLEGAL_OPERATION ;
    129              T_glyphWorkspace *p_gw = (T_glyphWorkspace *)aHandle;
    130              uint8_t cmd = 0xFF;
   \   000004 51FF                  MOV       A, #0xFF           ;; 1 cycle
   \   000006 9804                  MOV       [SP+0x04], A       ;; 1 cycle
    131          
    132              p_gw->iLCDAPI->iStatusRegister = GLYPH_STATUS_BUSY ;
   \   000008 A80A                  MOVW      AX, [SP+0x0A]      ;; 1 cycle
   \   00000A 16                    MOVW      HL, AX             ;; 1 cycle
   \   00000B E3                    ONEB      B                  ;; 1 cycle
   \   00000C AB                    MOVW      AX, [HL]           ;; 1 cycle
   \   00000D 16                    MOVW      HL, AX             ;; 1 cycle
   \   00000E 300200                MOVW      AX, #0x2           ;; 1 cycle
   \   000011 BC14                  MOVW      [HL+0x14], AX      ;; 1 cycle
    133          
    134              switch (aRegister) {
   \   000013 A808                  MOVW      AX, [SP+0x08]      ;; 1 cycle
   \   000015 240100                SUBW      AX, #0x1           ;; 1 cycle
   \   000018 DD52                  BZ        ??ST7579_SetLine_36  ;; 4 cycles
   \   00001A                       ; ------------------------------------- Block: 18 cycles
   \   00001A                       ; * Stack frame (at entry) *
   \   00001A                       ; Param size: 0
   \   00001A                       ; Auto size: 12
   \   00001A 240100                SUBW      AX, #0x1           ;; 1 cycle
   \   00001D DD58                  BZ        ??ST7579_SetLine_37  ;; 4 cycles
   \   00001F                       ; ------------------------------------- Block: 5 cycles
   \   00001F 240100                SUBW      AX, #0x1           ;; 1 cycle
   \   000022 DD5E                  BZ        ??ST7579_SetLine_38  ;; 4 cycles
   \   000024                       ; ------------------------------------- Block: 5 cycles
   \   000024 240100                SUBW      AX, #0x1           ;; 1 cycle
   \   000027 61F8                  SKNZ                         ;; 4 cycles
   \   000029 ED....                BR        N:??ST7579_SetLine_39  ;; 4 cycles
   \   00002C                       ; ------------------------------------- Block: 5 cycles
   \   00002C 240100                SUBW      AX, #0x1           ;; 1 cycle
   \   00002F DD7D                  BZ        ??ST7579_SetLine_40  ;; 4 cycles
   \   000031                       ; ------------------------------------- Block: 5 cycles
   \   000031 240100                SUBW      AX, #0x1           ;; 1 cycle
   \   000034 61F8                  SKNZ                         ;; 4 cycles
   \   000036 ED....                BR        N:??ST7579_SetLine_41  ;; 4 cycles
   \   000039                       ; ------------------------------------- Block: 5 cycles
   \   000039 240100                SUBW      AX, #0x1           ;; 1 cycle
   \   00003C 61F8                  SKNZ                         ;; 4 cycles
   \   00003E ED....                BR        N:??ST7579_SetLine_42  ;; 4 cycles
   \   000041                       ; ------------------------------------- Block: 5 cycles
   \   000041 240600                SUBW      AX, #0x6           ;; 1 cycle
   \   000044 61F8                  SKNZ                         ;; 4 cycles
   \   000046 ED....                BR        N:??ST7579_SetLine_43  ;; 4 cycles
   \   000049                       ; ------------------------------------- Block: 5 cycles
   \   000049 240100                SUBW      AX, #0x1           ;; 1 cycle
   \   00004C 61F8                  SKNZ                         ;; 4 cycles
   \   00004E ED....                BR        N:??ST7579_SetLine_44  ;; 4 cycles
   \   000051                       ; ------------------------------------- Block: 5 cycles
   \   000051 240500                SUBW      AX, #0x5           ;; 1 cycle
   \   000054 61F8                  SKNZ                         ;; 4 cycles
   \   000056 ED....                BR        N:??ST7579_SetLine_45  ;; 4 cycles
   \   000059                       ; ------------------------------------- Block: 5 cycles
   \   000059 240100                SUBW      AX, #0x1           ;; 1 cycle
   \   00005C 61F8                  SKNZ                         ;; 4 cycles
   \   00005E ED....                BR        N:??ST7579_SetLine_46  ;; 4 cycles
   \   000061                       ; ------------------------------------- Block: 5 cycles
   \   000061 240100                SUBW      AX, #0x1           ;; 1 cycle
   \   000064 61F8                  SKNZ                         ;; 4 cycles
   \   000066 ED....                BR        N:??ST7579_SetLine_47  ;; 4 cycles
   \   000069                       ; ------------------------------------- Block: 5 cycles
   \   000069 ED....                BR        N:??ST7579_SetLine_48  ;; 3 cycles
   \   00006C                       ; ------------------------------------- Block: 3 cycles
    135                  case GLYPH_CHAR_X:
    136                      p_gw->iLCDAPI->iCharX_Position = aValue ;
   \                     ??ST7579_SetLine_36:
   \   00006C A80A                  MOVW      AX, [SP+0x0A]      ;; 1 cycle
   \   00006E 16                    MOVW      HL, AX             ;; 1 cycle
   \   00006F AB                    MOVW      AX, [HL]           ;; 1 cycle
   \   000070 16                    MOVW      HL, AX             ;; 1 cycle
   \   000071 15                    MOVW      AX, DE             ;; 1 cycle
   \   000072 BC02                  MOVW      [HL+0x02], AX      ;; 1 cycle
    137                      error = GLYPH_ERROR_NONE ;
   \   000074 ED....                BR        N:??ST7579_SetLine_49  ;; 3 cycles
   \   000077                       ; ------------------------------------- Block: 9 cycles
    138                      break ;
    139                  case GLYPH_CHAR_Y:
    140                      p_gw->iLCDAPI->iCharY_Position = aValue ;
   \                     ??ST7579_SetLine_37:
   \   000077 A80A                  MOVW      AX, [SP+0x0A]      ;; 1 cycle
   \   000079 16                    MOVW      HL, AX             ;; 1 cycle
   \   00007A AB                    MOVW      AX, [HL]           ;; 1 cycle
   \   00007B 16                    MOVW      HL, AX             ;; 1 cycle
   \   00007C 15                    MOVW      AX, DE             ;; 1 cycle
   \   00007D BC04                  MOVW      [HL+0x04], AX      ;; 1 cycle
    141                      error = GLYPH_ERROR_NONE ;
   \   00007F ED....                BR        N:??ST7579_SetLine_49  ;; 3 cycles
   \   000082                       ; ------------------------------------- Block: 9 cycles
    142                      break ;
    143                  case GLYPH_FONT:
    144                      p_gw->iLCDAPI->iCharFont = aValue;
   \                     ??ST7579_SetLine_38:
   \   000082 64                    MOV       A, E               ;; 1 cycle
   \   000083 16                    MOVW      HL, AX             ;; 1 cycle
   \   000084 A80A                  MOVW      AX, [SP+0x0A]      ;; 1 cycle
   \   000086 37                    XCHW      AX, HL             ;; 1 cycle
   \   000087 12                    MOVW      BC, AX             ;; 1 cycle
   \   000088 AB                    MOVW      AX, [HL]           ;; 1 cycle
   \   000089 33                    XCHW      AX, BC             ;; 1 cycle
   \   00008A C3                    PUSH      BC                 ;; 1 cycle
   \   00008B C6                    POP       HL                 ;; 1 cycle
   \   00008C 9C0A                  MOV       [HL+0x0A], A       ;; 1 cycle
    145                      switch (aValue) {
   \   00008E 15                    MOVW      AX, DE             ;; 1 cycle
   \   00008F 240000                SUBW      AX, #0x0           ;; 1 cycle
   \   000092 DD08                  BZ        ??ST7579_SetLine_50  ;; 4 cycles
   \   000094                       ; ------------------------------------- Block: 16 cycles
   \   000094 240200                SUBW      AX, #0x2           ;; 1 cycle
   \   000097 DD08                  BZ        ??ST7579_SetLine_51  ;; 4 cycles
   \   000099                       ; ------------------------------------- Block: 5 cycles
   \   000099 ED....                BR        N:??ST7579_SetLine_49  ;; 3 cycles
   \   00009C                       ; ------------------------------------- Block: 3 cycles
    146                      #ifdef USE_GLYPH_FONT_BITMAP
    147                          case GLYPH_FONT_BITMAP:
    148                              p_gw->iLCDAPI->iFont = Bitmaps_table ;
    149                              break ;
    150                      #endif
    151                      #ifdef USE_GLYPH_FONT_HELVR10
    152                          case GLYPH_FONT_HELVR10:
    153                              p_gw->iLCDAPI->iFont = FontHelvr10_table ;
    154                              break ;
    155                      #endif
    156                      #ifdef USE_GLYPH_FONT_8_BY_16
    157                          case GLYPH_FONT_8_BY_16:
    158                              p_gw->iLCDAPI->iFont = Font8x16_table ;
    159                              break ;
    160                      #endif
    161                      #ifdef USE_GLYPH_FONT_8_BY_8
    162                          case GLYPH_FONT_8_BY_8:
    163                              p_gw->iLCDAPI->iFont = Font8x8_table ;
   \                     ??ST7579_SetLine_50:
   \   00009C 34....                MOVW      DE, #Font8x8_table  ;; 1 cycle
   \   00009F EF03                  BR        S:??ST7579_SetLine_52  ;; 3 cycles
   \   0000A1                       ; ------------------------------------- Block: 4 cycles
    164                              break ;
    165                      #endif
    166                      #ifdef USE_GLYPH_FONT_WINFREE
    167                          case GLYPH_FONT_WINFREESYSTEM14_BY_16:
    168                              p_gw->iLCDAPI->iFont = FontWinFreeSystem14x16_table ;
    169                              break ;
    170                      #endif
    171                      #ifdef USE_GLYPH_FONT_5_BY_7
    172                          case GLYPH_FONT_5_BY_7:
    173                              p_gw->iLCDAPI->iFont = Fontx5x7_table ;
   \                     ??ST7579_SetLine_51:
   \   0000A1 34....                MOVW      DE, #Fontx5x7_table  ;; 1 cycle
   \   0000A4                       ; ------------------------------------- Block: 1 cycles
   \                     ??ST7579_SetLine_52:
   \   0000A4 A80A                  MOVW      AX, [SP+0x0A]      ;; 1 cycle
   \   0000A6 16                    MOVW      HL, AX             ;; 1 cycle
   \   0000A7 AB                    MOVW      AX, [HL]           ;; 1 cycle
   \   0000A8 16                    MOVW      HL, AX             ;; 1 cycle
   \   0000A9 15                    MOVW      AX, DE             ;; 1 cycle
   \   0000AA BB                    MOVW      [HL], AX           ;; 1 cycle
    174                              break ;
   \   0000AB ED....                BR        N:??ST7579_SetLine_49  ;; 3 cycles
   \   0000AE                       ; ------------------------------------- Block: 9 cycles
    175                      #endif
    176                      #ifdef USE_GLYPH_FONT_6_BY_13
    177                          case GLYPH_FONT_6_BY_13:
    178                              p_gw->iLCDAPI->iFont = Fontx6x13_table ;
    179                              break ;
    180                      #endif
    181          			#ifdef USE_GLYPH_FONT_LOGOS
    182                          case GLYPH_FONT_LOGOS:
    183                              p_gw->iLCDAPI->iFont = Logos_table ;
    184                              break ;
    185                      #endif
    186                      }
    187                      error = GLYPH_ERROR_NONE ;
    188                      break ;
    189                  case GLYPH_DRAW_CMD:
    190                      switch (aValue)  {
   \                     ??ST7579_SetLine_40:
   \   0000AE 15                    MOVW      AX, DE             ;; 1 cycle
   \   0000AF 240100                SUBW      AX, #0x1           ;; 1 cycle
   \   0000B2 DD2B                  BZ        ??ST7579_SetLine_53  ;; 4 cycles
   \   0000B4                       ; ------------------------------------- Block: 6 cycles
   \   0000B4 240100                SUBW      AX, #0x1           ;; 1 cycle
   \   0000B7 61F8                  SKNZ                         ;; 4 cycles
   \   0000B9 ED....                BR        N:??ST7579_SetLine_54  ;; 4 cycles
   \   0000BC                       ; ------------------------------------- Block: 5 cycles
   \   0000BC 240100                SUBW      AX, #0x1           ;; 1 cycle
   \   0000BF 61F8                  SKNZ                         ;; 4 cycles
   \   0000C1 ED....                BR        N:??ST7579_SetLine_55  ;; 4 cycles
   \   0000C4                       ; ------------------------------------- Block: 5 cycles
   \   0000C4 240300                SUBW      AX, #0x3           ;; 1 cycle
   \   0000C7 61F8                  SKNZ                         ;; 4 cycles
   \   0000C9 ED....                BR        N:??ST7579_SetLine_56  ;; 4 cycles
   \   0000CC                       ; ------------------------------------- Block: 5 cycles
   \   0000CC 240100                SUBW      AX, #0x1           ;; 1 cycle
   \   0000CF 61F8                  SKNZ                         ;; 4 cycles
   \   0000D1 ED....                BR        N:??ST7579_SetLine_57  ;; 4 cycles
   \   0000D4                       ; ------------------------------------- Block: 5 cycles
   \   0000D4 240100                SUBW      AX, #0x1           ;; 1 cycle
   \   0000D7 61F8                  SKNZ                         ;; 4 cycles
   \   0000D9 ED....                BR        N:??ST7579_SetLine_58  ;; 4 cycles
   \   0000DC                       ; ------------------------------------- Block: 5 cycles
   \   0000DC ED....                BR        N:??ST7579_SetLine_49  ;; 3 cycles
   \   0000DF                       ; ------------------------------------- Block: 3 cycles
    191                          case 1:
    192                              ST7579_SetLine(p_gw, 0);
   \                     ??ST7579_SetLine_53:
   \   0000DF A80A                  MOVW      AX, [SP+0x0A]      ;; 1 cycle
   \   0000E1 16                    MOVW      HL, AX             ;; 1 cycle
   \   0000E2 CEFC00                MOV       CS, #0x0           ;; 1 cycle
   \   0000E5 AC02                  MOVW      AX, [HL+0x02]      ;; 1 cycle
   \   0000E7 16                    MOVW      HL, AX             ;; 1 cycle
   \   0000E8 AC02                  MOVW      AX, [HL+0x02]      ;; 1 cycle
   \   0000EA 14                    MOVW      DE, AX             ;; 1 cycle
   \   0000EB 5129                  MOV       A, #0x29           ;; 1 cycle
   \   0000ED 61EA                  CALL      DE                 ;; 3 cycles
   \   0000EF A80A                  MOVW      AX, [SP+0x0A]      ;; 1 cycle
   \   0000F1 16                    MOVW      HL, AX             ;; 1 cycle
   \   0000F2 CEFC00                MOV       CS, #0x0           ;; 1 cycle
   \   0000F5 AC02                  MOVW      AX, [HL+0x02]      ;; 1 cycle
   \   0000F7 16                    MOVW      HL, AX             ;; 1 cycle
   \   0000F8 AC02                  MOVW      AX, [HL+0x02]      ;; 1 cycle
   \   0000FA 14                    MOVW      DE, AX             ;; 1 cycle
   \   0000FB 5140                  MOV       A, #0x40           ;; 1 cycle
   \   0000FD 61EA                  CALL      DE                 ;; 3 cycles
   \   0000FF A80A                  MOVW      AX, [SP+0x0A]      ;; 1 cycle
   \   000101 16                    MOVW      HL, AX             ;; 1 cycle
   \   000102 CEFC00                MOV       CS, #0x0           ;; 1 cycle
   \   000105 AC02                  MOVW      AX, [HL+0x02]      ;; 1 cycle
   \   000107 16                    MOVW      HL, AX             ;; 1 cycle
   \   000108 AC02                  MOVW      AX, [HL+0x02]      ;; 1 cycle
   \   00010A 14                    MOVW      DE, AX             ;; 1 cycle
   \   00010B 5104                  MOV       A, #0x4            ;; 1 cycle
   \   00010D 61EA                  CALL      DE                 ;; 3 cycles
    193                              for (pCounter=0;pCounter<8;pCounter++)  {
   \   00010F F6                    CLRW      AX                 ;; 1 cycle
   \   000110 B802                  MOVW      [SP+0x02], AX      ;; 1 cycle
   \   000112 A80A                  MOVW      AX, [SP+0x0A]      ;; 1 cycle
   \   000114 040200                ADDW      AX, #0x2           ;; 1 cycle
   \   000117 B800                  MOVW      [SP], AX           ;; 1 cycle
   \   000119                       ; ------------------------------------- Block: 38 cycles
    194                                  ST7579_SetPage(aHandle, pCounter);
   \                     ??ST7579_Write_0:
   \   000119 A800                  MOVW      AX, [SP]           ;; 1 cycle
   \   00011B 16                    MOVW      HL, AX             ;; 1 cycle
   \   00011C CEFC00                MOV       CS, #0x0           ;; 1 cycle
   \   00011F AB                    MOVW      AX, [HL]           ;; 1 cycle
   \   000120 16                    MOVW      HL, AX             ;; 1 cycle
   \   000121 AC02                  MOVW      AX, [HL+0x02]      ;; 1 cycle
   \   000123 14                    MOVW      DE, AX             ;; 1 cycle
   \   000124 5128                  MOV       A, #0x28           ;; 1 cycle
   \   000126 61EA                  CALL      DE                 ;; 3 cycles
   \   000128 A802                  MOVW      AX, [SP+0x02]      ;; 1 cycle
   \   00012A 60                    MOV       A, X               ;; 1 cycle
   \   00012B 5C4F                  AND       A, #0x4F           ;; 1 cycle
   \   00012D 6C40                  OR        A, #0x40           ;; 1 cycle
   \   00012F 73                    MOV       B, A               ;; 1 cycle
   \   000130 A800                  MOVW      AX, [SP]           ;; 1 cycle
   \   000132 16                    MOVW      HL, AX             ;; 1 cycle
   \   000133 CEFC00                MOV       CS, #0x0           ;; 1 cycle
   \   000136 AB                    MOVW      AX, [HL]           ;; 1 cycle
   \   000137 16                    MOVW      HL, AX             ;; 1 cycle
   \   000138 AC02                  MOVW      AX, [HL+0x02]      ;; 1 cycle
   \   00013A 14                    MOVW      DE, AX             ;; 1 cycle
   \   00013B 63                    MOV       A, B               ;; 1 cycle
   \   00013C 61EA                  CALL      DE                 ;; 3 cycles
    195                                  ST7579_SetChar(aHandle, 0);
   \   00013E A800                  MOVW      AX, [SP]           ;; 1 cycle
   \   000140 16                    MOVW      HL, AX             ;; 1 cycle
   \   000141 CEFC00                MOV       CS, #0x0           ;; 1 cycle
   \   000144 AB                    MOVW      AX, [HL]           ;; 1 cycle
   \   000145 16                    MOVW      HL, AX             ;; 1 cycle
   \   000146 AC02                  MOVW      AX, [HL+0x02]      ;; 1 cycle
   \   000148 14                    MOVW      DE, AX             ;; 1 cycle
   \   000149 5128                  MOV       A, #0x28           ;; 1 cycle
   \   00014B 61EA                  CALL      DE                 ;; 3 cycles
   \   00014D A800                  MOVW      AX, [SP]           ;; 1 cycle
   \   00014F 16                    MOVW      HL, AX             ;; 1 cycle
   \   000150 5380                  MOV       B, #0x80           ;; 1 cycle
   \   000152 AB                    MOVW      AX, [HL]           ;; 1 cycle
   \   000153 16                    MOVW      HL, AX             ;; 1 cycle
   \   000154 CEFC00                MOV       CS, #0x0           ;; 1 cycle
   \   000157 AC02                  MOVW      AX, [HL+0x02]      ;; 1 cycle
   \   000159 14                    MOVW      DE, AX             ;; 1 cycle
   \   00015A 5180                  MOV       A, #0x80           ;; 1 cycle
   \   00015C 61EA                  CALL      DE                 ;; 3 cycles
    196                                  for (column=0; column<128; column++)    {
   \   00015E                       ; ------------------------------------- Block: 50 cycles
    197                                      p_gw->iCommAPI->iDataSend(0x00);
   \                     ??ST7579_Write_1:
   \   00015E F1                    CLRB      A                  ;; 1 cycle
   \   00015F 16                    MOVW      HL, AX             ;; 1 cycle
   \   000160 A800                  MOVW      AX, [SP]           ;; 1 cycle
   \   000162 37                    XCHW      AX, HL             ;; 1 cycle
   \   000163 14                    MOVW      DE, AX             ;; 1 cycle
   \   000164 AB                    MOVW      AX, [HL]           ;; 1 cycle
   \   000165 35                    XCHW      AX, DE             ;; 1 cycle
   \   000166 C5                    PUSH      DE                 ;; 1 cycle
   \   000167 C6                    POP       HL                 ;; 1 cycle
   \   000168 14                    MOVW      DE, AX             ;; 1 cycle
   \   000169 AC04                  MOVW      AX, [HL+0x04]      ;; 1 cycle
   \   00016B 35                    XCHW      AX, DE             ;; 1 cycle
   \   00016C CEFC00                MOV       CS, #0x0           ;; 1 cycle
   \   00016F 61EA                  CALL      DE                 ;; 3 cycles
    198                                  }
   \   000171 93                    DEC       B                  ;; 1 cycle
   \   000172 DFEA                  BNZ       ??ST7579_Write_1   ;; 4 cycles
   \   000174                       ; ------------------------------------- Block: 21 cycles
    199                              }
   \   000174 A802                  MOVW      AX, [SP+0x02]      ;; 1 cycle
   \   000176 A1                    INCW      AX                 ;; 1 cycle
   \   000177 440800                CMPW      AX, #0x8           ;; 1 cycle
   \   00017A B802                  MOVW      [SP+0x02], AX      ;; 1 cycle
   \   00017C DC9B                  BC        ??ST7579_Write_0   ;; 4 cycles
   \   00017E                       ; ------------------------------------- Block: 8 cycles
    200                              ST7579_SetPage(aHandle, 0);
   \   00017E A800                  MOVW      AX, [SP]           ;; 1 cycle
   \   000180 16                    MOVW      HL, AX             ;; 1 cycle
   \   000181 CEFC00                MOV       CS, #0x0           ;; 1 cycle
   \   000184 AB                    MOVW      AX, [HL]           ;; 1 cycle
   \   000185 16                    MOVW      HL, AX             ;; 1 cycle
   \   000186 AC02                  MOVW      AX, [HL+0x02]      ;; 1 cycle
   \   000188 14                    MOVW      DE, AX             ;; 1 cycle
   \   000189 5128                  MOV       A, #0x28           ;; 1 cycle
   \   00018B 61EA                  CALL      DE                 ;; 3 cycles
   \   00018D A800                  MOVW      AX, [SP]           ;; 1 cycle
   \   00018F 16                    MOVW      HL, AX             ;; 1 cycle
   \   000190 CEFC00                MOV       CS, #0x0           ;; 1 cycle
   \   000193 AB                    MOVW      AX, [HL]           ;; 1 cycle
   \   000194 16                    MOVW      HL, AX             ;; 1 cycle
   \   000195 AC02                  MOVW      AX, [HL+0x02]      ;; 1 cycle
   \   000197 14                    MOVW      DE, AX             ;; 1 cycle
   \   000198 5140                  MOV       A, #0x40           ;; 1 cycle
   \   00019A 61EA                  CALL      DE                 ;; 3 cycles
    201                              ST7579_SetChar(aHandle, 0);
   \   00019C A800                  MOVW      AX, [SP]           ;; 1 cycle
   \   00019E 16                    MOVW      HL, AX             ;; 1 cycle
   \   00019F CEFC00                MOV       CS, #0x0           ;; 1 cycle
   \   0001A2 AB                    MOVW      AX, [HL]           ;; 1 cycle
   \   0001A3 16                    MOVW      HL, AX             ;; 1 cycle
   \   0001A4 AC02                  MOVW      AX, [HL+0x02]      ;; 1 cycle
   \   0001A6 14                    MOVW      DE, AX             ;; 1 cycle
   \   0001A7 5128                  MOV       A, #0x28           ;; 1 cycle
   \   0001A9 61EA                  CALL      DE                 ;; 3 cycles
   \   0001AB A800                  MOVW      AX, [SP]           ;; 1 cycle
   \   0001AD 16                    MOVW      HL, AX             ;; 1 cycle
   \   0001AE CEFC00                MOV       CS, #0x0           ;; 1 cycle
   \   0001B1 AB                    MOVW      AX, [HL]           ;; 1 cycle
   \   0001B2 16                    MOVW      HL, AX             ;; 1 cycle
   \   0001B3 AC02                  MOVW      AX, [HL+0x02]      ;; 1 cycle
   \   0001B5 14                    MOVW      DE, AX             ;; 1 cycle
   \   0001B6 5180                  MOV       A, #0x80           ;; 1 cycle
   \   0001B8 ED....                BR        N:??ST7579_SetLine_59  ;; 3 cycles
   \   0001BB                       ; ------------------------------------- Block: 44 cycles
    202                              break;
    203                          case 2:
    204                              /* use reverse video to detect pixel changes */
    205                              ST7579_Send16bitsCommand(aHandle, LCD_DISPLAY_REVERSE);
   \                     ??ST7579_SetLine_54:
   \   0001BB A80A                  MOVW      AX, [SP+0x0A]      ;; 1 cycle
   \   0001BD 040200                ADDW      AX, #0x2           ;; 1 cycle
   \   0001C0 16                    MOVW      HL, AX             ;; 1 cycle
   \   0001C1 B800                  MOVW      [SP], AX           ;; 1 cycle
   \   0001C3 AB                    MOVW      AX, [HL]           ;; 1 cycle
   \   0001C4 16                    MOVW      HL, AX             ;; 1 cycle
   \   0001C5 CEFC00                MOV       CS, #0x0           ;; 1 cycle
   \   0001C8 AC02                  MOVW      AX, [HL+0x02]      ;; 1 cycle
   \   0001CA 14                    MOVW      DE, AX             ;; 1 cycle
   \   0001CB 5128                  MOV       A, #0x28           ;; 1 cycle
   \   0001CD 61EA                  CALL      DE                 ;; 3 cycles
   \   0001CF A800                  MOVW      AX, [SP]           ;; 1 cycle
   \   0001D1 16                    MOVW      HL, AX             ;; 1 cycle
   \   0001D2 CEFC00                MOV       CS, #0x0           ;; 1 cycle
   \   0001D5 AB                    MOVW      AX, [HL]           ;; 1 cycle
   \   0001D6 16                    MOVW      HL, AX             ;; 1 cycle
   \   0001D7 AC02                  MOVW      AX, [HL+0x02]      ;; 1 cycle
   \   0001D9 14                    MOVW      DE, AX             ;; 1 cycle
   \   0001DA 510D                  MOV       A, #0xD            ;; 1 cycle
   \   0001DC ED....                BR        N:??ST7579_SetLine_59  ;; 3 cycles
   \   0001DF                       ; ------------------------------------- Block: 24 cycles
    206                              break;
    207                          case 3:
    208                              /* use normal video to detect pixel changes */
    209                              ST7579_Send16bitsCommand(aHandle, LCD_DISPLAY_NORMAL);
   \                     ??ST7579_SetLine_55:
   \   0001DF A80A                  MOVW      AX, [SP+0x0A]      ;; 1 cycle
   \   0001E1 040200                ADDW      AX, #0x2           ;; 1 cycle
   \   0001E4 16                    MOVW      HL, AX             ;; 1 cycle
   \   0001E5 B800                  MOVW      [SP], AX           ;; 1 cycle
   \   0001E7 AB                    MOVW      AX, [HL]           ;; 1 cycle
   \   0001E8 16                    MOVW      HL, AX             ;; 1 cycle
   \   0001E9 CEFC00                MOV       CS, #0x0           ;; 1 cycle
   \   0001EC AC02                  MOVW      AX, [HL+0x02]      ;; 1 cycle
   \   0001EE 14                    MOVW      DE, AX             ;; 1 cycle
   \   0001EF 5128                  MOV       A, #0x28           ;; 1 cycle
   \   0001F1 61EA                  CALL      DE                 ;; 3 cycles
   \   0001F3 A800                  MOVW      AX, [SP]           ;; 1 cycle
   \   0001F5 16                    MOVW      HL, AX             ;; 1 cycle
   \   0001F6 CEFC00                MOV       CS, #0x0           ;; 1 cycle
   \   0001F9 AB                    MOVW      AX, [HL]           ;; 1 cycle
   \   0001FA 16                    MOVW      HL, AX             ;; 1 cycle
   \   0001FB AC02                  MOVW      AX, [HL+0x02]      ;; 1 cycle
   \   0001FD 14                    MOVW      DE, AX             ;; 1 cycle
   \   0001FE 510C                  MOV       A, #0xC            ;; 1 cycle
   \   000200 ED....                BR        N:??ST7579_SetLine_59  ;; 3 cycles
   \   000203                       ; ------------------------------------- Block: 24 cycles
    210                              break;
    211                          case 6:
    212                              for (pCounter=0;pCounter<8;pCounter++)  {
   \                     ??ST7579_SetLine_56:
   \   000203 F6                    CLRW      AX                 ;; 1 cycle
   \   000204 B802                  MOVW      [SP+0x02], AX      ;; 1 cycle
   \   000206 A80A                  MOVW      AX, [SP+0x0A]      ;; 1 cycle
   \   000208 040200                ADDW      AX, #0x2           ;; 1 cycle
   \   00020B B800                  MOVW      [SP], AX           ;; 1 cycle
   \   00020D                       ; ------------------------------------- Block: 5 cycles
    213                                  ST7579_SetLine(aHandle, 0);
   \                     ??ST7579_Write_2:
   \   00020D A800                  MOVW      AX, [SP]           ;; 1 cycle
   \   00020F 16                    MOVW      HL, AX             ;; 1 cycle
   \   000210 CEFC00                MOV       CS, #0x0           ;; 1 cycle
   \   000213 AB                    MOVW      AX, [HL]           ;; 1 cycle
   \   000214 16                    MOVW      HL, AX             ;; 1 cycle
   \   000215 AC02                  MOVW      AX, [HL+0x02]      ;; 1 cycle
   \   000217 14                    MOVW      DE, AX             ;; 1 cycle
   \   000218 5129                  MOV       A, #0x29           ;; 1 cycle
   \   00021A 61EA                  CALL      DE                 ;; 3 cycles
   \   00021C A800                  MOVW      AX, [SP]           ;; 1 cycle
   \   00021E 16                    MOVW      HL, AX             ;; 1 cycle
   \   00021F CEFC00                MOV       CS, #0x0           ;; 1 cycle
   \   000222 AB                    MOVW      AX, [HL]           ;; 1 cycle
   \   000223 16                    MOVW      HL, AX             ;; 1 cycle
   \   000224 AC02                  MOVW      AX, [HL+0x02]      ;; 1 cycle
   \   000226 14                    MOVW      DE, AX             ;; 1 cycle
   \   000227 5140                  MOV       A, #0x40           ;; 1 cycle
   \   000229 61EA                  CALL      DE                 ;; 3 cycles
   \   00022B A800                  MOVW      AX, [SP]           ;; 1 cycle
   \   00022D 16                    MOVW      HL, AX             ;; 1 cycle
   \   00022E CEFC00                MOV       CS, #0x0           ;; 1 cycle
   \   000231 AB                    MOVW      AX, [HL]           ;; 1 cycle
   \   000232 16                    MOVW      HL, AX             ;; 1 cycle
   \   000233 AC02                  MOVW      AX, [HL+0x02]      ;; 1 cycle
   \   000235 14                    MOVW      DE, AX             ;; 1 cycle
   \   000236 5104                  MOV       A, #0x4            ;; 1 cycle
   \   000238 61EA                  CALL      DE                 ;; 3 cycles
    214                                  ST7579_SetChar(aHandle, 0);              
   \   00023A A800                  MOVW      AX, [SP]           ;; 1 cycle
   \   00023C 16                    MOVW      HL, AX             ;; 1 cycle
   \   00023D CEFC00                MOV       CS, #0x0           ;; 1 cycle
   \   000240 AB                    MOVW      AX, [HL]           ;; 1 cycle
   \   000241 16                    MOVW      HL, AX             ;; 1 cycle
   \   000242 AC02                  MOVW      AX, [HL+0x02]      ;; 1 cycle
   \   000244 14                    MOVW      DE, AX             ;; 1 cycle
   \   000245 5128                  MOV       A, #0x28           ;; 1 cycle
   \   000247 61EA                  CALL      DE                 ;; 3 cycles
   \   000249 A800                  MOVW      AX, [SP]           ;; 1 cycle
   \   00024B 16                    MOVW      HL, AX             ;; 1 cycle
   \   00024C CEFC00                MOV       CS, #0x0           ;; 1 cycle
   \   00024F AB                    MOVW      AX, [HL]           ;; 1 cycle
   \   000250 16                    MOVW      HL, AX             ;; 1 cycle
   \   000251 AC02                  MOVW      AX, [HL+0x02]      ;; 1 cycle
   \   000253 14                    MOVW      DE, AX             ;; 1 cycle
   \   000254 5180                  MOV       A, #0x80           ;; 1 cycle
   \   000256 61EA                  CALL      DE                 ;; 3 cycles
    215                                  ST7579_SetPage(aHandle, pCounter);
   \   000258 A800                  MOVW      AX, [SP]           ;; 1 cycle
   \   00025A 16                    MOVW      HL, AX             ;; 1 cycle
   \   00025B CEFC00                MOV       CS, #0x0           ;; 1 cycle
   \   00025E AB                    MOVW      AX, [HL]           ;; 1 cycle
   \   00025F 16                    MOVW      HL, AX             ;; 1 cycle
   \   000260 AC02                  MOVW      AX, [HL+0x02]      ;; 1 cycle
   \   000262 14                    MOVW      DE, AX             ;; 1 cycle
   \   000263 5128                  MOV       A, #0x28           ;; 1 cycle
   \   000265 61EA                  CALL      DE                 ;; 3 cycles
   \   000267 A802                  MOVW      AX, [SP+0x02]      ;; 1 cycle
   \   000269 60                    MOV       A, X               ;; 1 cycle
   \   00026A 5C4F                  AND       A, #0x4F           ;; 1 cycle
   \   00026C 6C40                  OR        A, #0x40           ;; 1 cycle
   \   00026E 73                    MOV       B, A               ;; 1 cycle
   \   00026F A800                  MOVW      AX, [SP]           ;; 1 cycle
   \   000271 16                    MOVW      HL, AX             ;; 1 cycle
   \   000272 CEFC00                MOV       CS, #0x0           ;; 1 cycle
   \   000275 AB                    MOVW      AX, [HL]           ;; 1 cycle
   \   000276 16                    MOVW      HL, AX             ;; 1 cycle
   \   000277 AC02                  MOVW      AX, [HL+0x02]      ;; 1 cycle
   \   000279 14                    MOVW      DE, AX             ;; 1 cycle
   \   00027A 63                    MOV       A, B               ;; 1 cycle
   \   00027B 61EA                  CALL      DE                 ;; 3 cycles
    216                                  for (column=0;column<16;column++)   {
   \   00027D 5310                  MOV       B, #0x10           ;; 1 cycle
   \   00027F                       ; ------------------------------------- Block: 83 cycles
    217                                      p_gw->iCommAPI->iDataSend(0xFF);
   \                     ??ST7579_Write_3:
   \   00027F 51FF                  MOV       A, #0xFF           ;; 1 cycle
   \   000281 16                    MOVW      HL, AX             ;; 1 cycle
   \   000282 A800                  MOVW      AX, [SP]           ;; 1 cycle
   \   000284 37                    XCHW      AX, HL             ;; 1 cycle
   \   000285 14                    MOVW      DE, AX             ;; 1 cycle
   \   000286 AB                    MOVW      AX, [HL]           ;; 1 cycle
   \   000287 35                    XCHW      AX, DE             ;; 1 cycle
   \   000288 C5                    PUSH      DE                 ;; 1 cycle
   \   000289 C6                    POP       HL                 ;; 1 cycle
   \   00028A 14                    MOVW      DE, AX             ;; 1 cycle
   \   00028B AC04                  MOVW      AX, [HL+0x04]      ;; 1 cycle
   \   00028D 35                    XCHW      AX, DE             ;; 1 cycle
   \   00028E CEFC00                MOV       CS, #0x0           ;; 1 cycle
   \   000291 61EA                  CALL      DE                 ;; 3 cycles
    218                                      p_gw->iCommAPI->iDataSend(0x01);
   \   000293 E1                    ONEB      A                  ;; 1 cycle
   \   000294 16                    MOVW      HL, AX             ;; 1 cycle
   \   000295 A800                  MOVW      AX, [SP]           ;; 1 cycle
   \   000297 37                    XCHW      AX, HL             ;; 1 cycle
   \   000298 14                    MOVW      DE, AX             ;; 1 cycle
   \   000299 AB                    MOVW      AX, [HL]           ;; 1 cycle
   \   00029A 35                    XCHW      AX, DE             ;; 1 cycle
   \   00029B C5                    PUSH      DE                 ;; 1 cycle
   \   00029C C6                    POP       HL                 ;; 1 cycle
   \   00029D 14                    MOVW      DE, AX             ;; 1 cycle
   \   00029E AC04                  MOVW      AX, [HL+0x04]      ;; 1 cycle
   \   0002A0 35                    XCHW      AX, DE             ;; 1 cycle
   \   0002A1 CEFC00                MOV       CS, #0x0           ;; 1 cycle
   \   0002A4 61EA                  CALL      DE                 ;; 3 cycles
    219                                      p_gw->iCommAPI->iDataSend(0x01);
   \   0002A6 E1                    ONEB      A                  ;; 1 cycle
   \   0002A7 16                    MOVW      HL, AX             ;; 1 cycle
   \   0002A8 A800                  MOVW      AX, [SP]           ;; 1 cycle
   \   0002AA 37                    XCHW      AX, HL             ;; 1 cycle
   \   0002AB 14                    MOVW      DE, AX             ;; 1 cycle
   \   0002AC AB                    MOVW      AX, [HL]           ;; 1 cycle
   \   0002AD 35                    XCHW      AX, DE             ;; 1 cycle
   \   0002AE C5                    PUSH      DE                 ;; 1 cycle
   \   0002AF C6                    POP       HL                 ;; 1 cycle
   \   0002B0 14                    MOVW      DE, AX             ;; 1 cycle
   \   0002B1 AC04                  MOVW      AX, [HL+0x04]      ;; 1 cycle
   \   0002B3 35                    XCHW      AX, DE             ;; 1 cycle
   \   0002B4 CEFC00                MOV       CS, #0x0           ;; 1 cycle
   \   0002B7 61EA                  CALL      DE                 ;; 3 cycles
    220                                      p_gw->iCommAPI->iDataSend(0x01);
   \   0002B9 E1                    ONEB      A                  ;; 1 cycle
   \   0002BA 16                    MOVW      HL, AX             ;; 1 cycle
   \   0002BB A800                  MOVW      AX, [SP]           ;; 1 cycle
   \   0002BD 37                    XCHW      AX, HL             ;; 1 cycle
   \   0002BE 14                    MOVW      DE, AX             ;; 1 cycle
   \   0002BF AB                    MOVW      AX, [HL]           ;; 1 cycle
   \   0002C0 35                    XCHW      AX, DE             ;; 1 cycle
   \   0002C1 C5                    PUSH      DE                 ;; 1 cycle
   \   0002C2 C6                    POP       HL                 ;; 1 cycle
   \   0002C3 14                    MOVW      DE, AX             ;; 1 cycle
   \   0002C4 AC04                  MOVW      AX, [HL+0x04]      ;; 1 cycle
   \   0002C6 35                    XCHW      AX, DE             ;; 1 cycle
   \   0002C7 CEFC00                MOV       CS, #0x0           ;; 1 cycle
   \   0002CA 61EA                  CALL      DE                 ;; 3 cycles
    221                                      p_gw->iCommAPI->iDataSend(0x01);
   \   0002CC E1                    ONEB      A                  ;; 1 cycle
   \   0002CD 16                    MOVW      HL, AX             ;; 1 cycle
   \   0002CE A800                  MOVW      AX, [SP]           ;; 1 cycle
   \   0002D0 37                    XCHW      AX, HL             ;; 1 cycle
   \   0002D1 14                    MOVW      DE, AX             ;; 1 cycle
   \   0002D2 AB                    MOVW      AX, [HL]           ;; 1 cycle
   \   0002D3 35                    XCHW      AX, DE             ;; 1 cycle
   \   0002D4 C5                    PUSH      DE                 ;; 1 cycle
   \   0002D5 C6                    POP       HL                 ;; 1 cycle
   \   0002D6 14                    MOVW      DE, AX             ;; 1 cycle
   \   0002D7 AC04                  MOVW      AX, [HL+0x04]      ;; 1 cycle
   \   0002D9 35                    XCHW      AX, DE             ;; 1 cycle
   \   0002DA CEFC00                MOV       CS, #0x0           ;; 1 cycle
   \   0002DD 61EA                  CALL      DE                 ;; 3 cycles
    222                                      p_gw->iCommAPI->iDataSend(0x01);
   \   0002DF E1                    ONEB      A                  ;; 1 cycle
   \   0002E0 16                    MOVW      HL, AX             ;; 1 cycle
   \   0002E1 A800                  MOVW      AX, [SP]           ;; 1 cycle
   \   0002E3 37                    XCHW      AX, HL             ;; 1 cycle
   \   0002E4 14                    MOVW      DE, AX             ;; 1 cycle
   \   0002E5 AB                    MOVW      AX, [HL]           ;; 1 cycle
   \   0002E6 35                    XCHW      AX, DE             ;; 1 cycle
   \   0002E7 C5                    PUSH      DE                 ;; 1 cycle
   \   0002E8 C6                    POP       HL                 ;; 1 cycle
   \   0002E9 14                    MOVW      DE, AX             ;; 1 cycle
   \   0002EA AC04                  MOVW      AX, [HL+0x04]      ;; 1 cycle
   \   0002EC 35                    XCHW      AX, DE             ;; 1 cycle
   \   0002ED CEFC00                MOV       CS, #0x0           ;; 1 cycle
   \   0002F0 61EA                  CALL      DE                 ;; 3 cycles
    223                                      p_gw->iCommAPI->iDataSend(0x01);
   \   0002F2 E1                    ONEB      A                  ;; 1 cycle
   \   0002F3 16                    MOVW      HL, AX             ;; 1 cycle
   \   0002F4 A800                  MOVW      AX, [SP]           ;; 1 cycle
   \   0002F6 37                    XCHW      AX, HL             ;; 1 cycle
   \   0002F7 14                    MOVW      DE, AX             ;; 1 cycle
   \   0002F8 AB                    MOVW      AX, [HL]           ;; 1 cycle
   \   0002F9 35                    XCHW      AX, DE             ;; 1 cycle
   \   0002FA C5                    PUSH      DE                 ;; 1 cycle
   \   0002FB C6                    POP       HL                 ;; 1 cycle
   \   0002FC 14                    MOVW      DE, AX             ;; 1 cycle
   \   0002FD AC04                  MOVW      AX, [HL+0x04]      ;; 1 cycle
   \   0002FF 35                    XCHW      AX, DE             ;; 1 cycle
   \   000300 CEFC00                MOV       CS, #0x0           ;; 1 cycle
   \   000303 61EA                  CALL      DE                 ;; 3 cycles
    224                                      p_gw->iCommAPI->iDataSend(0x01);
   \   000305 E1                    ONEB      A                  ;; 1 cycle
   \   000306 16                    MOVW      HL, AX             ;; 1 cycle
   \   000307 A800                  MOVW      AX, [SP]           ;; 1 cycle
   \   000309 37                    XCHW      AX, HL             ;; 1 cycle
   \   00030A 14                    MOVW      DE, AX             ;; 1 cycle
   \   00030B AB                    MOVW      AX, [HL]           ;; 1 cycle
   \   00030C 35                    XCHW      AX, DE             ;; 1 cycle
   \   00030D C5                    PUSH      DE                 ;; 1 cycle
   \   00030E C6                    POP       HL                 ;; 1 cycle
   \   00030F 14                    MOVW      DE, AX             ;; 1 cycle
   \   000310 AC04                  MOVW      AX, [HL+0x04]      ;; 1 cycle
   \   000312 35                    XCHW      AX, DE             ;; 1 cycle
   \   000313 CEFC00                MOV       CS, #0x0           ;; 1 cycle
   \   000316 61EA                  CALL      DE                 ;; 3 cycles
    225                                  }
   \   000318 93                    DEC       B                  ;; 1 cycle
   \   000319 61E8                  SKZ                          ;; 4 cycles
   \   00031B ED....                BR        N:??ST7579_Write_3  ;; 4 cycles
   \   00031E                       ; ------------------------------------- Block: 133 cycles
    226                              }                                       
   \   00031E A802                  MOVW      AX, [SP+0x02]      ;; 1 cycle
   \   000320 A1                    INCW      AX                 ;; 1 cycle
   \   000321 440800                CMPW      AX, #0x8           ;; 1 cycle
   \   000324 B802                  MOVW      [SP+0x02], AX      ;; 1 cycle
   \   000326 61C8                  SKC                          ;; 4 cycles
   \   000328 ED....                BR        N:??ST7579_SetLine_49  ;; 4 cycles
   \   00032B                       ; ------------------------------------- Block: 8 cycles
   \   00032B ED....                BR        N:??ST7579_Write_2  ;; 3 cycles
   \   00032E                       ; ------------------------------------- Block: 3 cycles
    227                              break;
    228                              
    229                          case 7: // Draw block
    230                              line = p_gw->iLCDAPI->iCharY_Position - (p_gw->iLCDAPI->iCharY_Position % 8);   // Gets the nearest block boundary
   \                     ??ST7579_SetLine_57:
   \   00032E A80A                  MOVW      AX, [SP+0x0A]      ;; 1 cycle
   \   000330 16                    MOVW      HL, AX             ;; 1 cycle
   \   000331 AB                    MOVW      AX, [HL]           ;; 1 cycle
   \   000332 16                    MOVW      HL, AX             ;; 1 cycle
   \   000333 A7                    INCW      HL                 ;; 1 cycle
   \   000334 A7                    INCW      HL                 ;; 1 cycle
   \   000335 A7                    INCW      HL                 ;; 1 cycle
   \   000336 A7                    INCW      HL                 ;; 1 cycle
   \   000337 B806                  MOVW      [SP+0x06], AX      ;; 1 cycle
   \   000339 AB                    MOVW      AX, [HL]           ;; 1 cycle
   \   00033A 16                    MOVW      HL, AX             ;; 1 cycle
   \   00033B 60                    MOV       A, X               ;; 1 cycle
   \   00033C F0                    CLRB      X                  ;; 1 cycle
   \   00033D 5C07                  AND       A, #0x7            ;; 1 cycle
   \   00033F 08                    XCH       A, X               ;; 1 cycle
   \   000340 14                    MOVW      DE, AX             ;; 1 cycle
   \   000341 17                    MOVW      AX, HL             ;; 1 cycle
   \   000342 25                    SUBW      AX, DE             ;; 1 cycle
   \   000343 B802                  MOVW      [SP+0x02], AX      ;; 1 cycle
    231                              cmd = 0xFF;
    232                              
    233                              if (p_gw->iLCDAPI->iCharY_Position < (line + 8))
   \   000345 040800                ADDW      AX, #0x8           ;; 1 cycle
   \   000348 47                    CMPW      AX, HL             ;; 1 cycle
   \   000349 61D30F                BNH       ??ST7579_SetLine_60  ;; 4 cycles
   \   00034C                       ; ------------------------------------- Block: 25 cycles
    234                                      cmd &= (0xFF << (p_gw->iLCDAPI->iCharY_Position - line));
   \   00034C A802                  MOVW      AX, [SP+0x02]      ;; 1 cycle
   \   00034E 66                    MOV       A, L               ;; 1 cycle
   \   00034F 6128                  SUB       A, X               ;; 1 cycle
   \   000351 72                    MOV       C, A               ;; 1 cycle
   \   000352 30FF00                MOVW      AX, #0xFF          ;; 1 cycle
   \   000355 FD....                CALL      N:?I_LSH_L02       ;; 3 cycles
   \   000358 60                    MOV       A, X               ;; 1 cycle
   \   000359 9804                  MOV       [SP+0x04], A       ;; 1 cycle
   \   00035B                       ; ------------------------------------- Block: 10 cycles
    235                              
    236                              for ( ; line<=p_gw->iLCDAPI->iCharY2_Position; line+=8) {
   \                     ??ST7579_SetLine_60:
   \   00035B A802                  MOVW      AX, [SP+0x02]      ;; 1 cycle
   \   00035D 16                    MOVW      HL, AX             ;; 1 cycle
   \   00035E A806                  MOVW      AX, [SP+0x06]      ;; 1 cycle
   \   000360 14                    MOVW      DE, AX             ;; 1 cycle
   \   000361 AA08                  MOVW      AX, [DE+0x08]      ;; 1 cycle
   \   000363 47                    CMPW      AX, HL             ;; 1 cycle
   \   000364 61D8                  SKNC                         ;; 4 cycles
   \   000366 ED....                BR        N:??ST7579_SetLine_49  ;; 4 cycles
   \   000369                       ; ------------------------------------- Block: 10 cycles
    237                                  
    238                                  ST7579_SetPage(aHandle, line/8);
   \                     ??ST7579_Write_4:
   \   000369 A802                  MOVW      AX, [SP+0x02]      ;; 1 cycle
   \   00036B 313E                  SHRW      AX, 0x3            ;; 1 cycle
   \   00036D 60                    MOV       A, X               ;; 1 cycle
   \   00036E 73                    MOV       B, A               ;; 1 cycle
   \   00036F 7C80                  XOR       A, #0x80           ;; 1 cycle
   \   000371 2C8A                  SUB       A, #0x8A           ;; 1 cycle
   \   000373 DE2F                  BNC       ??ST7579_SetLine_61  ;; 4 cycles
   \   000375                       ; ------------------------------------- Block: 10 cycles
   \   000375 A80A                  MOVW      AX, [SP+0x0A]      ;; 1 cycle
   \   000377 040200                ADDW      AX, #0x2           ;; 1 cycle
   \   00037A B800                  MOVW      [SP], AX           ;; 1 cycle
   \   00037C 5128                  MOV       A, #0x28           ;; 1 cycle
   \   00037E 16                    MOVW      HL, AX             ;; 1 cycle
   \   00037F A800                  MOVW      AX, [SP]           ;; 1 cycle
   \   000381 37                    XCHW      AX, HL             ;; 1 cycle
   \   000382 14                    MOVW      DE, AX             ;; 1 cycle
   \   000383 AB                    MOVW      AX, [HL]           ;; 1 cycle
   \   000384 35                    XCHW      AX, DE             ;; 1 cycle
   \   000385 C5                    PUSH      DE                 ;; 1 cycle
   \   000386 C6                    POP       HL                 ;; 1 cycle
   \   000387 14                    MOVW      DE, AX             ;; 1 cycle
   \   000388 AC02                  MOVW      AX, [HL+0x02]      ;; 1 cycle
   \   00038A 35                    XCHW      AX, DE             ;; 1 cycle
   \   00038B CEFC00                MOV       CS, #0x0           ;; 1 cycle
   \   00038E 61EA                  CALL      DE                 ;; 3 cycles
   \   000390 63                    MOV       A, B               ;; 1 cycle
   \   000391 5C4F                  AND       A, #0x4F           ;; 1 cycle
   \   000393 6C40                  OR        A, #0x40           ;; 1 cycle
   \   000395 73                    MOV       B, A               ;; 1 cycle
   \   000396 A800                  MOVW      AX, [SP]           ;; 1 cycle
   \   000398 16                    MOVW      HL, AX             ;; 1 cycle
   \   000399 CEFC00                MOV       CS, #0x0           ;; 1 cycle
   \   00039C AB                    MOVW      AX, [HL]           ;; 1 cycle
   \   00039D 16                    MOVW      HL, AX             ;; 1 cycle
   \   00039E AC02                  MOVW      AX, [HL+0x02]      ;; 1 cycle
   \   0003A0 14                    MOVW      DE, AX             ;; 1 cycle
   \   0003A1 63                    MOV       A, B               ;; 1 cycle
   \   0003A2 61EA                  CALL      DE                 ;; 3 cycles
   \   0003A4                       ; ------------------------------------- Block: 34 cycles
    239                                  ST7579_SetChar(aHandle, p_gw->iLCDAPI->iCharX_Position);
   \                     ??ST7579_SetLine_61:
   \   0003A4 A80A                  MOVW      AX, [SP+0x0A]      ;; 1 cycle
   \   0003A6 16                    MOVW      HL, AX             ;; 1 cycle
   \   0003A7 AB                    MOVW      AX, [HL]           ;; 1 cycle
   \   0003A8 16                    MOVW      HL, AX             ;; 1 cycle
   \   0003A9 AC02                  MOVW      AX, [HL+0x02]      ;; 1 cycle
   \   0003AB 60                    MOV       A, X               ;; 1 cycle
   \   0003AC 73                    MOV       B, A               ;; 1 cycle
   \   0003AD 7C80                  XOR       A, #0x80           ;; 1 cycle
   \   0003AF 2CE6                  SUB       A, #0xE6           ;; 1 cycle
   \   0003B1 DE2D                  BNC       ??ST7579_SetLine_62  ;; 4 cycles
   \   0003B3                       ; ------------------------------------- Block: 13 cycles
   \   0003B3 A80A                  MOVW      AX, [SP+0x0A]      ;; 1 cycle
   \   0003B5 040200                ADDW      AX, #0x2           ;; 1 cycle
   \   0003B8 B800                  MOVW      [SP], AX           ;; 1 cycle
   \   0003BA 5128                  MOV       A, #0x28           ;; 1 cycle
   \   0003BC 16                    MOVW      HL, AX             ;; 1 cycle
   \   0003BD A800                  MOVW      AX, [SP]           ;; 1 cycle
   \   0003BF 37                    XCHW      AX, HL             ;; 1 cycle
   \   0003C0 14                    MOVW      DE, AX             ;; 1 cycle
   \   0003C1 AB                    MOVW      AX, [HL]           ;; 1 cycle
   \   0003C2 35                    XCHW      AX, DE             ;; 1 cycle
   \   0003C3 C5                    PUSH      DE                 ;; 1 cycle
   \   0003C4 C6                    POP       HL                 ;; 1 cycle
   \   0003C5 14                    MOVW      DE, AX             ;; 1 cycle
   \   0003C6 AC02                  MOVW      AX, [HL+0x02]      ;; 1 cycle
   \   0003C8 35                    XCHW      AX, DE             ;; 1 cycle
   \   0003C9 CEFC00                MOV       CS, #0x0           ;; 1 cycle
   \   0003CC 61EA                  CALL      DE                 ;; 3 cycles
   \   0003CE 63                    MOV       A, B               ;; 1 cycle
   \   0003CF 6C80                  OR        A, #0x80           ;; 1 cycle
   \   0003D1 73                    MOV       B, A               ;; 1 cycle
   \   0003D2 A800                  MOVW      AX, [SP]           ;; 1 cycle
   \   0003D4 16                    MOVW      HL, AX             ;; 1 cycle
   \   0003D5 CEFC00                MOV       CS, #0x0           ;; 1 cycle
   \   0003D8 AB                    MOVW      AX, [HL]           ;; 1 cycle
   \   0003D9 16                    MOVW      HL, AX             ;; 1 cycle
   \   0003DA AC02                  MOVW      AX, [HL+0x02]      ;; 1 cycle
   \   0003DC 14                    MOVW      DE, AX             ;; 1 cycle
   \   0003DD 63                    MOV       A, B               ;; 1 cycle
   \   0003DE 61EA                  CALL      DE                 ;; 3 cycles
   \   0003E0                       ; ------------------------------------- Block: 33 cycles
    240                                 
    241                                  if ((line+8) > p_gw->iLCDAPI->iCharY2_Position) /* If we're ending midway through a line */
   \                     ??ST7579_SetLine_62:
   \   0003E0 A80A                  MOVW      AX, [SP+0x0A]      ;; 1 cycle
   \   0003E2 16                    MOVW      HL, AX             ;; 1 cycle
   \   0003E3 AB                    MOVW      AX, [HL]           ;; 1 cycle
   \   0003E4 B806                  MOVW      [SP+0x06], AX      ;; 1 cycle
   \   0003E6 040800                ADDW      AX, #0x8           ;; 1 cycle
   \   0003E9 16                    MOVW      HL, AX             ;; 1 cycle
   \   0003EA A802                  MOVW      AX, [SP+0x02]      ;; 1 cycle
   \   0003EC 040800                ADDW      AX, #0x8           ;; 1 cycle
   \   0003EF 14                    MOVW      DE, AX             ;; 1 cycle
   \   0003F0 AB                    MOVW      AX, [HL]           ;; 1 cycle
   \   0003F1 45                    CMPW      AX, DE             ;; 1 cycle
   \   0003F2 DE16                  BNC       ??ST7579_SetLine_63  ;; 4 cycles
   \   0003F4                       ; ------------------------------------- Block: 15 cycles
    242                                      cmd &= (0xFF >> ((line+7) - p_gw->iLCDAPI->iCharY2_Position));
   \   0003F4 60                    MOV       A, X               ;; 1 cycle
   \   0003F5 73                    MOV       B, A               ;; 1 cycle
   \   0003F6 A802                  MOVW      AX, [SP+0x02]      ;; 1 cycle
   \   0003F8 60                    MOV       A, X               ;; 1 cycle
   \   0003F9 0C07                  ADD       A, #0x7            ;; 1 cycle
   \   0003FB 612B                  SUB       A, B               ;; 1 cycle
   \   0003FD 72                    MOV       C, A               ;; 1 cycle
   \   0003FE 30FF00                MOVW      AX, #0xFF          ;; 1 cycle
   \   000401 FD....                CALL      N:?SI_RSH_L02      ;; 3 cycles
   \   000404 8804                  MOV       A, [SP+0x04]       ;; 1 cycle
   \   000406 6158                  AND       A, X               ;; 1 cycle
   \   000408 9804                  MOV       [SP+0x04], A       ;; 1 cycle
   \   00040A                       ; ------------------------------------- Block: 14 cycles
    243                                  
    244                                  /* This code fills in the row column by column, one px at a time */
    245                                  for (column=p_gw->iLCDAPI->iCharX_Position; column<=p_gw->iLCDAPI->iCharX2_Position; column++)    {
   \                     ??ST7579_SetLine_63:
   \   00040A A806                  MOVW      AX, [SP+0x06]      ;; 1 cycle
   \   00040C 16                    MOVW      HL, AX             ;; 1 cycle
   \   00040D AC02                  MOVW      AX, [HL+0x02]      ;; 1 cycle
   \   00040F 12                    MOVW      BC, AX             ;; 1 cycle
   \   000410 A80A                  MOVW      AX, [SP+0x0A]      ;; 1 cycle
   \   000412 040200                ADDW      AX, #0x2           ;; 1 cycle
   \   000415 B800                  MOVW      [SP], AX           ;; 1 cycle
   \   000417 AC06                  MOVW      AX, [HL+0x06]      ;; 1 cycle
   \   000419 43                    CMPW      AX, BC             ;; 1 cycle
   \   00041A DC1F                  BC        ??ST7579_SetLine_64  ;; 4 cycles
   \   00041C                       ; ------------------------------------- Block: 13 cycles
    246                                      p_gw->iCommAPI->iDataSend(cmd); // No_Clobber_Axes(cmd, column, line));
   \                     ??ST7579_Write_5:
   \   00041C 8804                  MOV       A, [SP+0x04]       ;; 1 cycle
   \   00041E 16                    MOVW      HL, AX             ;; 1 cycle
   \   00041F A800                  MOVW      AX, [SP]           ;; 1 cycle
   \   000421 37                    XCHW      AX, HL             ;; 1 cycle
   \   000422 14                    MOVW      DE, AX             ;; 1 cycle
   \   000423 AB                    MOVW      AX, [HL]           ;; 1 cycle
   \   000424 35                    XCHW      AX, DE             ;; 1 cycle
   \   000425 C5                    PUSH      DE                 ;; 1 cycle
   \   000426 C6                    POP       HL                 ;; 1 cycle
   \   000427 14                    MOVW      DE, AX             ;; 1 cycle
   \   000428 AC04                  MOVW      AX, [HL+0x04]      ;; 1 cycle
   \   00042A 35                    XCHW      AX, DE             ;; 1 cycle
   \   00042B CEFC00                MOV       CS, #0x0           ;; 1 cycle
   \   00042E 61EA                  CALL      DE                 ;; 3 cycles
    247                                  }
   \   000430 A80A                  MOVW      AX, [SP+0x0A]      ;; 1 cycle
   \   000432 16                    MOVW      HL, AX             ;; 1 cycle
   \   000433 A3                    INCW      BC                 ;; 1 cycle
   \   000434 AB                    MOVW      AX, [HL]           ;; 1 cycle
   \   000435 16                    MOVW      HL, AX             ;; 1 cycle
   \   000436 AC06                  MOVW      AX, [HL+0x06]      ;; 1 cycle
   \   000438 43                    CMPW      AX, BC             ;; 1 cycle
   \   000439 DEE1                  BNC       ??ST7579_Write_5   ;; 4 cycles
   \   00043B                       ; ------------------------------------- Block: 27 cycles
    248                                  
    249                                  cmd = 0xFF;
   \                     ??ST7579_SetLine_64:
   \   00043B 51FF                  MOV       A, #0xFF           ;; 1 cycle
   \   00043D 9804                  MOV       [SP+0x04], A       ;; 1 cycle
    250                              }
   \   00043F A802                  MOVW      AX, [SP+0x02]      ;; 1 cycle
   \   000441 040800                ADDW      AX, #0x8           ;; 1 cycle
   \   000444 B802                  MOVW      [SP+0x02], AX      ;; 1 cycle
   \   000446 16                    MOVW      HL, AX             ;; 1 cycle
   \   000447 A80A                  MOVW      AX, [SP+0x0A]      ;; 1 cycle
   \   000449 14                    MOVW      DE, AX             ;; 1 cycle
   \   00044A A9                    MOVW      AX, [DE]           ;; 1 cycle
   \   00044B 14                    MOVW      DE, AX             ;; 1 cycle
   \   00044C AA08                  MOVW      AX, [DE+0x08]      ;; 1 cycle
   \   00044E 47                    CMPW      AX, HL             ;; 1 cycle
   \   00044F 61D8                  SKNC                         ;; 4 cycles
   \   000451 ED....                BR        N:??ST7579_SetLine_49  ;; 4 cycles
   \   000454                       ; ------------------------------------- Block: 16 cycles
   \   000454 ED....                BR        N:??ST7579_Write_4  ;; 3 cycles
   \   000457                       ; ------------------------------------- Block: 3 cycles
    251                              break;
    252                              
    253                          case 8: // Erase block
    254                              line = p_gw->iLCDAPI->iCharY_Position - (p_gw->iLCDAPI->iCharY_Position % 8);
   \                     ??ST7579_SetLine_58:
   \   000457 A80A                  MOVW      AX, [SP+0x0A]      ;; 1 cycle
   \   000459 16                    MOVW      HL, AX             ;; 1 cycle
   \   00045A AB                    MOVW      AX, [HL]           ;; 1 cycle
   \   00045B 16                    MOVW      HL, AX             ;; 1 cycle
   \   00045C A7                    INCW      HL                 ;; 1 cycle
   \   00045D A7                    INCW      HL                 ;; 1 cycle
   \   00045E A7                    INCW      HL                 ;; 1 cycle
   \   00045F A7                    INCW      HL                 ;; 1 cycle
   \   000460 B806                  MOVW      [SP+0x06], AX      ;; 1 cycle
   \   000462 AB                    MOVW      AX, [HL]           ;; 1 cycle
   \   000463 16                    MOVW      HL, AX             ;; 1 cycle
   \   000464 60                    MOV       A, X               ;; 1 cycle
   \   000465 F0                    CLRB      X                  ;; 1 cycle
   \   000466 5C07                  AND       A, #0x7            ;; 1 cycle
   \   000468 08                    XCH       A, X               ;; 1 cycle
   \   000469 14                    MOVW      DE, AX             ;; 1 cycle
   \   00046A 17                    MOVW      AX, HL             ;; 1 cycle
   \   00046B 25                    SUBW      AX, DE             ;; 1 cycle
   \   00046C B802                  MOVW      [SP+0x02], AX      ;; 1 cycle
    255                              cmd = 0x00;
    256                              
    257                              if (p_gw->iLCDAPI->iCharY_Position < (line + 8))
   \   00046E A80A                  MOVW      AX, [SP+0x0A]      ;; 1 cycle
   \   000470 040200                ADDW      AX, #0x2           ;; 1 cycle
   \   000473 B800                  MOVW      [SP], AX           ;; 1 cycle
    258                                      cmd &= (0xFF << (p_gw->iLCDAPI->iCharY_Position - line));
    259                              
    260                              for ( ; line<=p_gw->iLCDAPI->iCharY2_Position; line+=8) {
   \   000475 A802                  MOVW      AX, [SP+0x02]      ;; 1 cycle
   \   000477 16                    MOVW      HL, AX             ;; 1 cycle
   \   000478 A806                  MOVW      AX, [SP+0x06]      ;; 1 cycle
   \   00047A 14                    MOVW      DE, AX             ;; 1 cycle
   \   00047B AA08                  MOVW      AX, [DE+0x08]      ;; 1 cycle
   \   00047D 47                    CMPW      AX, HL             ;; 1 cycle
   \   00047E 61D8                  SKNC                         ;; 4 cycles
   \   000480 ED....                BR        N:??ST7579_SetLine_49  ;; 4 cycles
   \   000483                       ; ------------------------------------- Block: 32 cycles
    261                                  ST7579_SetPage(aHandle, line/8);
   \                     ??ST7579_Write_6:
   \   000483 A802                  MOVW      AX, [SP+0x02]      ;; 1 cycle
   \   000485 313E                  SHRW      AX, 0x3            ;; 1 cycle
   \   000487 60                    MOV       A, X               ;; 1 cycle
   \   000488 73                    MOV       B, A               ;; 1 cycle
   \   000489 7C80                  XOR       A, #0x80           ;; 1 cycle
   \   00048B 2C8A                  SUB       A, #0x8A           ;; 1 cycle
   \   00048D DE28                  BNC       ??ST7579_SetLine_65  ;; 4 cycles
   \   00048F                       ; ------------------------------------- Block: 10 cycles
   \   00048F 5128                  MOV       A, #0x28           ;; 1 cycle
   \   000491 16                    MOVW      HL, AX             ;; 1 cycle
   \   000492 A800                  MOVW      AX, [SP]           ;; 1 cycle
   \   000494 37                    XCHW      AX, HL             ;; 1 cycle
   \   000495 14                    MOVW      DE, AX             ;; 1 cycle
   \   000496 AB                    MOVW      AX, [HL]           ;; 1 cycle
   \   000497 35                    XCHW      AX, DE             ;; 1 cycle
   \   000498 C5                    PUSH      DE                 ;; 1 cycle
   \   000499 C6                    POP       HL                 ;; 1 cycle
   \   00049A 14                    MOVW      DE, AX             ;; 1 cycle
   \   00049B AC02                  MOVW      AX, [HL+0x02]      ;; 1 cycle
   \   00049D 35                    XCHW      AX, DE             ;; 1 cycle
   \   00049E CEFC00                MOV       CS, #0x0           ;; 1 cycle
   \   0004A1 61EA                  CALL      DE                 ;; 3 cycles
   \   0004A3 63                    MOV       A, B               ;; 1 cycle
   \   0004A4 5C4F                  AND       A, #0x4F           ;; 1 cycle
   \   0004A6 6C40                  OR        A, #0x40           ;; 1 cycle
   \   0004A8 73                    MOV       B, A               ;; 1 cycle
   \   0004A9 A800                  MOVW      AX, [SP]           ;; 1 cycle
   \   0004AB 16                    MOVW      HL, AX             ;; 1 cycle
   \   0004AC CEFC00                MOV       CS, #0x0           ;; 1 cycle
   \   0004AF AB                    MOVW      AX, [HL]           ;; 1 cycle
   \   0004B0 16                    MOVW      HL, AX             ;; 1 cycle
   \   0004B1 AC02                  MOVW      AX, [HL+0x02]      ;; 1 cycle
   \   0004B3 14                    MOVW      DE, AX             ;; 1 cycle
   \   0004B4 63                    MOV       A, B               ;; 1 cycle
   \   0004B5 61EA                  CALL      DE                 ;; 3 cycles
   \   0004B7                       ; ------------------------------------- Block: 31 cycles
    262                                  ST7579_SetChar(aHandle, p_gw->iLCDAPI->iCharX_Position);
   \                     ??ST7579_SetLine_65:
   \   0004B7 A80A                  MOVW      AX, [SP+0x0A]      ;; 1 cycle
   \   0004B9 16                    MOVW      HL, AX             ;; 1 cycle
   \   0004BA AB                    MOVW      AX, [HL]           ;; 1 cycle
   \   0004BB 16                    MOVW      HL, AX             ;; 1 cycle
   \   0004BC AC02                  MOVW      AX, [HL+0x02]      ;; 1 cycle
   \   0004BE 60                    MOV       A, X               ;; 1 cycle
   \   0004BF 73                    MOV       B, A               ;; 1 cycle
   \   0004C0 7C80                  XOR       A, #0x80           ;; 1 cycle
   \   0004C2 2CE6                  SUB       A, #0xE6           ;; 1 cycle
   \   0004C4 DE26                  BNC       ??ST7579_SetLine_66  ;; 4 cycles
   \   0004C6                       ; ------------------------------------- Block: 13 cycles
   \   0004C6 5128                  MOV       A, #0x28           ;; 1 cycle
   \   0004C8 16                    MOVW      HL, AX             ;; 1 cycle
   \   0004C9 A800                  MOVW      AX, [SP]           ;; 1 cycle
   \   0004CB 37                    XCHW      AX, HL             ;; 1 cycle
   \   0004CC 14                    MOVW      DE, AX             ;; 1 cycle
   \   0004CD AB                    MOVW      AX, [HL]           ;; 1 cycle
   \   0004CE 35                    XCHW      AX, DE             ;; 1 cycle
   \   0004CF C5                    PUSH      DE                 ;; 1 cycle
   \   0004D0 C6                    POP       HL                 ;; 1 cycle
   \   0004D1 14                    MOVW      DE, AX             ;; 1 cycle
   \   0004D2 AC02                  MOVW      AX, [HL+0x02]      ;; 1 cycle
   \   0004D4 35                    XCHW      AX, DE             ;; 1 cycle
   \   0004D5 CEFC00                MOV       CS, #0x0           ;; 1 cycle
   \   0004D8 61EA                  CALL      DE                 ;; 3 cycles
   \   0004DA 63                    MOV       A, B               ;; 1 cycle
   \   0004DB 6C80                  OR        A, #0x80           ;; 1 cycle
   \   0004DD 73                    MOV       B, A               ;; 1 cycle
   \   0004DE A800                  MOVW      AX, [SP]           ;; 1 cycle
   \   0004E0 16                    MOVW      HL, AX             ;; 1 cycle
   \   0004E1 CEFC00                MOV       CS, #0x0           ;; 1 cycle
   \   0004E4 AB                    MOVW      AX, [HL]           ;; 1 cycle
   \   0004E5 16                    MOVW      HL, AX             ;; 1 cycle
   \   0004E6 AC02                  MOVW      AX, [HL+0x02]      ;; 1 cycle
   \   0004E8 14                    MOVW      DE, AX             ;; 1 cycle
   \   0004E9 63                    MOV       A, B               ;; 1 cycle
   \   0004EA 61EA                  CALL      DE                 ;; 3 cycles
   \   0004EC                       ; ------------------------------------- Block: 30 cycles
    263                                  for (column=p_gw->iLCDAPI->iCharX_Position; column<=p_gw->iLCDAPI->iCharX2_Position; column++)    {
   \                     ??ST7579_SetLine_66:
   \   0004EC A80A                  MOVW      AX, [SP+0x0A]      ;; 1 cycle
   \   0004EE 16                    MOVW      HL, AX             ;; 1 cycle
   \   0004EF AB                    MOVW      AX, [HL]           ;; 1 cycle
   \   0004F0 16                    MOVW      HL, AX             ;; 1 cycle
   \   0004F1 AC02                  MOVW      AX, [HL+0x02]      ;; 1 cycle
   \   0004F3 12                    MOVW      BC, AX             ;; 1 cycle
   \   0004F4 A80A                  MOVW      AX, [SP+0x0A]      ;; 1 cycle
   \   0004F6 16                    MOVW      HL, AX             ;; 1 cycle
   \   0004F7 AB                    MOVW      AX, [HL]           ;; 1 cycle
   \   0004F8 16                    MOVW      HL, AX             ;; 1 cycle
   \   0004F9 AC06                  MOVW      AX, [HL+0x06]      ;; 1 cycle
   \   0004FB 43                    CMPW      AX, BC             ;; 1 cycle
   \   0004FC DC1E                  BC        ??ST7579_SetLine_67  ;; 4 cycles
   \   0004FE                       ; ------------------------------------- Block: 16 cycles
    264                                      p_gw->iCommAPI->iDataSend(cmd); // No_Clobber_Axes(cmd, column, line));
   \                     ??ST7579_Write_7:
   \   0004FE F1                    CLRB      A                  ;; 1 cycle
   \   0004FF 16                    MOVW      HL, AX             ;; 1 cycle
   \   000500 A800                  MOVW      AX, [SP]           ;; 1 cycle
   \   000502 37                    XCHW      AX, HL             ;; 1 cycle
   \   000503 14                    MOVW      DE, AX             ;; 1 cycle
   \   000504 AB                    MOVW      AX, [HL]           ;; 1 cycle
   \   000505 35                    XCHW      AX, DE             ;; 1 cycle
   \   000506 C5                    PUSH      DE                 ;; 1 cycle
   \   000507 C6                    POP       HL                 ;; 1 cycle
   \   000508 14                    MOVW      DE, AX             ;; 1 cycle
   \   000509 AC04                  MOVW      AX, [HL+0x04]      ;; 1 cycle
   \   00050B 35                    XCHW      AX, DE             ;; 1 cycle
   \   00050C CEFC00                MOV       CS, #0x0           ;; 1 cycle
   \   00050F 61EA                  CALL      DE                 ;; 3 cycles
    265                                  }
   \   000511 A80A                  MOVW      AX, [SP+0x0A]      ;; 1 cycle
   \   000513 16                    MOVW      HL, AX             ;; 1 cycle
   \   000514 A3                    INCW      BC                 ;; 1 cycle
   \   000515 AB                    MOVW      AX, [HL]           ;; 1 cycle
   \   000516 16                    MOVW      HL, AX             ;; 1 cycle
   \   000517 AC06                  MOVW      AX, [HL+0x06]      ;; 1 cycle
   \   000519 43                    CMPW      AX, BC             ;; 1 cycle
   \   00051A DEE2                  BNC       ??ST7579_Write_7   ;; 4 cycles
   \   00051C                       ; ------------------------------------- Block: 27 cycles
    266                              }
   \                     ??ST7579_SetLine_67:
   \   00051C A802                  MOVW      AX, [SP+0x02]      ;; 1 cycle
   \   00051E 040800                ADDW      AX, #0x8           ;; 1 cycle
   \   000521 B802                  MOVW      [SP+0x02], AX      ;; 1 cycle
   \   000523 16                    MOVW      HL, AX             ;; 1 cycle
   \   000524 A80A                  MOVW      AX, [SP+0x0A]      ;; 1 cycle
   \   000526 14                    MOVW      DE, AX             ;; 1 cycle
   \   000527 A9                    MOVW      AX, [DE]           ;; 1 cycle
   \   000528 14                    MOVW      DE, AX             ;; 1 cycle
   \   000529 AA08                  MOVW      AX, [DE+0x08]      ;; 1 cycle
   \   00052B 47                    CMPW      AX, HL             ;; 1 cycle
   \   00052C 61C8                  SKC                          ;; 4 cycles
   \   00052E ED....                BR        N:??ST7579_Write_6  ;; 4 cycles
   \   000531                       ; ------------------------------------- Block: 14 cycles
    267                              break;
    268                      }
    269                      error = GLYPH_ERROR_NONE ;
   \   000531 ED....                BR        N:??ST7579_SetLine_49  ;; 3 cycles
   \   000534                       ; ------------------------------------- Block: 3 cycles
    270                      break ;
    271                  case GLYPH_DRAW_CHAR:
    272                      p_char = p_gw->iLCDAPI->iFont[aValue];
   \                     ??ST7579_SetLine_39:
   \   000534 15                    MOVW      AX, DE             ;; 1 cycle
   \   000535 01                    ADDW      AX, AX             ;; 1 cycle
   \   000536 14                    MOVW      DE, AX             ;; 1 cycle
   \   000537 A80A                  MOVW      AX, [SP+0x0A]      ;; 1 cycle
   \   000539 16                    MOVW      HL, AX             ;; 1 cycle
   \   00053A AB                    MOVW      AX, [HL]           ;; 1 cycle
   \   00053B 16                    MOVW      HL, AX             ;; 1 cycle
   \   00053C AB                    MOVW      AX, [HL]           ;; 1 cycle
   \   00053D 05                    ADDW      AX, DE             ;; 1 cycle
   \   00053E 16                    MOVW      HL, AX             ;; 1 cycle
   \   00053F AB                    MOVW      AX, [HL]           ;; 1 cycle
   \   000540 14                    MOVW      DE, AX             ;; 1 cycle
    273                      width = p_char[0];
   \   000541 89                    MOV       A, [DE]            ;; 1 cycle
   \   000542 9802                  MOV       [SP+0x02], A       ;; 1 cycle
    274                      height = p_char[1];
   \   000544 8A01                  MOV       A, [DE+0x01]       ;; 1 cycle
   \   000546 9803                  MOV       [SP+0x03], A       ;; 1 cycle
    275                      p_charData = &p_char[2];
   \   000548 15                    MOVW      AX, DE             ;; 1 cycle
   \   000549 A1                    INCW      AX                 ;; 1 cycle
   \   00054A A1                    INCW      AX                 ;; 1 cycle
   \   00054B B806                  MOVW      [SP+0x06], AX      ;; 1 cycle
    276                      for (page=0; page<height; page+=8)  {
   \   00054D F6                    CLRW      AX                 ;; 1 cycle
   \   00054E B804                  MOVW      [SP+0x04], AX      ;; 1 cycle
   \   000550 8803                  MOV       A, [SP+0x03]       ;; 1 cycle
   \   000552 D1                    CMP0      A                  ;; 1 cycle
   \   000553 61F8                  SKNZ                         ;; 4 cycles
   \   000555 ED....                BR        N:??ST7579_SetLine_68  ;; 4 cycles
   \   000558                       ; ------------------------------------- Block: 28 cycles
   \   000558 A80A                  MOVW      AX, [SP+0x0A]      ;; 1 cycle
   \   00055A 040200                ADDW      AX, #0x2           ;; 1 cycle
   \   00055D B800                  MOVW      [SP], AX           ;; 1 cycle
   \   00055F                       ; ------------------------------------- Block: 3 cycles
    277                          ST7579_SetPage(aHandle, (p_gw->iLCDAPI->iCharY_Position+page)>>3);
   \                     ??ST7579_Write_8:
   \   00055F A804                  MOVW      AX, [SP+0x04]      ;; 1 cycle
   \   000561 16                    MOVW      HL, AX             ;; 1 cycle
   \   000562 A80A                  MOVW      AX, [SP+0x0A]      ;; 1 cycle
   \   000564 14                    MOVW      DE, AX             ;; 1 cycle
   \   000565 A9                    MOVW      AX, [DE]           ;; 1 cycle
   \   000566 14                    MOVW      DE, AX             ;; 1 cycle
   \   000567 AA04                  MOVW      AX, [DE+0x04]      ;; 1 cycle
   \   000569 07                    ADDW      AX, HL             ;; 1 cycle
   \   00056A 313E                  SHRW      AX, 0x3            ;; 1 cycle
   \   00056C 60                    MOV       A, X               ;; 1 cycle
   \   00056D 73                    MOV       B, A               ;; 1 cycle
   \   00056E 7C80                  XOR       A, #0x80           ;; 1 cycle
   \   000570 2C8A                  SUB       A, #0x8A           ;; 1 cycle
   \   000572 DE28                  BNC       ??ST7579_SetLine_69  ;; 4 cycles
   \   000574                       ; ------------------------------------- Block: 17 cycles
   \   000574 5128                  MOV       A, #0x28           ;; 1 cycle
   \   000576 16                    MOVW      HL, AX             ;; 1 cycle
   \   000577 A800                  MOVW      AX, [SP]           ;; 1 cycle
   \   000579 37                    XCHW      AX, HL             ;; 1 cycle
   \   00057A 14                    MOVW      DE, AX             ;; 1 cycle
   \   00057B AB                    MOVW      AX, [HL]           ;; 1 cycle
   \   00057C 35                    XCHW      AX, DE             ;; 1 cycle
   \   00057D C5                    PUSH      DE                 ;; 1 cycle
   \   00057E C6                    POP       HL                 ;; 1 cycle
   \   00057F 14                    MOVW      DE, AX             ;; 1 cycle
   \   000580 AC02                  MOVW      AX, [HL+0x02]      ;; 1 cycle
   \   000582 35                    XCHW      AX, DE             ;; 1 cycle
   \   000583 CEFC00                MOV       CS, #0x0           ;; 1 cycle
   \   000586 61EA                  CALL      DE                 ;; 3 cycles
   \   000588 63                    MOV       A, B               ;; 1 cycle
   \   000589 5C4F                  AND       A, #0x4F           ;; 1 cycle
   \   00058B 6C40                  OR        A, #0x40           ;; 1 cycle
   \   00058D 73                    MOV       B, A               ;; 1 cycle
   \   00058E A800                  MOVW      AX, [SP]           ;; 1 cycle
   \   000590 16                    MOVW      HL, AX             ;; 1 cycle
   \   000591 CEFC00                MOV       CS, #0x0           ;; 1 cycle
   \   000594 AB                    MOVW      AX, [HL]           ;; 1 cycle
   \   000595 16                    MOVW      HL, AX             ;; 1 cycle
   \   000596 AC02                  MOVW      AX, [HL+0x02]      ;; 1 cycle
   \   000598 14                    MOVW      DE, AX             ;; 1 cycle
   \   000599 63                    MOV       A, B               ;; 1 cycle
   \   00059A 61EA                  CALL      DE                 ;; 3 cycles
   \   00059C                       ; ------------------------------------- Block: 31 cycles
    278                          ST7579_SetChar(aHandle, p_gw->iLCDAPI->iCharX_Position);
   \                     ??ST7579_SetLine_69:
   \   00059C A80A                  MOVW      AX, [SP+0x0A]      ;; 1 cycle
   \   00059E 16                    MOVW      HL, AX             ;; 1 cycle
   \   00059F AB                    MOVW      AX, [HL]           ;; 1 cycle
   \   0005A0 16                    MOVW      HL, AX             ;; 1 cycle
   \   0005A1 AC02                  MOVW      AX, [HL+0x02]      ;; 1 cycle
   \   0005A3 60                    MOV       A, X               ;; 1 cycle
   \   0005A4 73                    MOV       B, A               ;; 1 cycle
   \   0005A5 7C80                  XOR       A, #0x80           ;; 1 cycle
   \   0005A7 2CE6                  SUB       A, #0xE6           ;; 1 cycle
   \   0005A9 DE26                  BNC       ??ST7579_SetLine_70  ;; 4 cycles
   \   0005AB                       ; ------------------------------------- Block: 13 cycles
   \   0005AB 5128                  MOV       A, #0x28           ;; 1 cycle
   \   0005AD 16                    MOVW      HL, AX             ;; 1 cycle
   \   0005AE A800                  MOVW      AX, [SP]           ;; 1 cycle
   \   0005B0 37                    XCHW      AX, HL             ;; 1 cycle
   \   0005B1 14                    MOVW      DE, AX             ;; 1 cycle
   \   0005B2 AB                    MOVW      AX, [HL]           ;; 1 cycle
   \   0005B3 35                    XCHW      AX, DE             ;; 1 cycle
   \   0005B4 C5                    PUSH      DE                 ;; 1 cycle
   \   0005B5 C6                    POP       HL                 ;; 1 cycle
   \   0005B6 14                    MOVW      DE, AX             ;; 1 cycle
   \   0005B7 AC02                  MOVW      AX, [HL+0x02]      ;; 1 cycle
   \   0005B9 35                    XCHW      AX, DE             ;; 1 cycle
   \   0005BA CEFC00                MOV       CS, #0x0           ;; 1 cycle
   \   0005BD 61EA                  CALL      DE                 ;; 3 cycles
   \   0005BF 63                    MOV       A, B               ;; 1 cycle
   \   0005C0 6C80                  OR        A, #0x80           ;; 1 cycle
   \   0005C2 73                    MOV       B, A               ;; 1 cycle
   \   0005C3 A800                  MOVW      AX, [SP]           ;; 1 cycle
   \   0005C5 16                    MOVW      HL, AX             ;; 1 cycle
   \   0005C6 CEFC00                MOV       CS, #0x0           ;; 1 cycle
   \   0005C9 AB                    MOVW      AX, [HL]           ;; 1 cycle
   \   0005CA 16                    MOVW      HL, AX             ;; 1 cycle
   \   0005CB AC02                  MOVW      AX, [HL+0x02]      ;; 1 cycle
   \   0005CD 14                    MOVW      DE, AX             ;; 1 cycle
   \   0005CE 63                    MOV       A, B               ;; 1 cycle
   \   0005CF 61EA                  CALL      DE                 ;; 3 cycles
   \   0005D1                       ; ------------------------------------- Block: 30 cycles
    279                          for (column=0; column<width; column++, p_charData++)    {
   \                     ??ST7579_SetLine_70:
   \   0005D1 8802                  MOV       A, [SP+0x02]       ;; 1 cycle
   \   0005D3 D1                    CMP0      A                  ;; 1 cycle
   \   0005D4 DD25                  BZ        ??ST7579_SetLine_71  ;; 4 cycles
   \   0005D6                       ; ------------------------------------- Block: 6 cycles
   \   0005D6 72                    MOV       C, A               ;; 1 cycle
   \   0005D7 F3                    CLRB      B                  ;; 1 cycle
   \   0005D8                       ; ------------------------------------- Block: 2 cycles
    280                              p_gw->iCommAPI->iDataSend(*p_charData);
   \                     ??ST7579_Write_9:
   \   0005D8 A806                  MOVW      AX, [SP+0x06]      ;; 1 cycle
   \   0005DA 16                    MOVW      HL, AX             ;; 1 cycle
   \   0005DB CEFC00                MOV       CS, #0x0           ;; 1 cycle
   \   0005DE 8B                    MOV       A, [HL]            ;; 1 cycle
   \   0005DF 16                    MOVW      HL, AX             ;; 1 cycle
   \   0005E0 A800                  MOVW      AX, [SP]           ;; 1 cycle
   \   0005E2 37                    XCHW      AX, HL             ;; 1 cycle
   \   0005E3 14                    MOVW      DE, AX             ;; 1 cycle
   \   0005E4 AB                    MOVW      AX, [HL]           ;; 1 cycle
   \   0005E5 35                    XCHW      AX, DE             ;; 1 cycle
   \   0005E6 C5                    PUSH      DE                 ;; 1 cycle
   \   0005E7 C6                    POP       HL                 ;; 1 cycle
   \   0005E8 14                    MOVW      DE, AX             ;; 1 cycle
   \   0005E9 AC04                  MOVW      AX, [HL+0x04]      ;; 1 cycle
   \   0005EB 35                    XCHW      AX, DE             ;; 1 cycle
   \   0005EC 61EA                  CALL      DE                 ;; 3 cycles
    281                          }
   \   0005EE A806                  MOVW      AX, [SP+0x06]      ;; 1 cycle
   \   0005F0 A1                    INCW      AX                 ;; 1 cycle
   \   0005F1 B806                  MOVW      [SP+0x06], AX      ;; 1 cycle
   \   0005F3 13                    MOVW      AX, BC             ;; 1 cycle
   \   0005F4 B1                    DECW      AX                 ;; 1 cycle
   \   0005F5 440000                CMPW      AX, #0x0           ;; 1 cycle
   \   0005F8 12                    MOVW      BC, AX             ;; 1 cycle
   \   0005F9 DFDD                  BNZ       ??ST7579_Write_9   ;; 4 cycles
   \   0005FB                       ; ------------------------------------- Block: 29 cycles
    282                      }
   \                     ??ST7579_SetLine_71:
   \   0005FB A804                  MOVW      AX, [SP+0x04]      ;; 1 cycle
   \   0005FD 040800                ADDW      AX, #0x8           ;; 1 cycle
   \   000600 B804                  MOVW      [SP+0x04], AX      ;; 1 cycle
   \   000602 8803                  MOV       A, [SP+0x03]       ;; 1 cycle
   \   000604 76                    MOV       L, A               ;; 1 cycle
   \   000605 5700                  MOV       H, #0x0            ;; 1 cycle
   \   000607 A804                  MOVW      AX, [SP+0x04]      ;; 1 cycle
   \   000609 47                    CMPW      AX, HL             ;; 1 cycle
   \   00060A 61C8                  SKC                          ;; 4 cycles
   \   00060C ED....                BR        N:??ST7579_SetLine_68  ;; 4 cycles
   \   00060F                       ; ------------------------------------- Block: 12 cycles
   \   00060F ED....                BR        N:??ST7579_Write_8  ;; 3 cycles
   \   000612                       ; ------------------------------------- Block: 3 cycles
    283          						p_gw->iLCDAPI->iCharX_Position += width;
    284                      error = GLYPH_ERROR_NONE ;
    285                      break ;
    286                  case GLYPH_CHAR_ERASE:
    287                      p_char = p_gw->iLCDAPI->iFont[aValue];
   \                     ??ST7579_SetLine_41:
   \   000612 15                    MOVW      AX, DE             ;; 1 cycle
   \   000613 01                    ADDW      AX, AX             ;; 1 cycle
   \   000614 14                    MOVW      DE, AX             ;; 1 cycle
   \   000615 A80A                  MOVW      AX, [SP+0x0A]      ;; 1 cycle
   \   000617 16                    MOVW      HL, AX             ;; 1 cycle
   \   000618 AB                    MOVW      AX, [HL]           ;; 1 cycle
   \   000619 16                    MOVW      HL, AX             ;; 1 cycle
   \   00061A AB                    MOVW      AX, [HL]           ;; 1 cycle
   \   00061B 05                    ADDW      AX, DE             ;; 1 cycle
   \   00061C 16                    MOVW      HL, AX             ;; 1 cycle
   \   00061D AB                    MOVW      AX, [HL]           ;; 1 cycle
   \   00061E 14                    MOVW      DE, AX             ;; 1 cycle
    288                      width = p_char[0];
   \   00061F 89                    MOV       A, [DE]            ;; 1 cycle
   \   000620 9802                  MOV       [SP+0x02], A       ;; 1 cycle
    289                      height = p_char[1];
   \   000622 8A01                  MOV       A, [DE+0x01]       ;; 1 cycle
   \   000624 9803                  MOV       [SP+0x03], A       ;; 1 cycle
    290                      for (page=0; page<height; page+=8)  {
   \   000626 F6                    CLRW      AX                 ;; 1 cycle
   \   000627 B804                  MOVW      [SP+0x04], AX      ;; 1 cycle
   \   000629 8803                  MOV       A, [SP+0x03]       ;; 1 cycle
   \   00062B D1                    CMP0      A                  ;; 1 cycle
   \   00062C 61F8                  SKNZ                         ;; 4 cycles
   \   00062E ED....                BR        N:??ST7579_SetLine_68  ;; 4 cycles
   \   000631                       ; ------------------------------------- Block: 24 cycles
   \   000631 A80A                  MOVW      AX, [SP+0x0A]      ;; 1 cycle
   \   000633 040200                ADDW      AX, #0x2           ;; 1 cycle
   \   000636 B800                  MOVW      [SP], AX           ;; 1 cycle
   \   000638                       ; ------------------------------------- Block: 3 cycles
    291                          ST7579_SetPage(aHandle, (p_gw->iLCDAPI->iCharY_Position+page)>>3);
   \                     ??ST7579_Write_10:
   \   000638 A804                  MOVW      AX, [SP+0x04]      ;; 1 cycle
   \   00063A 16                    MOVW      HL, AX             ;; 1 cycle
   \   00063B A80A                  MOVW      AX, [SP+0x0A]      ;; 1 cycle
   \   00063D 14                    MOVW      DE, AX             ;; 1 cycle
   \   00063E A9                    MOVW      AX, [DE]           ;; 1 cycle
   \   00063F 14                    MOVW      DE, AX             ;; 1 cycle
   \   000640 AA04                  MOVW      AX, [DE+0x04]      ;; 1 cycle
   \   000642 07                    ADDW      AX, HL             ;; 1 cycle
   \   000643 313E                  SHRW      AX, 0x3            ;; 1 cycle
   \   000645 60                    MOV       A, X               ;; 1 cycle
   \   000646 73                    MOV       B, A               ;; 1 cycle
   \   000647 7C80                  XOR       A, #0x80           ;; 1 cycle
   \   000649 2C8A                  SUB       A, #0x8A           ;; 1 cycle
   \   00064B DE28                  BNC       ??ST7579_SetLine_72  ;; 4 cycles
   \   00064D                       ; ------------------------------------- Block: 17 cycles
   \   00064D 5128                  MOV       A, #0x28           ;; 1 cycle
   \   00064F 16                    MOVW      HL, AX             ;; 1 cycle
   \   000650 A800                  MOVW      AX, [SP]           ;; 1 cycle
   \   000652 37                    XCHW      AX, HL             ;; 1 cycle
   \   000653 14                    MOVW      DE, AX             ;; 1 cycle
   \   000654 AB                    MOVW      AX, [HL]           ;; 1 cycle
   \   000655 35                    XCHW      AX, DE             ;; 1 cycle
   \   000656 C5                    PUSH      DE                 ;; 1 cycle
   \   000657 C6                    POP       HL                 ;; 1 cycle
   \   000658 14                    MOVW      DE, AX             ;; 1 cycle
   \   000659 AC02                  MOVW      AX, [HL+0x02]      ;; 1 cycle
   \   00065B 35                    XCHW      AX, DE             ;; 1 cycle
   \   00065C CEFC00                MOV       CS, #0x0           ;; 1 cycle
   \   00065F 61EA                  CALL      DE                 ;; 3 cycles
   \   000661 63                    MOV       A, B               ;; 1 cycle
   \   000662 5C4F                  AND       A, #0x4F           ;; 1 cycle
   \   000664 6C40                  OR        A, #0x40           ;; 1 cycle
   \   000666 73                    MOV       B, A               ;; 1 cycle
   \   000667 A800                  MOVW      AX, [SP]           ;; 1 cycle
   \   000669 16                    MOVW      HL, AX             ;; 1 cycle
   \   00066A CEFC00                MOV       CS, #0x0           ;; 1 cycle
   \   00066D AB                    MOVW      AX, [HL]           ;; 1 cycle
   \   00066E 16                    MOVW      HL, AX             ;; 1 cycle
   \   00066F AC02                  MOVW      AX, [HL+0x02]      ;; 1 cycle
   \   000671 14                    MOVW      DE, AX             ;; 1 cycle
   \   000672 63                    MOV       A, B               ;; 1 cycle
   \   000673 61EA                  CALL      DE                 ;; 3 cycles
   \   000675                       ; ------------------------------------- Block: 31 cycles
    292                          ST7579_SetChar(aHandle, p_gw->iLCDAPI->iCharX_Position);
   \                     ??ST7579_SetLine_72:
   \   000675 A80A                  MOVW      AX, [SP+0x0A]      ;; 1 cycle
   \   000677 16                    MOVW      HL, AX             ;; 1 cycle
   \   000678 AB                    MOVW      AX, [HL]           ;; 1 cycle
   \   000679 16                    MOVW      HL, AX             ;; 1 cycle
   \   00067A AC02                  MOVW      AX, [HL+0x02]      ;; 1 cycle
   \   00067C 60                    MOV       A, X               ;; 1 cycle
   \   00067D 73                    MOV       B, A               ;; 1 cycle
   \   00067E 7C80                  XOR       A, #0x80           ;; 1 cycle
   \   000680 2CE6                  SUB       A, #0xE6           ;; 1 cycle
   \   000682 DE26                  BNC       ??ST7579_SetLine_73  ;; 4 cycles
   \   000684                       ; ------------------------------------- Block: 13 cycles
   \   000684 5128                  MOV       A, #0x28           ;; 1 cycle
   \   000686 16                    MOVW      HL, AX             ;; 1 cycle
   \   000687 A800                  MOVW      AX, [SP]           ;; 1 cycle
   \   000689 37                    XCHW      AX, HL             ;; 1 cycle
   \   00068A 14                    MOVW      DE, AX             ;; 1 cycle
   \   00068B AB                    MOVW      AX, [HL]           ;; 1 cycle
   \   00068C 35                    XCHW      AX, DE             ;; 1 cycle
   \   00068D C5                    PUSH      DE                 ;; 1 cycle
   \   00068E C6                    POP       HL                 ;; 1 cycle
   \   00068F 14                    MOVW      DE, AX             ;; 1 cycle
   \   000690 AC02                  MOVW      AX, [HL+0x02]      ;; 1 cycle
   \   000692 35                    XCHW      AX, DE             ;; 1 cycle
   \   000693 CEFC00                MOV       CS, #0x0           ;; 1 cycle
   \   000696 61EA                  CALL      DE                 ;; 3 cycles
   \   000698 63                    MOV       A, B               ;; 1 cycle
   \   000699 6C80                  OR        A, #0x80           ;; 1 cycle
   \   00069B 73                    MOV       B, A               ;; 1 cycle
   \   00069C A800                  MOVW      AX, [SP]           ;; 1 cycle
   \   00069E 16                    MOVW      HL, AX             ;; 1 cycle
   \   00069F CEFC00                MOV       CS, #0x0           ;; 1 cycle
   \   0006A2 AB                    MOVW      AX, [HL]           ;; 1 cycle
   \   0006A3 16                    MOVW      HL, AX             ;; 1 cycle
   \   0006A4 AC02                  MOVW      AX, [HL+0x02]      ;; 1 cycle
   \   0006A6 14                    MOVW      DE, AX             ;; 1 cycle
   \   0006A7 63                    MOV       A, B               ;; 1 cycle
   \   0006A8 61EA                  CALL      DE                 ;; 3 cycles
   \   0006AA                       ; ------------------------------------- Block: 30 cycles
    293                          for (column=0; column<width; column++, p_charData++)    {
   \                     ??ST7579_SetLine_73:
   \   0006AA 8802                  MOV       A, [SP+0x02]       ;; 1 cycle
   \   0006AC D1                    CMP0      A                  ;; 1 cycle
   \   0006AD DD1D                  BZ        ??ST7579_SetLine_74  ;; 4 cycles
   \   0006AF                       ; ------------------------------------- Block: 6 cycles
   \   0006AF 72                    MOV       C, A               ;; 1 cycle
   \   0006B0 F3                    CLRB      B                  ;; 1 cycle
   \   0006B1                       ; ------------------------------------- Block: 2 cycles
    294                              p_gw->iCommAPI->iDataSend(0x00);
   \                     ??ST7579_Write_11:
   \   0006B1 F1                    CLRB      A                  ;; 1 cycle
   \   0006B2 16                    MOVW      HL, AX             ;; 1 cycle
   \   0006B3 A800                  MOVW      AX, [SP]           ;; 1 cycle
   \   0006B5 37                    XCHW      AX, HL             ;; 1 cycle
   \   0006B6 14                    MOVW      DE, AX             ;; 1 cycle
   \   0006B7 AB                    MOVW      AX, [HL]           ;; 1 cycle
   \   0006B8 35                    XCHW      AX, DE             ;; 1 cycle
   \   0006B9 C5                    PUSH      DE                 ;; 1 cycle
   \   0006BA C6                    POP       HL                 ;; 1 cycle
   \   0006BB 14                    MOVW      DE, AX             ;; 1 cycle
   \   0006BC AC04                  MOVW      AX, [HL+0x04]      ;; 1 cycle
   \   0006BE 35                    XCHW      AX, DE             ;; 1 cycle
   \   0006BF CEFC00                MOV       CS, #0x0           ;; 1 cycle
   \   0006C2 61EA                  CALL      DE                 ;; 3 cycles
    295                          }
   \   0006C4 B3                    DECW      BC                 ;; 1 cycle
   \   0006C5 33                    XCHW      AX, BC             ;; 1 cycle
   \   0006C6 440000                CMPW      AX, #0x0           ;; 1 cycle
   \   0006C9 33                    XCHW      AX, BC             ;; 1 cycle
   \   0006CA DFE5                  BNZ       ??ST7579_Write_11  ;; 4 cycles
   \   0006CC                       ; ------------------------------------- Block: 24 cycles
    296                      }
   \                     ??ST7579_SetLine_74:
   \   0006CC A804                  MOVW      AX, [SP+0x04]      ;; 1 cycle
   \   0006CE 040800                ADDW      AX, #0x8           ;; 1 cycle
   \   0006D1 B804                  MOVW      [SP+0x04], AX      ;; 1 cycle
   \   0006D3 8803                  MOV       A, [SP+0x03]       ;; 1 cycle
   \   0006D5 76                    MOV       L, A               ;; 1 cycle
   \   0006D6 5700                  MOV       H, #0x0            ;; 1 cycle
   \   0006D8 A804                  MOVW      AX, [SP+0x04]      ;; 1 cycle
   \   0006DA 47                    CMPW      AX, HL             ;; 1 cycle
   \   0006DB 61C8                  SKC                          ;; 4 cycles
   \   0006DD ED....                BR        N:??ST7579_SetLine_68  ;; 4 cycles
   \   0006E0                       ; ------------------------------------- Block: 12 cycles
   \   0006E0 ED....                BR        N:??ST7579_Write_10  ;; 3 cycles
   \   0006E3                       ; ------------------------------------- Block: 3 cycles
    297          						p_gw->iLCDAPI->iCharX_Position += width;
    298                      error = GLYPH_ERROR_NONE ;
    299                      break ;
    300                  case GLYPH_INVERT_CHAR:
    301                      p_char = (uint8_t *)p_gw->iLCDAPI->iFont[aValue];
   \                     ??ST7579_SetLine_42:
   \   0006E3 15                    MOVW      AX, DE             ;; 1 cycle
   \   0006E4 01                    ADDW      AX, AX             ;; 1 cycle
   \   0006E5 14                    MOVW      DE, AX             ;; 1 cycle
   \   0006E6 A80A                  MOVW      AX, [SP+0x0A]      ;; 1 cycle
   \   0006E8 16                    MOVW      HL, AX             ;; 1 cycle
   \   0006E9 AB                    MOVW      AX, [HL]           ;; 1 cycle
   \   0006EA 16                    MOVW      HL, AX             ;; 1 cycle
   \   0006EB AB                    MOVW      AX, [HL]           ;; 1 cycle
   \   0006EC 05                    ADDW      AX, DE             ;; 1 cycle
   \   0006ED 16                    MOVW      HL, AX             ;; 1 cycle
   \   0006EE AB                    MOVW      AX, [HL]           ;; 1 cycle
   \   0006EF 14                    MOVW      DE, AX             ;; 1 cycle
    302                      width = p_char[0];
   \   0006F0 89                    MOV       A, [DE]            ;; 1 cycle
   \   0006F1 9802                  MOV       [SP+0x02], A       ;; 1 cycle
    303                      height = p_char[1];
   \   0006F3 8A01                  MOV       A, [DE+0x01]       ;; 1 cycle
   \   0006F5 9803                  MOV       [SP+0x03], A       ;; 1 cycle
    304                      p_charData = &p_char[2];
   \   0006F7 15                    MOVW      AX, DE             ;; 1 cycle
   \   0006F8 A1                    INCW      AX                 ;; 1 cycle
   \   0006F9 A1                    INCW      AX                 ;; 1 cycle
   \   0006FA B806                  MOVW      [SP+0x06], AX      ;; 1 cycle
    305                      for (page=0; page<height; page+=8)  {
   \   0006FC F6                    CLRW      AX                 ;; 1 cycle
   \   0006FD B804                  MOVW      [SP+0x04], AX      ;; 1 cycle
   \   0006FF 8803                  MOV       A, [SP+0x03]       ;; 1 cycle
   \   000701 D1                    CMP0      A                  ;; 1 cycle
   \   000702 61F8                  SKNZ                         ;; 4 cycles
   \   000704 ED....                BR        N:??ST7579_SetLine_68  ;; 4 cycles
   \   000707                       ; ------------------------------------- Block: 28 cycles
   \   000707 A80A                  MOVW      AX, [SP+0x0A]      ;; 1 cycle
   \   000709 040200                ADDW      AX, #0x2           ;; 1 cycle
   \   00070C B800                  MOVW      [SP], AX           ;; 1 cycle
   \   00070E                       ; ------------------------------------- Block: 3 cycles
    306                          ST7579_SetPage(aHandle, (p_gw->iLCDAPI->iCharY_Position+page)>>3);
   \                     ??ST7579_Write_12:
   \   00070E A804                  MOVW      AX, [SP+0x04]      ;; 1 cycle
   \   000710 16                    MOVW      HL, AX             ;; 1 cycle
   \   000711 A80A                  MOVW      AX, [SP+0x0A]      ;; 1 cycle
   \   000713 14                    MOVW      DE, AX             ;; 1 cycle
   \   000714 A9                    MOVW      AX, [DE]           ;; 1 cycle
   \   000715 14                    MOVW      DE, AX             ;; 1 cycle
   \   000716 AA04                  MOVW      AX, [DE+0x04]      ;; 1 cycle
   \   000718 07                    ADDW      AX, HL             ;; 1 cycle
   \   000719 313E                  SHRW      AX, 0x3            ;; 1 cycle
   \   00071B 60                    MOV       A, X               ;; 1 cycle
   \   00071C 73                    MOV       B, A               ;; 1 cycle
   \   00071D 7C80                  XOR       A, #0x80           ;; 1 cycle
   \   00071F 2C8A                  SUB       A, #0x8A           ;; 1 cycle
   \   000721 DE28                  BNC       ??ST7579_SetLine_75  ;; 4 cycles
   \   000723                       ; ------------------------------------- Block: 17 cycles
   \   000723 5128                  MOV       A, #0x28           ;; 1 cycle
   \   000725 16                    MOVW      HL, AX             ;; 1 cycle
   \   000726 A800                  MOVW      AX, [SP]           ;; 1 cycle
   \   000728 37                    XCHW      AX, HL             ;; 1 cycle
   \   000729 14                    MOVW      DE, AX             ;; 1 cycle
   \   00072A AB                    MOVW      AX, [HL]           ;; 1 cycle
   \   00072B 35                    XCHW      AX, DE             ;; 1 cycle
   \   00072C C5                    PUSH      DE                 ;; 1 cycle
   \   00072D C6                    POP       HL                 ;; 1 cycle
   \   00072E 14                    MOVW      DE, AX             ;; 1 cycle
   \   00072F AC02                  MOVW      AX, [HL+0x02]      ;; 1 cycle
   \   000731 35                    XCHW      AX, DE             ;; 1 cycle
   \   000732 CEFC00                MOV       CS, #0x0           ;; 1 cycle
   \   000735 61EA                  CALL      DE                 ;; 3 cycles
   \   000737 63                    MOV       A, B               ;; 1 cycle
   \   000738 5C4F                  AND       A, #0x4F           ;; 1 cycle
   \   00073A 6C40                  OR        A, #0x40           ;; 1 cycle
   \   00073C 73                    MOV       B, A               ;; 1 cycle
   \   00073D A800                  MOVW      AX, [SP]           ;; 1 cycle
   \   00073F 16                    MOVW      HL, AX             ;; 1 cycle
   \   000740 CEFC00                MOV       CS, #0x0           ;; 1 cycle
   \   000743 AB                    MOVW      AX, [HL]           ;; 1 cycle
   \   000744 16                    MOVW      HL, AX             ;; 1 cycle
   \   000745 AC02                  MOVW      AX, [HL+0x02]      ;; 1 cycle
   \   000747 14                    MOVW      DE, AX             ;; 1 cycle
   \   000748 63                    MOV       A, B               ;; 1 cycle
   \   000749 61EA                  CALL      DE                 ;; 3 cycles
   \   00074B                       ; ------------------------------------- Block: 31 cycles
    307                          ST7579_SetChar(aHandle, p_gw->iLCDAPI->iCharX_Position);
   \                     ??ST7579_SetLine_75:
   \   00074B A80A                  MOVW      AX, [SP+0x0A]      ;; 1 cycle
   \   00074D 16                    MOVW      HL, AX             ;; 1 cycle
   \   00074E AB                    MOVW      AX, [HL]           ;; 1 cycle
   \   00074F 16                    MOVW      HL, AX             ;; 1 cycle
   \   000750 AC02                  MOVW      AX, [HL+0x02]      ;; 1 cycle
   \   000752 60                    MOV       A, X               ;; 1 cycle
   \   000753 73                    MOV       B, A               ;; 1 cycle
   \   000754 7C80                  XOR       A, #0x80           ;; 1 cycle
   \   000756 2CE6                  SUB       A, #0xE6           ;; 1 cycle
   \   000758 DE26                  BNC       ??ST7579_SetLine_76  ;; 4 cycles
   \   00075A                       ; ------------------------------------- Block: 13 cycles
   \   00075A 5128                  MOV       A, #0x28           ;; 1 cycle
   \   00075C 16                    MOVW      HL, AX             ;; 1 cycle
   \   00075D A800                  MOVW      AX, [SP]           ;; 1 cycle
   \   00075F 37                    XCHW      AX, HL             ;; 1 cycle
   \   000760 14                    MOVW      DE, AX             ;; 1 cycle
   \   000761 AB                    MOVW      AX, [HL]           ;; 1 cycle
   \   000762 35                    XCHW      AX, DE             ;; 1 cycle
   \   000763 C5                    PUSH      DE                 ;; 1 cycle
   \   000764 C6                    POP       HL                 ;; 1 cycle
   \   000765 14                    MOVW      DE, AX             ;; 1 cycle
   \   000766 AC02                  MOVW      AX, [HL+0x02]      ;; 1 cycle
   \   000768 35                    XCHW      AX, DE             ;; 1 cycle
   \   000769 CEFC00                MOV       CS, #0x0           ;; 1 cycle
   \   00076C 61EA                  CALL      DE                 ;; 3 cycles
   \   00076E 63                    MOV       A, B               ;; 1 cycle
   \   00076F 6C80                  OR        A, #0x80           ;; 1 cycle
   \   000771 73                    MOV       B, A               ;; 1 cycle
   \   000772 A800                  MOVW      AX, [SP]           ;; 1 cycle
   \   000774 16                    MOVW      HL, AX             ;; 1 cycle
   \   000775 CEFC00                MOV       CS, #0x0           ;; 1 cycle
   \   000778 AB                    MOVW      AX, [HL]           ;; 1 cycle
   \   000779 16                    MOVW      HL, AX             ;; 1 cycle
   \   00077A AC02                  MOVW      AX, [HL+0x02]      ;; 1 cycle
   \   00077C 14                    MOVW      DE, AX             ;; 1 cycle
   \   00077D 63                    MOV       A, B               ;; 1 cycle
   \   00077E 61EA                  CALL      DE                 ;; 3 cycles
   \   000780                       ; ------------------------------------- Block: 30 cycles
    308                          for (column=0; column<width; column++, p_charData++)    {
   \                     ??ST7579_SetLine_76:
   \   000780 8802                  MOV       A, [SP+0x02]       ;; 1 cycle
   \   000782 D1                    CMP0      A                  ;; 1 cycle
   \   000783 DD27                  BZ        ??ST7579_SetLine_77  ;; 4 cycles
   \   000785                       ; ------------------------------------- Block: 6 cycles
   \   000785 72                    MOV       C, A               ;; 1 cycle
   \   000786 F3                    CLRB      B                  ;; 1 cycle
   \   000787                       ; ------------------------------------- Block: 2 cycles
    309          									// Output the inverted values to invert character
    310                              p_gw->iCommAPI->iDataSend(*p_charData ^ 0xFF);
   \                     ??ST7579_Write_13:
   \   000787 A806                  MOVW      AX, [SP+0x06]      ;; 1 cycle
   \   000789 16                    MOVW      HL, AX             ;; 1 cycle
   \   00078A CEFC00                MOV       CS, #0x0           ;; 1 cycle
   \   00078D 8B                    MOV       A, [HL]            ;; 1 cycle
   \   00078E 7CFF                  XOR       A, #0xFF           ;; 1 cycle
   \   000790 16                    MOVW      HL, AX             ;; 1 cycle
   \   000791 A800                  MOVW      AX, [SP]           ;; 1 cycle
   \   000793 37                    XCHW      AX, HL             ;; 1 cycle
   \   000794 14                    MOVW      DE, AX             ;; 1 cycle
   \   000795 AB                    MOVW      AX, [HL]           ;; 1 cycle
   \   000796 35                    XCHW      AX, DE             ;; 1 cycle
   \   000797 C5                    PUSH      DE                 ;; 1 cycle
   \   000798 C6                    POP       HL                 ;; 1 cycle
   \   000799 14                    MOVW      DE, AX             ;; 1 cycle
   \   00079A AC04                  MOVW      AX, [HL+0x04]      ;; 1 cycle
   \   00079C 35                    XCHW      AX, DE             ;; 1 cycle
   \   00079D 61EA                  CALL      DE                 ;; 3 cycles
    311                          }
   \   00079F A806                  MOVW      AX, [SP+0x06]      ;; 1 cycle
   \   0007A1 A1                    INCW      AX                 ;; 1 cycle
   \   0007A2 B806                  MOVW      [SP+0x06], AX      ;; 1 cycle
   \   0007A4 13                    MOVW      AX, BC             ;; 1 cycle
   \   0007A5 B1                    DECW      AX                 ;; 1 cycle
   \   0007A6 440000                CMPW      AX, #0x0           ;; 1 cycle
   \   0007A9 12                    MOVW      BC, AX             ;; 1 cycle
   \   0007AA DFDB                  BNZ       ??ST7579_Write_13  ;; 4 cycles
   \   0007AC                       ; ------------------------------------- Block: 30 cycles
    312                      }
   \                     ??ST7579_SetLine_77:
   \   0007AC A804                  MOVW      AX, [SP+0x04]      ;; 1 cycle
   \   0007AE 040800                ADDW      AX, #0x8           ;; 1 cycle
   \   0007B1 B804                  MOVW      [SP+0x04], AX      ;; 1 cycle
   \   0007B3 8803                  MOV       A, [SP+0x03]       ;; 1 cycle
   \   0007B5 76                    MOV       L, A               ;; 1 cycle
   \   0007B6 5700                  MOV       H, #0x0            ;; 1 cycle
   \   0007B8 A804                  MOVW      AX, [SP+0x04]      ;; 1 cycle
   \   0007BA 47                    CMPW      AX, HL             ;; 1 cycle
   \   0007BB 61D8                  SKNC                         ;; 4 cycles
   \   0007BD ED....                BR        N:??ST7579_Write_12  ;; 4 cycles
   \   0007C0                       ; ------------------------------------- Block: 12 cycles
    313          						p_gw->iLCDAPI->iCharX_Position += width;
   \                     ??ST7579_SetLine_68:
   \   0007C0 A80A                  MOVW      AX, [SP+0x0A]      ;; 1 cycle
   \   0007C2 16                    MOVW      HL, AX             ;; 1 cycle
   \   0007C3 AB                    MOVW      AX, [HL]           ;; 1 cycle
   \   0007C4 14                    MOVW      DE, AX             ;; 1 cycle
   \   0007C5 A5                    INCW      DE                 ;; 1 cycle
   \   0007C6 A5                    INCW      DE                 ;; 1 cycle
   \   0007C7 8802                  MOV       A, [SP+0x02]       ;; 1 cycle
   \   0007C9 76                    MOV       L, A               ;; 1 cycle
   \   0007CA 5700                  MOV       H, #0x0            ;; 1 cycle
   \   0007CC A9                    MOVW      AX, [DE]           ;; 1 cycle
   \   0007CD 07                    ADDW      AX, HL             ;; 1 cycle
   \   0007CE B9                    MOVW      [DE], AX           ;; 1 cycle
    314                      error = GLYPH_ERROR_NONE;
   \   0007CF ED....                BR        N:??ST7579_SetLine_49  ;; 3 cycles
   \   0007D2                       ; ------------------------------------- Block: 15 cycles
    315                      break;
    316                  case GLYPH_CHAR_X2:
    317                      p_gw->iLCDAPI->iCharX2_Position = aValue ;
   \                     ??ST7579_SetLine_43:
   \   0007D2 A80A                  MOVW      AX, [SP+0x0A]      ;; 1 cycle
   \   0007D4 16                    MOVW      HL, AX             ;; 1 cycle
   \   0007D5 AB                    MOVW      AX, [HL]           ;; 1 cycle
   \   0007D6 16                    MOVW      HL, AX             ;; 1 cycle
   \   0007D7 15                    MOVW      AX, DE             ;; 1 cycle
   \   0007D8 BC06                  MOVW      [HL+0x06], AX      ;; 1 cycle
    318                      error = GLYPH_ERROR_NONE ;
   \   0007DA ED....                BR        N:??ST7579_SetLine_49  ;; 3 cycles
   \   0007DD                       ; ------------------------------------- Block: 9 cycles
    319                      break ;
    320                  case GLYPH_CHAR_Y2:
    321                      p_gw->iLCDAPI->iCharY2_Position = aValue ;
   \                     ??ST7579_SetLine_44:
   \   0007DD A80A                  MOVW      AX, [SP+0x0A]      ;; 1 cycle
   \   0007DF 16                    MOVW      HL, AX             ;; 1 cycle
   \   0007E0 AB                    MOVW      AX, [HL]           ;; 1 cycle
   \   0007E1 16                    MOVW      HL, AX             ;; 1 cycle
   \   0007E2 15                    MOVW      AX, DE             ;; 1 cycle
   \   0007E3 BC08                  MOVW      [HL+0x08], AX      ;; 1 cycle
    322                      error = GLYPH_ERROR_NONE ;
   \   0007E5 ED....                BR        N:??ST7579_SetLine_49  ;; 3 cycles
   \   0007E8                       ; ------------------------------------- Block: 9 cycles
    323                      break ;
    324                  case GLYPH_FRAME_RATE:
    325                      p_gw->iLCDAPI->iFrameRate = (int8_t)aValue ;
   \                     ??ST7579_SetLine_45:
   \   0007E8 A80A                  MOVW      AX, [SP+0x0A]      ;; 1 cycle
   \   0007EA 16                    MOVW      HL, AX             ;; 1 cycle
   \   0007EB CEFC00                MOV       CS, #0x0           ;; 1 cycle
   \   0007EE AB                    MOVW      AX, [HL]           ;; 1 cycle
   \   0007EF 16                    MOVW      HL, AX             ;; 1 cycle
   \   0007F0 64                    MOV       A, E               ;; 1 cycle
   \   0007F1 9C1A                  MOV       [HL+0x1A], A       ;; 1 cycle
    326                      ST7579_SetFrameRate(aHandle, p_gw->iLCDAPI->iFrameRate) ;
   \   0007F3 A80A                  MOVW      AX, [SP+0x0A]      ;; 1 cycle
   \   0007F5 16                    MOVW      HL, AX             ;; 1 cycle
   \   0007F6 AB                    MOVW      AX, [HL]           ;; 1 cycle
   \   0007F7 16                    MOVW      HL, AX             ;; 1 cycle
   \   0007F8 8C1A                  MOV       A, [HL+0x1A]       ;; 1 cycle
   \   0007FA 72                    MOV       C, A               ;; 1 cycle
   \   0007FB A80A                  MOVW      AX, [SP+0x0A]      ;; 1 cycle
   \   0007FD 040200                ADDW      AX, #0x2           ;; 1 cycle
   \   000800 B800                  MOVW      [SP], AX           ;; 1 cycle
   \   000802 512B                  MOV       A, #0x2B           ;; 1 cycle
   \   000804 16                    MOVW      HL, AX             ;; 1 cycle
   \   000805 A800                  MOVW      AX, [SP]           ;; 1 cycle
   \   000807 37                    XCHW      AX, HL             ;; 1 cycle
   \   000808 14                    MOVW      DE, AX             ;; 1 cycle
   \   000809 AB                    MOVW      AX, [HL]           ;; 1 cycle
   \   00080A 35                    XCHW      AX, DE             ;; 1 cycle
   \   00080B C5                    PUSH      DE                 ;; 1 cycle
   \   00080C C6                    POP       HL                 ;; 1 cycle
   \   00080D 14                    MOVW      DE, AX             ;; 1 cycle
   \   00080E AC02                  MOVW      AX, [HL+0x02]      ;; 1 cycle
   \   000810 35                    XCHW      AX, DE             ;; 1 cycle
   \   000811 61EA                  CALL      DE                 ;; 3 cycles
   \   000813 62                    MOV       A, C               ;; 1 cycle
   \   000814 2C37                  SUB       A, #0x37           ;; 1 cycle
   \   000816 DD78                  BZ        ??ST7579_SetLine_78  ;; 4 cycles
   \   000818                       ; ------------------------------------- Block: 37 cycles
   \   000818 2C0A                  SUB       A, #0xA            ;; 1 cycle
   \   00081A DD64                  BZ        ??ST7579_SetLine_79  ;; 4 cycles
   \   00081C                       ; ------------------------------------- Block: 5 cycles
   \   00081C 2C03                  SUB       A, #0x3            ;; 1 cycle
   \   00081E DD50                  BZ        ??ST7579_SetLine_80  ;; 4 cycles
   \   000820                       ; ------------------------------------- Block: 5 cycles
   \   000820 2C02                  SUB       A, #0x2            ;; 1 cycle
   \   000822 DD3C                  BZ        ??ST7579_SetLine_81  ;; 4 cycles
   \   000824                       ; ------------------------------------- Block: 5 cycles
   \   000824 2C06                  SUB       A, #0x6            ;; 1 cycle
   \   000826 DD28                  BZ        ??ST7579_SetLine_82  ;; 4 cycles
   \   000828                       ; ------------------------------------- Block: 5 cycles
   \   000828 2C04                  SUB       A, #0x4            ;; 1 cycle
   \   00082A DD14                  BZ        ??ST7579_SetLine_83  ;; 4 cycles
   \   00082C                       ; ------------------------------------- Block: 5 cycles
   \   00082C 2C39                  SUB       A, #0x39           ;; 1 cycle
   \   00082E A800                  MOVW      AX, [SP]           ;; 1 cycle
   \   000830 16                    MOVW      HL, AX             ;; 1 cycle
   \   000831 CEFC00                MOV       CS, #0x0           ;; 1 cycle
   \   000834 AB                    MOVW      AX, [HL]           ;; 1 cycle
   \   000835 16                    MOVW      HL, AX             ;; 1 cycle
   \   000836 AC02                  MOVW      AX, [HL+0x02]      ;; 1 cycle
   \   000838 14                    MOVW      DE, AX             ;; 1 cycle
   \   000839 DF65                  BNZ       ??ST7579_SetLine_84  ;; 4 cycles
   \   00083B                       ; ------------------------------------- Block: 12 cycles
   \   00083B 510F                  MOV       A, #0xF            ;; 1 cycle
   \   00083D ED....                BR        N:??ST7579_SetLine_59  ;; 3 cycles
   \   000840                       ; ------------------------------------- Block: 4 cycles
   \                     ??ST7579_SetLine_83:
   \   000840 A800                  MOVW      AX, [SP]           ;; 1 cycle
   \   000842 16                    MOVW      HL, AX             ;; 1 cycle
   \   000843 CEFC00                MOV       CS, #0x0           ;; 1 cycle
   \   000846 AB                    MOVW      AX, [HL]           ;; 1 cycle
   \   000847 16                    MOVW      HL, AX             ;; 1 cycle
   \   000848 AC02                  MOVW      AX, [HL+0x02]      ;; 1 cycle
   \   00084A 14                    MOVW      DE, AX             ;; 1 cycle
   \   00084B 510E                  MOV       A, #0xE            ;; 1 cycle
   \   00084D ED....                BR        N:??ST7579_SetLine_59  ;; 3 cycles
   \   000850                       ; ------------------------------------- Block: 11 cycles
   \                     ??ST7579_SetLine_82:
   \   000850 A800                  MOVW      AX, [SP]           ;; 1 cycle
   \   000852 16                    MOVW      HL, AX             ;; 1 cycle
   \   000853 CEFC00                MOV       CS, #0x0           ;; 1 cycle
   \   000856 AB                    MOVW      AX, [HL]           ;; 1 cycle
   \   000857 16                    MOVW      HL, AX             ;; 1 cycle
   \   000858 AC02                  MOVW      AX, [HL+0x02]      ;; 1 cycle
   \   00085A 14                    MOVW      DE, AX             ;; 1 cycle
   \   00085B 510D                  MOV       A, #0xD            ;; 1 cycle
   \   00085D ED....                BR        N:??ST7579_SetLine_59  ;; 3 cycles
   \   000860                       ; ------------------------------------- Block: 11 cycles
   \                     ??ST7579_SetLine_81:
   \   000860 A800                  MOVW      AX, [SP]           ;; 1 cycle
   \   000862 16                    MOVW      HL, AX             ;; 1 cycle
   \   000863 CEFC00                MOV       CS, #0x0           ;; 1 cycle
   \   000866 AB                    MOVW      AX, [HL]           ;; 1 cycle
   \   000867 16                    MOVW      HL, AX             ;; 1 cycle
   \   000868 AC02                  MOVW      AX, [HL+0x02]      ;; 1 cycle
   \   00086A 14                    MOVW      DE, AX             ;; 1 cycle
   \   00086B 510B                  MOV       A, #0xB            ;; 1 cycle
   \   00086D ED....                BR        N:??ST7579_SetLine_59  ;; 3 cycles
   \   000870                       ; ------------------------------------- Block: 11 cycles
   \                     ??ST7579_SetLine_80:
   \   000870 A800                  MOVW      AX, [SP]           ;; 1 cycle
   \   000872 16                    MOVW      HL, AX             ;; 1 cycle
   \   000873 CEFC00                MOV       CS, #0x0           ;; 1 cycle
   \   000876 AB                    MOVW      AX, [HL]           ;; 1 cycle
   \   000877 16                    MOVW      HL, AX             ;; 1 cycle
   \   000878 AC02                  MOVW      AX, [HL+0x02]      ;; 1 cycle
   \   00087A 14                    MOVW      DE, AX             ;; 1 cycle
   \   00087B 510A                  MOV       A, #0xA            ;; 1 cycle
   \   00087D ED....                BR        N:??ST7579_SetLine_59  ;; 3 cycles
   \   000880                       ; ------------------------------------- Block: 11 cycles
   \                     ??ST7579_SetLine_79:
   \   000880 A800                  MOVW      AX, [SP]           ;; 1 cycle
   \   000882 16                    MOVW      HL, AX             ;; 1 cycle
   \   000883 CEFC00                MOV       CS, #0x0           ;; 1 cycle
   \   000886 AB                    MOVW      AX, [HL]           ;; 1 cycle
   \   000887 16                    MOVW      HL, AX             ;; 1 cycle
   \   000888 AC02                  MOVW      AX, [HL+0x02]      ;; 1 cycle
   \   00088A 14                    MOVW      DE, AX             ;; 1 cycle
   \   00088B 5109                  MOV       A, #0x9            ;; 1 cycle
   \   00088D ED....                BR        N:??ST7579_SetLine_59  ;; 3 cycles
   \   000890                       ; ------------------------------------- Block: 11 cycles
   \                     ??ST7579_SetLine_78:
   \   000890 A800                  MOVW      AX, [SP]           ;; 1 cycle
   \   000892 16                    MOVW      HL, AX             ;; 1 cycle
   \   000893 CEFC00                MOV       CS, #0x0           ;; 1 cycle
   \   000896 AB                    MOVW      AX, [HL]           ;; 1 cycle
   \   000897 16                    MOVW      HL, AX             ;; 1 cycle
   \   000898 AC02                  MOVW      AX, [HL+0x02]      ;; 1 cycle
   \   00089A 14                    MOVW      DE, AX             ;; 1 cycle
   \   00089B 5108                  MOV       A, #0x8            ;; 1 cycle
   \   00089D ED....                BR        N:??ST7579_SetLine_59  ;; 3 cycles
   \   0008A0                       ; ------------------------------------- Block: 11 cycles
   \                     ??ST7579_SetLine_84:
   \   0008A0 510C                  MOV       A, #0xC            ;; 1 cycle
   \   0008A2 ED....                BR        N:??ST7579_SetLine_59  ;; 3 cycles
   \   0008A5                       ; ------------------------------------- Block: 4 cycles
    327                      error = GLYPH_ERROR_NONE ;
    328                      break ;
    329                  case GLYPH_CONTRAST:
    330                      p_gw->iLCDAPI->iContrast = (int8_t)aValue ;
   \                     ??ST7579_SetLine_46:
   \   0008A5 A80A                  MOVW      AX, [SP+0x0A]      ;; 1 cycle
   \   0008A7 16                    MOVW      HL, AX             ;; 1 cycle
   \   0008A8 AB                    MOVW      AX, [HL]           ;; 1 cycle
   \   0008A9 16                    MOVW      HL, AX             ;; 1 cycle
   \   0008AA 64                    MOV       A, E               ;; 1 cycle
   \   0008AB 9C18                  MOV       [HL+0x18], A       ;; 1 cycle
    331                      ST7579_SetVO_Range(aHandle, p_gw->iLCDAPI->iContrast) ;
   \   0008AD A80A                  MOVW      AX, [SP+0x0A]      ;; 1 cycle
   \   0008AF 16                    MOVW      HL, AX             ;; 1 cycle
   \   0008B0 AB                    MOVW      AX, [HL]           ;; 1 cycle
   \   0008B1 16                    MOVW      HL, AX             ;; 1 cycle
   \   0008B2 8C18                  MOV       A, [HL+0x18]       ;; 1 cycle
   \   0008B4 76                    MOV       L, A               ;; 1 cycle
   \   0008B5 81                    INC       A                  ;; 1 cycle
   \   0008B6 61F8                  SKNZ                         ;; 4 cycles
   \   0008B8 ED....                BR        N:??ST7579_SetLine_49  ;; 4 cycles
   \   0008BB                       ; ------------------------------------- Block: 17 cycles
   \   0008BB F1                    CLRB      A                  ;; 1 cycle
   \   0008BC 9802                  MOV       [SP+0x02], A       ;; 1 cycle
   \   0008BE 66                    MOV       A, L               ;; 1 cycle
   \   0008BF 4C80                  CMP       A, #0x80           ;; 1 cycle
   \   0008C1 DC0A                  BC        ??ST7579_SetLine_85  ;; 4 cycles
   \   0008C3                       ; ------------------------------------- Block: 8 cycles
   \   0008C3 0C81                  ADD       A, #0x81           ;; 1 cycle
   \   0008C5 6C80                  OR        A, #0x80           ;; 1 cycle
   \   0008C7 73                    MOV       B, A               ;; 1 cycle
   \   0008C8 E1                    ONEB      A                  ;; 1 cycle
   \   0008C9 9802                  MOV       [SP+0x02], A       ;; 1 cycle
   \   0008CB EF03                  BR        S:??ST7579_SetLine_86  ;; 3 cycles
   \   0008CD                       ; ------------------------------------- Block: 8 cycles
   \                     ??ST7579_SetLine_85:
   \   0008CD 6C80                  OR        A, #0x80           ;; 1 cycle
   \   0008CF 73                    MOV       B, A               ;; 1 cycle
   \   0008D0                       ; ------------------------------------- Block: 2 cycles
   \                     ??ST7579_SetLine_86:
   \   0008D0 A80A                  MOVW      AX, [SP+0x0A]      ;; 1 cycle
   \   0008D2 040200                ADDW      AX, #0x2           ;; 1 cycle
   \   0008D5 B800                  MOVW      [SP], AX           ;; 1 cycle
   \   0008D7 5128                  MOV       A, #0x28           ;; 1 cycle
   \   0008D9 16                    MOVW      HL, AX             ;; 1 cycle
   \   0008DA A800                  MOVW      AX, [SP]           ;; 1 cycle
   \   0008DC 37                    XCHW      AX, HL             ;; 1 cycle
   \   0008DD 14                    MOVW      DE, AX             ;; 1 cycle
   \   0008DE AB                    MOVW      AX, [HL]           ;; 1 cycle
   \   0008DF 35                    XCHW      AX, DE             ;; 1 cycle
   \   0008E0 C5                    PUSH      DE                 ;; 1 cycle
   \   0008E1 C6                    POP       HL                 ;; 1 cycle
   \   0008E2 14                    MOVW      DE, AX             ;; 1 cycle
   \   0008E3 AC02                  MOVW      AX, [HL+0x02]      ;; 1 cycle
   \   0008E5 35                    XCHW      AX, DE             ;; 1 cycle
   \   0008E6 CEFC00                MOV       CS, #0x0           ;; 1 cycle
   \   0008E9 61EA                  CALL      DE                 ;; 3 cycles
   \   0008EB AEF8                  MOVW      AX, SP             ;; 1 cycle
   \   0008ED 040200                ADDW      AX, #0x2           ;; 1 cycle
   \   0008F0 16                    MOVW      HL, AX             ;; 1 cycle
   \   0008F1 318314                BT        [HL].0, ??ST7579_SetLine_87  ;; 5 cycles
   \   0008F4                       ; ------------------------------------- Block: 27 cycles
   \   0008F4 5104                  MOV       A, #0x4            ;; 1 cycle
   \   0008F6 16                    MOVW      HL, AX             ;; 1 cycle
   \   0008F7 A800                  MOVW      AX, [SP]           ;; 1 cycle
   \   0008F9 37                    XCHW      AX, HL             ;; 1 cycle
   \   0008FA 14                    MOVW      DE, AX             ;; 1 cycle
   \   0008FB AB                    MOVW      AX, [HL]           ;; 1 cycle
   \   0008FC 35                    XCHW      AX, DE             ;; 1 cycle
   \   0008FD C5                    PUSH      DE                 ;; 1 cycle
   \   0008FE C6                    POP       HL                 ;; 1 cycle
   \   0008FF 14                    MOVW      DE, AX             ;; 1 cycle
   \   000900 AC02                  MOVW      AX, [HL+0x02]      ;; 1 cycle
   \   000902 35                    XCHW      AX, DE             ;; 1 cycle
   \   000903 CEFC00                MOV       CS, #0x0           ;; 1 cycle
   \   000906 61EA                  CALL      DE                 ;; 3 cycles
   \   000908                       ; ------------------------------------- Block: 16 cycles
   \                     ??ST7579_SetLine_87:
   \   000908 AEF8                  MOVW      AX, SP             ;; 1 cycle
   \   00090A 040200                ADDW      AX, #0x2           ;; 1 cycle
   \   00090D 16                    MOVW      HL, AX             ;; 1 cycle
   \   00090E 318514                BF        [HL].0, ??ST7579_SetLine_88  ;; 5 cycles
   \   000911                       ; ------------------------------------- Block: 8 cycles
   \   000911 5105                  MOV       A, #0x5            ;; 1 cycle
   \   000913 16                    MOVW      HL, AX             ;; 1 cycle
   \   000914 A800                  MOVW      AX, [SP]           ;; 1 cycle
   \   000916 37                    XCHW      AX, HL             ;; 1 cycle
   \   000917 14                    MOVW      DE, AX             ;; 1 cycle
   \   000918 AB                    MOVW      AX, [HL]           ;; 1 cycle
   \   000919 35                    XCHW      AX, DE             ;; 1 cycle
   \   00091A C5                    PUSH      DE                 ;; 1 cycle
   \   00091B C6                    POP       HL                 ;; 1 cycle
   \   00091C 14                    MOVW      DE, AX             ;; 1 cycle
   \   00091D AC02                  MOVW      AX, [HL+0x02]      ;; 1 cycle
   \   00091F 35                    XCHW      AX, DE             ;; 1 cycle
   \   000920 CEFC00                MOV       CS, #0x0           ;; 1 cycle
   \   000923 61EA                  CALL      DE                 ;; 3 cycles
   \   000925                       ; ------------------------------------- Block: 16 cycles
   \                     ??ST7579_SetLine_88:
   \   000925 5129                  MOV       A, #0x29           ;; 1 cycle
   \   000927 ED....                BR        N:??ST7579_SetLine_89  ;; 3 cycles
   \   00092A                       ; ------------------------------------- Block: 4 cycles
    332                      error = GLYPH_ERROR_NONE ;
    333                      break ;
    334                  case GLYPH_CONTRAST_BOOST:
    335                      p_gw->iLCDAPI->iContrastBoost = (int8_t)aValue ;
   \                     ??ST7579_SetLine_47:
   \   00092A A80A                  MOVW      AX, [SP+0x0A]      ;; 1 cycle
   \   00092C 16                    MOVW      HL, AX             ;; 1 cycle
   \   00092D AB                    MOVW      AX, [HL]           ;; 1 cycle
   \   00092E 16                    MOVW      HL, AX             ;; 1 cycle
   \   00092F 64                    MOV       A, E               ;; 1 cycle
   \   000930 9C19                  MOV       [HL+0x19], A       ;; 1 cycle
    336                      ST7579_SetSystemBiasBooster(aHandle, p_gw->iLCDAPI->iContrastBoost) ;
   \   000932 A80A                  MOVW      AX, [SP+0x0A]      ;; 1 cycle
   \   000934 16                    MOVW      HL, AX             ;; 1 cycle
   \   000935 AB                    MOVW      AX, [HL]           ;; 1 cycle
   \   000936 16                    MOVW      HL, AX             ;; 1 cycle
   \   000937 8C19                  MOV       A, [HL+0x19]       ;; 1 cycle
   \   000939 70                    MOV       X, A               ;; 1 cycle
   \   00093A 7C80                  XOR       A, #0x80           ;; 1 cycle
   \   00093C 2C92                  SUB       A, #0x92           ;; 1 cycle
   \   00093E 61C8                  SKC                          ;; 4 cycles
   \   000940 ED....                BR        N:??ST7579_SetLine_49  ;; 4 cycles
   \   000943                       ; ------------------------------------- Block: 18 cycles
   \   000943 60                    MOV       A, X               ;; 1 cycle
   \   000944 D1                    CMP0      A                  ;; 1 cycle
   \   000945 DD75                  BZ        ??ST7579_SetLine_90  ;; 4 cycles
   \   000947                       ; ------------------------------------- Block: 6 cycles
   \   000947 91                    DEC       A                  ;; 1 cycle
   \   000948 DD64                  BZ        ??ST7579_SetLine_91  ;; 4 cycles
   \   00094A                       ; ------------------------------------- Block: 5 cycles
   \   00094A 91                    DEC       A                  ;; 1 cycle
   \   00094B DD47                  BZ        ??ST7579_SetLine_92  ;; 4 cycles
   \   00094D                       ; ------------------------------------- Block: 5 cycles
   \   00094D 91                    DEC       A                  ;; 1 cycle
   \   00094E DD68                  BZ        ??ST7579_SetLine_93  ;; 4 cycles
   \   000950                       ; ------------------------------------- Block: 5 cycles
   \   000950 91                    DEC       A                  ;; 1 cycle
   \   000951 DD57                  BZ        ??ST7579_SetLine_94  ;; 4 cycles
   \   000953                       ; ------------------------------------- Block: 5 cycles
   \   000953 91                    DEC       A                  ;; 1 cycle
   \   000954 DD3A                  BZ        ??ST7579_SetLine_95  ;; 4 cycles
   \   000956                       ; ------------------------------------- Block: 5 cycles
   \   000956 91                    DEC       A                  ;; 1 cycle
   \   000957 DD5B                  BZ        ??ST7579_SetLine_96  ;; 4 cycles
   \   000959                       ; ------------------------------------- Block: 5 cycles
   \   000959 91                    DEC       A                  ;; 1 cycle
   \   00095A DD4A                  BZ        ??ST7579_SetLine_97  ;; 4 cycles
   \   00095C                       ; ------------------------------------- Block: 5 cycles
   \   00095C 91                    DEC       A                  ;; 1 cycle
   \   00095D DD2D                  BZ        ??ST7579_SetLine_98  ;; 4 cycles
   \   00095F                       ; ------------------------------------- Block: 5 cycles
   \   00095F 2C02                  SUB       A, #0x2            ;; 1 cycle
   \   000961 DD3F                  BZ        ??ST7579_SetLine_99  ;; 4 cycles
   \   000963                       ; ------------------------------------- Block: 5 cycles
   \   000963 91                    DEC       A                  ;; 1 cycle
   \   000964 DD22                  BZ        ??ST7579_SetLine_100  ;; 4 cycles
   \   000966                       ; ------------------------------------- Block: 5 cycles
   \   000966 91                    DEC       A                  ;; 1 cycle
   \   000967 DD35                  BZ        ??ST7579_SetLine_101  ;; 4 cycles
   \   000969                       ; ------------------------------------- Block: 5 cycles
   \   000969 91                    DEC       A                  ;; 1 cycle
   \   00096A DD18                  BZ        ??ST7579_SetLine_102  ;; 4 cycles
   \   00096C                       ; ------------------------------------- Block: 5 cycles
   \   00096C 91                    DEC       A                  ;; 1 cycle
   \   00096D DD2B                  BZ        ??ST7579_SetLine_103  ;; 4 cycles
   \   00096F                       ; ------------------------------------- Block: 5 cycles
   \   00096F 91                    DEC       A                  ;; 1 cycle
   \   000970 DD0E                  BZ        ??ST7579_SetLine_104  ;; 4 cycles
   \   000972                       ; ------------------------------------- Block: 5 cycles
   \   000972 91                    DEC       A                  ;; 1 cycle
   \   000973 DD07                  BZ        ??ST7579_SetLine_105  ;; 4 cycles
   \   000975                       ; ------------------------------------- Block: 5 cycles
   \   000975 91                    DEC       A                  ;; 1 cycle
   \   000976 DF48                  BNZ       ??ST7579_SetLine_106  ;; 4 cycles
   \   000978                       ; ------------------------------------- Block: 5 cycles
   \   000978 5210                  MOV       C, #0x10           ;; 1 cycle
   \   00097A EF1A                  BR        S:??ST7579_SetLine_107  ;; 3 cycles
   \   00097C                       ; ------------------------------------- Block: 4 cycles
   \                     ??ST7579_SetLine_105:
   \   00097C 5211                  MOV       C, #0x11           ;; 1 cycle
   \   00097E EF16                  BR        S:??ST7579_SetLine_107  ;; 3 cycles
   \   000980                       ; ------------------------------------- Block: 4 cycles
   \                     ??ST7579_SetLine_104:
   \   000980 5212                  MOV       C, #0x12           ;; 1 cycle
   \   000982 EF12                  BR        S:??ST7579_SetLine_107  ;; 3 cycles
   \   000984                       ; ------------------------------------- Block: 4 cycles
   \                     ??ST7579_SetLine_102:
   \   000984 5213                  MOV       C, #0x13           ;; 1 cycle
   \   000986 EF0E                  BR        S:??ST7579_SetLine_107  ;; 3 cycles
   \   000988                       ; ------------------------------------- Block: 4 cycles
   \                     ??ST7579_SetLine_100:
   \   000988 5214                  MOV       C, #0x14           ;; 1 cycle
   \   00098A EF0A                  BR        S:??ST7579_SetLine_107  ;; 3 cycles
   \   00098C                       ; ------------------------------------- Block: 4 cycles
   \                     ??ST7579_SetLine_98:
   \   00098C 5215                  MOV       C, #0x15           ;; 1 cycle
   \   00098E EF06                  BR        S:??ST7579_SetLine_107  ;; 3 cycles
   \   000990                       ; ------------------------------------- Block: 4 cycles
   \                     ??ST7579_SetLine_95:
   \   000990 5216                  MOV       C, #0x16           ;; 1 cycle
   \   000992 EF02                  BR        S:??ST7579_SetLine_107  ;; 3 cycles
   \   000994                       ; ------------------------------------- Block: 4 cycles
   \                     ??ST7579_SetLine_92:
   \   000994 5217                  MOV       C, #0x17           ;; 1 cycle
   \   000996                       ; ------------------------------------- Block: 1 cycles
   \                     ??ST7579_SetLine_107:
   \   000996 539B                  MOV       B, #0x9B           ;; 1 cycle
   \   000998 EF2A                  BR        S:??ST7579_SetLine_108  ;; 3 cycles
   \   00099A                       ; ------------------------------------- Block: 4 cycles
   \                     ??ST7579_SetLine_103:
   \   00099A 5212                  MOV       C, #0x12           ;; 1 cycle
   \   00099C EF12                  BR        S:??ST7579_SetLine_109  ;; 3 cycles
   \   00099E                       ; ------------------------------------- Block: 4 cycles
   \                     ??ST7579_SetLine_101:
   \   00099E 5213                  MOV       C, #0x13           ;; 1 cycle
   \   0009A0 EF0E                  BR        S:??ST7579_SetLine_109  ;; 3 cycles
   \   0009A2                       ; ------------------------------------- Block: 4 cycles
   \                     ??ST7579_SetLine_99:
   \   0009A2 5214                  MOV       C, #0x14           ;; 1 cycle
   \   0009A4 EF0A                  BR        S:??ST7579_SetLine_109  ;; 3 cycles
   \   0009A6                       ; ------------------------------------- Block: 4 cycles
   \                     ??ST7579_SetLine_97:
   \   0009A6 5215                  MOV       C, #0x15           ;; 1 cycle
   \   0009A8 EF06                  BR        S:??ST7579_SetLine_109  ;; 3 cycles
   \   0009AA                       ; ------------------------------------- Block: 4 cycles
   \                     ??ST7579_SetLine_94:
   \   0009AA 5216                  MOV       C, #0x16           ;; 1 cycle
   \   0009AC EF02                  BR        S:??ST7579_SetLine_109  ;; 3 cycles
   \   0009AE                       ; ------------------------------------- Block: 4 cycles
   \                     ??ST7579_SetLine_91:
   \   0009AE 5217                  MOV       C, #0x17           ;; 1 cycle
   \   0009B0                       ; ------------------------------------- Block: 1 cycles
   \                     ??ST7579_SetLine_109:
   \   0009B0 539A                  MOV       B, #0x9A           ;; 1 cycle
   \   0009B2 EF10                  BR        S:??ST7579_SetLine_108  ;; 3 cycles
   \   0009B4                       ; ------------------------------------- Block: 4 cycles
   \                     ??ST7579_SetLine_96:
   \   0009B4 5215                  MOV       C, #0x15           ;; 1 cycle
   \   0009B6 EF0A                  BR        S:??ST7579_SetLine_110  ;; 3 cycles
   \   0009B8                       ; ------------------------------------- Block: 4 cycles
   \                     ??ST7579_SetLine_93:
   \   0009B8 5216                  MOV       C, #0x16           ;; 1 cycle
   \   0009BA EF06                  BR        S:??ST7579_SetLine_110  ;; 3 cycles
   \   0009BC                       ; ------------------------------------- Block: 4 cycles
   \                     ??ST7579_SetLine_90:
   \   0009BC 5217                  MOV       C, #0x17           ;; 1 cycle
   \   0009BE EF02                  BR        S:??ST7579_SetLine_110  ;; 3 cycles
   \   0009C0                       ; ------------------------------------- Block: 4 cycles
   \                     ??ST7579_SetLine_106:
   \   0009C0 5214                  MOV       C, #0x14           ;; 1 cycle
   \   0009C2                       ; ------------------------------------- Block: 1 cycles
   \                     ??ST7579_SetLine_110:
   \   0009C2 5399                  MOV       B, #0x99           ;; 1 cycle
   \   0009C4                       ; ------------------------------------- Block: 1 cycles
   \                     ??ST7579_SetLine_108:
   \   0009C4 A80A                  MOVW      AX, [SP+0x0A]      ;; 1 cycle
   \   0009C6 040200                ADDW      AX, #0x2           ;; 1 cycle
   \   0009C9 B800                  MOVW      [SP], AX           ;; 1 cycle
   \   0009CB 5129                  MOV       A, #0x29           ;; 1 cycle
   \   0009CD C1                    PUSH      AX                 ;; 1 cycle
   \   0009CE CEFC00                MOV       CS, #0x0           ;; 1 cycle
   \   0009D1 A802                  MOVW      AX, [SP+0x02]      ;; 1 cycle
   \   0009D3 16                    MOVW      HL, AX             ;; 1 cycle
   \   0009D4 AB                    MOVW      AX, [HL]           ;; 1 cycle
   \   0009D5 16                    MOVW      HL, AX             ;; 1 cycle
   \   0009D6 AC02                  MOVW      AX, [HL+0x02]      ;; 1 cycle
   \   0009D8 14                    MOVW      DE, AX             ;; 1 cycle
   \   0009D9 8801                  MOV       A, [SP+0x01]       ;; 1 cycle
   \   0009DB 1002                  ADDW      SP, #0x2           ;; 1 cycle
   \   0009DD 61EA                  CALL      DE                 ;; 3 cycles
   \   0009DF 62                    MOV       A, C               ;; 1 cycle
   \   0009E0 16                    MOVW      HL, AX             ;; 1 cycle
   \   0009E1 A800                  MOVW      AX, [SP]           ;; 1 cycle
   \   0009E3 37                    XCHW      AX, HL             ;; 1 cycle
   \   0009E4 14                    MOVW      DE, AX             ;; 1 cycle
   \   0009E5 AB                    MOVW      AX, [HL]           ;; 1 cycle
   \   0009E6 35                    XCHW      AX, DE             ;; 1 cycle
   \   0009E7 C5                    PUSH      DE                 ;; 1 cycle
   \   0009E8 C6                    POP       HL                 ;; 1 cycle
   \   0009E9 14                    MOVW      DE, AX             ;; 1 cycle
   \   0009EA AC02                  MOVW      AX, [HL+0x02]      ;; 1 cycle
   \   0009EC 35                    XCHW      AX, DE             ;; 1 cycle
   \   0009ED CEFC00                MOV       CS, #0x0           ;; 1 cycle
   \   0009F0 61EA                  CALL      DE                 ;; 3 cycles
   \   0009F2 512B                  MOV       A, #0x2B           ;; 1 cycle
   \   0009F4                       ; ------------------------------------- Block: 34 cycles
   \                     ??ST7579_SetLine_89:
   \   0009F4 16                    MOVW      HL, AX             ;; 1 cycle
   \   0009F5 A800                  MOVW      AX, [SP]           ;; 1 cycle
   \   0009F7 37                    XCHW      AX, HL             ;; 1 cycle
   \   0009F8 14                    MOVW      DE, AX             ;; 1 cycle
   \   0009F9 AB                    MOVW      AX, [HL]           ;; 1 cycle
   \   0009FA 35                    XCHW      AX, DE             ;; 1 cycle
   \   0009FB C5                    PUSH      DE                 ;; 1 cycle
   \   0009FC C6                    POP       HL                 ;; 1 cycle
   \   0009FD 14                    MOVW      DE, AX             ;; 1 cycle
   \   0009FE AC02                  MOVW      AX, [HL+0x02]      ;; 1 cycle
   \   000A00 35                    XCHW      AX, DE             ;; 1 cycle
   \   000A01 CEFC00                MOV       CS, #0x0           ;; 1 cycle
   \   000A04 61EA                  CALL      DE                 ;; 3 cycles
   \   000A06 A800                  MOVW      AX, [SP]           ;; 1 cycle
   \   000A08 16                    MOVW      HL, AX             ;; 1 cycle
   \   000A09 CEFC00                MOV       CS, #0x0           ;; 1 cycle
   \   000A0C AB                    MOVW      AX, [HL]           ;; 1 cycle
   \   000A0D 16                    MOVW      HL, AX             ;; 1 cycle
   \   000A0E AC02                  MOVW      AX, [HL+0x02]      ;; 1 cycle
   \   000A10 14                    MOVW      DE, AX             ;; 1 cycle
   \   000A11 63                    MOV       A, B               ;; 1 cycle
   \   000A12                       ; ------------------------------------- Block: 23 cycles
   \                     ??ST7579_SetLine_59:
   \   000A12 61EA                  CALL      DE                 ;; 3 cycles
   \   000A14                       ; ------------------------------------- Block: 3 cycles
    337                      error = GLYPH_ERROR_NONE ;
   \                     ??ST7579_SetLine_49:
   \   000A14 F3                    CLRB      B                  ;; 1 cycle
    338                      break ;
   \   000A15                       ; ------------------------------------- Block: 1 cycles
    339              }
    340          
    341              p_gw->iLCDAPI->iStatusRegister = GLYPH_STATUS_READY ;
   \                     ??ST7579_SetLine_48:
   \   000A15 A80A                  MOVW      AX, [SP+0x0A]      ;; 1 cycle
   \   000A17 16                    MOVW      HL, AX             ;; 1 cycle
   \   000A18 100C                  ADDW      SP, #0xC           ;; 1 cycle
   \   000A1A                       ; ------------------------------------- Block: 3 cycles
   \   000A1A                       ; ------------------------------------- Total: 2044 cycles
   \   000A1A                       REQUIRE ?CLRL78_V1_0_L00
   \   000A1A                       REQUIRE ?Subroutine0
   \   000A1A                       ; // Fall through to label ?Subroutine0
    342              return error ;
    343          }

   \                                 In  segment CODE, align 1, keep-with-next
   \                     ?Subroutine0:
   \   000000 AB                    MOVW      AX, [HL]           ;; 1 cycle
   \   000001 16                    MOVW      HL, AX             ;; 1 cycle
   \   000002 F6                    CLRW      AX                 ;; 1 cycle
   \   000003 BC14                  MOVW      [HL+0x14], AX      ;; 1 cycle
   \   000005 63                    MOV       A, B               ;; 1 cycle
   \   000006 D7                    RET                          ;; 6 cycles
   \   000007                       ; ------------------------------------- Block: 11 cycles
   \   000007                       ; ------------------------------------- Total: 11 cycles
   \   000007                       REQUIRE ?CLRL78_V1_0_L00
    344          
    345          /******************************************************************************
    346          * ID : 32.0
    347          * Outline : ST7579_Read
    348          * Include : ST7579_LCD.h
    349          * Function Name: ST7579_Read
    350          * Description : Read data from the glyph data storage using a Glyph Register
    351          *               value.
    352          * Argument : aHandle - the Glyph handle setup by the LCD and Communications.
    353          *          : aRegister - specifies what to receive.
    354          *          : aValue - data received.
    355          * Return Value : 0=success, not 0= error
    356          * Calling Functions : GlyphRead
    357          ******************************************************************************/

   \                                 In  segment CODE, align 1, keep-with-next
    358          T_glyphError ST7579_Read(T_glyphHandle aHandle, uint16_t aRegister, uint16_t *aValue)
   \                     ST7579_Read:
    359          {
   \   000000 C1                    PUSH      AX                 ;; 1 cycle
    360              T_glyphError error = GLYPH_ERROR_ILLEGAL_OPERATION ;
    361              T_glyphWorkspace *p_gw = (T_glyphWorkspace *)aHandle;
    362          
    363              p_gw->iLCDAPI->iStatusRegister = GLYPH_STATUS_BUSY ;
   \   000001 16                    MOVW      HL, AX             ;; 1 cycle
   \   000002 C3                    PUSH      BC                 ;; 1 cycle
   \   000003 AB                    MOVW      AX, [HL]           ;; 1 cycle
   \   000004 16                    MOVW      HL, AX             ;; 1 cycle
   \   000005 300200                MOVW      AX, #0x2           ;; 1 cycle
   \   000008 BC14                  MOVW      [HL+0x14], AX      ;; 1 cycle
    364          
    365              switch (aRegister) {
   \   00000A A800                  MOVW      AX, [SP]           ;; 1 cycle
   \   00000C 240000                SUBW      AX, #0x0           ;; 1 cycle
   \   00000F E3                    ONEB      B                  ;; 1 cycle
   \   000010 DD4D                  BZ        ??ST7579_SetLine_111  ;; 4 cycles
   \   000012                       ; ------------------------------------- Block: 14 cycles
   \   000012                       ; * Stack frame (at entry) *
   \   000012                       ; Param size: 0
   \   000012                       ; Auto size: 4
   \   000012 240100                SUBW      AX, #0x1           ;; 1 cycle
   \   000015 DD5B                  BZ        ??ST7579_SetLine_112  ;; 4 cycles
   \   000017                       ; ------------------------------------- Block: 5 cycles
   \   000017 240100                SUBW      AX, #0x1           ;; 1 cycle
   \   00001A DD5F                  BZ        ??ST7579_SetLine_113  ;; 4 cycles
   \   00001C                       ; ------------------------------------- Block: 5 cycles
   \   00001C 240100                SUBW      AX, #0x1           ;; 1 cycle
   \   00001F DD63                  BZ        ??ST7579_SetLine_114  ;; 4 cycles
   \   000021                       ; ------------------------------------- Block: 5 cycles
   \   000021 240500                SUBW      AX, #0x5           ;; 1 cycle
   \   000024 DD67                  BZ        ??ST7579_SetLine_115  ;; 4 cycles
   \   000026                       ; ------------------------------------- Block: 5 cycles
   \   000026 240100                SUBW      AX, #0x1           ;; 1 cycle
   \   000029 DD6B                  BZ        ??ST7579_SetLine_116  ;; 4 cycles
   \   00002B                       ; ------------------------------------- Block: 5 cycles
   \   00002B 240100                SUBW      AX, #0x1           ;; 1 cycle
   \   00002E DD6F                  BZ        ??ST7579_SetLine_117  ;; 4 cycles
   \   000030                       ; ------------------------------------- Block: 5 cycles
   \   000030 240100                SUBW      AX, #0x1           ;; 1 cycle
   \   000033 DD73                  BZ        ??ST7579_SetLine_118  ;; 4 cycles
   \   000035                       ; ------------------------------------- Block: 5 cycles
   \   000035 240100                SUBW      AX, #0x1           ;; 1 cycle
   \   000038 DD77                  BZ        ??ST7579_SetLine_119  ;; 4 cycles
   \   00003A                       ; ------------------------------------- Block: 5 cycles
   \   00003A 240100                SUBW      AX, #0x1           ;; 1 cycle
   \   00003D DD7B                  BZ        ??ST7579_SetLine_120  ;; 4 cycles
   \   00003F                       ; ------------------------------------- Block: 5 cycles
   \   00003F 240100                SUBW      AX, #0x1           ;; 1 cycle
   \   000042 DD7F                  BZ        ??ST7579_SetLine_121  ;; 4 cycles
   \   000044                       ; ------------------------------------- Block: 5 cycles
   \   000044 240500                SUBW      AX, #0x5           ;; 1 cycle
   \   000047 61F8                  SKNZ                         ;; 4 cycles
   \   000049 ED....                BR        N:??ST7579_SetLine_122  ;; 4 cycles
   \   00004C                       ; ------------------------------------- Block: 5 cycles
   \   00004C 240100                SUBW      AX, #0x1           ;; 1 cycle
   \   00004F 61F8                  SKNZ                         ;; 4 cycles
   \   000051 ED....                BR        N:??ST7579_SetLine_123  ;; 4 cycles
   \   000054                       ; ------------------------------------- Block: 5 cycles
   \   000054 240100                SUBW      AX, #0x1           ;; 1 cycle
   \   000057 61F8                  SKNZ                         ;; 4 cycles
   \   000059 ED....                BR        N:??ST7579_SetLine_124  ;; 4 cycles
   \   00005C                       ; ------------------------------------- Block: 5 cycles
   \   00005C ED....                BR        N:??ST7579_SetLine_125  ;; 3 cycles
   \   00005F                       ; ------------------------------------- Block: 3 cycles
    366                  case GLYPH_STATUS:
    367                      *aValue = GLYPH_STATUS_BUSY ;
   \                     ??ST7579_SetLine_111:
   \   00005F 300200                MOVW      AX, #0x2           ;; 1 cycle
   \   000062 B9                    MOVW      [DE], AX           ;; 1 cycle
    368                      if (p_gw->iLCDAPI->iStatusRegister == 0)
   \   000063 A802                  MOVW      AX, [SP+0x02]      ;; 1 cycle
   \   000065 16                    MOVW      HL, AX             ;; 1 cycle
   \   000066 AB                    MOVW      AX, [HL]           ;; 1 cycle
   \   000067 16                    MOVW      HL, AX             ;; 1 cycle
   \   000068 AC14                  MOVW      AX, [HL+0x14]      ;; 1 cycle
   \   00006A 440000                CMPW      AX, #0x0           ;; 1 cycle
   \   00006D DF79                  BNZ       ??ST7579_SetLine_126  ;; 4 cycles
   \   00006F                       ; ------------------------------------- Block: 12 cycles
    369                      {
    370                          *aValue = GLYPH_STATUS_READY ;
   \   00006F F6                    CLRW      AX                 ;; 1 cycle
   \   000070 EF75                  BR        S:??ST7579_SetLine_127  ;; 3 cycles
   \   000072                       ; ------------------------------------- Block: 4 cycles
    371                      }
    372                      error = GLYPH_ERROR_NONE ;
    373                      break ;
    374                  case GLYPH_CHAR_X:
    375                      *aValue = p_gw->iLCDAPI->iCharX_Position ;
   \                     ??ST7579_SetLine_112:
   \   000072 A802                  MOVW      AX, [SP+0x02]      ;; 1 cycle
   \   000074 16                    MOVW      HL, AX             ;; 1 cycle
   \   000075 AB                    MOVW      AX, [HL]           ;; 1 cycle
   \   000076 16                    MOVW      HL, AX             ;; 1 cycle
   \   000077 AC02                  MOVW      AX, [HL+0x02]      ;; 1 cycle
   \   000079 EF6C                  BR        S:??ST7579_SetLine_127  ;; 3 cycles
   \   00007B                       ; ------------------------------------- Block: 8 cycles
    376                      error = GLYPH_ERROR_NONE ;
    377                      break ;
    378                  case GLYPH_CHAR_Y:
    379                      *aValue = p_gw->iLCDAPI->iCharY_Position ;
   \                     ??ST7579_SetLine_113:
   \   00007B A802                  MOVW      AX, [SP+0x02]      ;; 1 cycle
   \   00007D 16                    MOVW      HL, AX             ;; 1 cycle
   \   00007E AB                    MOVW      AX, [HL]           ;; 1 cycle
   \   00007F 16                    MOVW      HL, AX             ;; 1 cycle
   \   000080 AC04                  MOVW      AX, [HL+0x04]      ;; 1 cycle
   \   000082 EF63                  BR        S:??ST7579_SetLine_127  ;; 3 cycles
   \   000084                       ; ------------------------------------- Block: 8 cycles
    380                      error = GLYPH_ERROR_NONE ;
    381                      break ;
    382                  case GLYPH_FONT:
    383                      *aValue = p_gw->iLCDAPI->iCharFont ;
   \                     ??ST7579_SetLine_114:
   \   000084 A802                  MOVW      AX, [SP+0x02]      ;; 1 cycle
   \   000086 16                    MOVW      HL, AX             ;; 1 cycle
   \   000087 AB                    MOVW      AX, [HL]           ;; 1 cycle
   \   000088 16                    MOVW      HL, AX             ;; 1 cycle
   \   000089 8C0A                  MOV       A, [HL+0x0A]       ;; 1 cycle
   \   00008B EF58                  BR        S:??ST7579_SetLine_128  ;; 3 cycles
   \   00008D                       ; ------------------------------------- Block: 8 cycles
    384                      error = GLYPH_ERROR_NONE ;
    385                      break ;
    386                  case GLYPH_API_MAJOR_VERSION:
    387                      *aValue = p_gw->iLCDAPI->iFP_API_MAJOR_VERSION ;
   \                     ??ST7579_SetLine_115:
   \   00008D A802                  MOVW      AX, [SP+0x02]      ;; 1 cycle
   \   00008F 16                    MOVW      HL, AX             ;; 1 cycle
   \   000090 AB                    MOVW      AX, [HL]           ;; 1 cycle
   \   000091 16                    MOVW      HL, AX             ;; 1 cycle
   \   000092 8C0B                  MOV       A, [HL+0x0B]       ;; 1 cycle
   \   000094 EF4F                  BR        S:??ST7579_SetLine_128  ;; 3 cycles
   \   000096                       ; ------------------------------------- Block: 8 cycles
    388                      error = GLYPH_ERROR_NONE ;
    389                      break ;
    390                  case GLYPH_API_MINOR_VERSION:
    391                      *aValue = p_gw->iLCDAPI->iFP_API_MINOR_VERSION ;
   \                     ??ST7579_SetLine_116:
   \   000096 A802                  MOVW      AX, [SP+0x02]      ;; 1 cycle
   \   000098 16                    MOVW      HL, AX             ;; 1 cycle
   \   000099 AB                    MOVW      AX, [HL]           ;; 1 cycle
   \   00009A 16                    MOVW      HL, AX             ;; 1 cycle
   \   00009B 8C0C                  MOV       A, [HL+0x0C]       ;; 1 cycle
   \   00009D EF46                  BR        S:??ST7579_SetLine_128  ;; 3 cycles
   \   00009F                       ; ------------------------------------- Block: 8 cycles
    392                      error = GLYPH_ERROR_NONE ;
    393                      break ;
    394                  case GLYPH_IMPLEMENTATION_ID:
    395                      *aValue = p_gw->iLCDAPI->iFP_IMPLEMENTATION_ID ;
   \                     ??ST7579_SetLine_117:
   \   00009F A802                  MOVW      AX, [SP+0x02]      ;; 1 cycle
   \   0000A1 16                    MOVW      HL, AX             ;; 1 cycle
   \   0000A2 AB                    MOVW      AX, [HL]           ;; 1 cycle
   \   0000A3 16                    MOVW      HL, AX             ;; 1 cycle
   \   0000A4 8C0D                  MOV       A, [HL+0x0D]       ;; 1 cycle
   \   0000A6 EF3D                  BR        S:??ST7579_SetLine_128  ;; 3 cycles
   \   0000A8                       ; ------------------------------------- Block: 8 cycles
    396                      error = GLYPH_ERROR_NONE ;
    397                      break ;
    398                  case GLYPH_IMPL_MAJOR_VERSION:
    399                      *aValue = p_gw->iLCDAPI->iFP_IMPL_MAJOR_VERSION ;
   \                     ??ST7579_SetLine_118:
   \   0000A8 A802                  MOVW      AX, [SP+0x02]      ;; 1 cycle
   \   0000AA 16                    MOVW      HL, AX             ;; 1 cycle
   \   0000AB AB                    MOVW      AX, [HL]           ;; 1 cycle
   \   0000AC 16                    MOVW      HL, AX             ;; 1 cycle
   \   0000AD 8C0E                  MOV       A, [HL+0x0E]       ;; 1 cycle
   \   0000AF EF34                  BR        S:??ST7579_SetLine_128  ;; 3 cycles
   \   0000B1                       ; ------------------------------------- Block: 8 cycles
    400                      error = GLYPH_ERROR_NONE ;
    401                      break ;
    402                  case GLYPH_IMPL_MINOR_VERSION:
    403                      *aValue = p_gw->iLCDAPI->iFP_IMPL_MINOR_VERSION ;
   \                     ??ST7579_SetLine_119:
   \   0000B1 A802                  MOVW      AX, [SP+0x02]      ;; 1 cycle
   \   0000B3 16                    MOVW      HL, AX             ;; 1 cycle
   \   0000B4 AB                    MOVW      AX, [HL]           ;; 1 cycle
   \   0000B5 16                    MOVW      HL, AX             ;; 1 cycle
   \   0000B6 8C0F                  MOV       A, [HL+0x0F]       ;; 1 cycle
   \   0000B8 EF2B                  BR        S:??ST7579_SetLine_128  ;; 3 cycles
   \   0000BA                       ; ------------------------------------- Block: 8 cycles
    404                      error = GLYPH_ERROR_NONE ;
    405                      break ;
    406                  case GLYPH_CHAR_X2:
    407                      *aValue = p_gw->iLCDAPI->iCharX2_Position ;
   \                     ??ST7579_SetLine_120:
   \   0000BA A802                  MOVW      AX, [SP+0x02]      ;; 1 cycle
   \   0000BC 16                    MOVW      HL, AX             ;; 1 cycle
   \   0000BD AB                    MOVW      AX, [HL]           ;; 1 cycle
   \   0000BE 16                    MOVW      HL, AX             ;; 1 cycle
   \   0000BF AC06                  MOVW      AX, [HL+0x06]      ;; 1 cycle
   \   0000C1 EF24                  BR        S:??ST7579_SetLine_127  ;; 3 cycles
   \   0000C3                       ; ------------------------------------- Block: 8 cycles
    408                      error = GLYPH_ERROR_NONE ;
    409                      break ;
    410                  case GLYPH_CHAR_Y2:
    411                      *aValue = p_gw->iLCDAPI->iCharY2_Position ;
   \                     ??ST7579_SetLine_121:
   \   0000C3 A802                  MOVW      AX, [SP+0x02]      ;; 1 cycle
   \   0000C5 16                    MOVW      HL, AX             ;; 1 cycle
   \   0000C6 AB                    MOVW      AX, [HL]           ;; 1 cycle
   \   0000C7 16                    MOVW      HL, AX             ;; 1 cycle
   \   0000C8 AC08                  MOVW      AX, [HL+0x08]      ;; 1 cycle
   \   0000CA EF1B                  BR        S:??ST7579_SetLine_127  ;; 3 cycles
   \   0000CC                       ; ------------------------------------- Block: 8 cycles
    412                      error = GLYPH_ERROR_NONE ;
    413                      break ;
    414                  case GLYPH_FRAME_RATE:
    415                      *aValue = (uint16_t)p_gw->iLCDAPI->iFrameRate ;
   \                     ??ST7579_SetLine_122:
   \   0000CC A802                  MOVW      AX, [SP+0x02]      ;; 1 cycle
   \   0000CE 16                    MOVW      HL, AX             ;; 1 cycle
   \   0000CF AB                    MOVW      AX, [HL]           ;; 1 cycle
   \   0000D0 16                    MOVW      HL, AX             ;; 1 cycle
   \   0000D1 8C1A                  MOV       A, [HL+0x1A]       ;; 1 cycle
   \   0000D3 EF10                  BR        S:??ST7579_SetLine_128  ;; 3 cycles
   \   0000D5                       ; ------------------------------------- Block: 8 cycles
    416                      error = GLYPH_ERROR_NONE ;
    417                      break ;
    418                  case GLYPH_CONTRAST:
    419                      *aValue = (uint16_t)p_gw->iLCDAPI->iContrast ;
   \                     ??ST7579_SetLine_123:
   \   0000D5 A802                  MOVW      AX, [SP+0x02]      ;; 1 cycle
   \   0000D7 16                    MOVW      HL, AX             ;; 1 cycle
   \   0000D8 AB                    MOVW      AX, [HL]           ;; 1 cycle
   \   0000D9 16                    MOVW      HL, AX             ;; 1 cycle
   \   0000DA 8C18                  MOV       A, [HL+0x18]       ;; 1 cycle
   \   0000DC EF07                  BR        S:??ST7579_SetLine_128  ;; 3 cycles
   \   0000DE                       ; ------------------------------------- Block: 8 cycles
    420                      error = GLYPH_ERROR_NONE ;
    421                      break ;
    422                  case GLYPH_CONTRAST_BOOST:
    423                      *aValue = (uint16_t)p_gw->iLCDAPI->iContrastBoost ;
   \                     ??ST7579_SetLine_124:
   \   0000DE A802                  MOVW      AX, [SP+0x02]      ;; 1 cycle
   \   0000E0 16                    MOVW      HL, AX             ;; 1 cycle
   \   0000E1 AB                    MOVW      AX, [HL]           ;; 1 cycle
   \   0000E2 16                    MOVW      HL, AX             ;; 1 cycle
   \   0000E3 8C19                  MOV       A, [HL+0x19]       ;; 1 cycle
   \   0000E5                       ; ------------------------------------- Block: 5 cycles
   \                     ??ST7579_SetLine_128:
   \   0000E5 70                    MOV       X, A               ;; 1 cycle
   \   0000E6 F1                    CLRB      A                  ;; 1 cycle
   \   0000E7                       ; ------------------------------------- Block: 2 cycles
   \                     ??ST7579_SetLine_127:
   \   0000E7 B9                    MOVW      [DE], AX           ;; 1 cycle
    424                      error = GLYPH_ERROR_NONE ;
   \   0000E8                       ; ------------------------------------- Block: 1 cycles
   \                     ??ST7579_SetLine_126:
   \   0000E8 F3                    CLRB      B                  ;; 1 cycle
    425                      break ;
   \   0000E9                       ; ------------------------------------- Block: 1 cycles
    426              }
    427          
    428              p_gw->iLCDAPI->iStatusRegister = GLYPH_STATUS_READY ;
   \                     ??ST7579_SetLine_125:
   \   0000E9 A802                  MOVW      AX, [SP+0x02]      ;; 1 cycle
   \   0000EB 16                    MOVW      HL, AX             ;; 1 cycle
   \   0000EC 1004                  ADDW      SP, #0x4           ;; 1 cycle
   \   0000EE ED....                BR        N:?Subroutine0     ;; 3 cycles
   \   0000F1                       ; ------------------------------------- Block: 6 cycles
   \   0000F1                       ; ------------------------------------- Total: 209 cycles
   \   0000F1                       REQUIRE ?CLRL78_V1_0_L00
    429              return error ;
    430          }
    431          
    432          /******************************************************************************
    433          * ID : 39.0
    434          * Outline : ST7579_SetSystemBiasBooster
    435          * Include : ST7579_LCD.h
    436          * Function Name: ST7579_SetSystemBiasBooster
    437          * Description : Set the LCD system bias.  Below is a sample Bias chart.
    438          *
    439          * VDD2=2.4V                             Bias
    440          *             1/4     1/5     1/6     1/7       1/8     1/9     1/10    1/11
    441          * Booster X3  3~4.5   3~5.2   3.3~6.3 3.5~6     X       X       X       X
    442          * Booster X4  3~4.5   3~5.7   3.3~7.4 3.5~8.55  3.5~8.1 4~8.1   X       X
    443          * Booster X5  3~4.5   3~5.7   3.3~7.4 3.5~8.8   3.5~9.1 4~9.1 4.2~9.6 4.6~9.6
    444          *
    445          * X: Do not select this setting.
    446          * 
    447          * The bias setting will have to be set manually and permanently in this
    448          * function
    449          *
    450          * This function also sets booster efficiency.  The setting of booster
    451          * efficiency is hard programmed here and must be manually changed.
    452          * Efficiency is set at level 2.  The efficiency levels are:
    453          * for booster efficiency level 1: 0x9D, 0x9E, 0x9F
    454          * for booster efficiency level 2: 0x99, 0x9A, 0x9B
    455          * for booster efficiency level 3: 0x95, 0x96, 0x97
    456          * for booster efficiency level 4: 0x91, 0x92, 0x93
    457          * Argument : aHandle - the Glyph handle setup by the LCD and Communications.
    458          *          : cValue0To17 - booster set value from 0 to 17 is valid.
    459          * Return Value : none
    460          * Calling Functions : ST7579_Write
    461          ******************************************************************************/

   \                                 In  segment CODE, align 1, keep-with-next
    462          void ST7579_SetSystemBiasBooster(T_glyphHandle aHandle, int8_t cValue0To17)
   \                     ST7579_SetSystemBiasBooster:
    463          {
   \   000000 C3                    PUSH      BC                 ;; 1 cycle
   \   000001 C5                    PUSH      DE                 ;; 1 cycle
   \   000002 C1                    PUSH      AX                 ;; 1 cycle
    464              T_glyphWorkspace *p_gw = (T_glyphWorkspace *)aHandle;
    465          
    466              if (cValue0To17 <= 17) {
   \   000003 63                    MOV       A, B               ;; 1 cycle
   \   000004 7C80                  XOR       A, #0x80           ;; 1 cycle
   \   000006 2C92                  SUB       A, #0x92           ;; 1 cycle
   \   000008 61C8                  SKC                          ;; 4 cycles
   \   00000A ED....                BR        N:??ST7579_SetLine_129  ;; 4 cycles
   \   00000D                       ; ------------------------------------- Block: 10 cycles
   \   00000D                       ; * Stack frame (at entry) *
   \   00000D                       ; Param size: 0
   \   00000D                       ; Auto size: 2
    467                  /* Select bias and boost settings from value */
    468                  char cBias = 0 ;
    469                  char cBoost = 0 ;
    470                  switch (cValue0To17) {
   \   00000D 63                    MOV       A, B               ;; 1 cycle
   \   00000E D1                    CMP0      A                  ;; 1 cycle
   \   00000F DD33                  BZ        ??ST7579_SetLine_130  ;; 4 cycles
   \   000011                       ; ------------------------------------- Block: 6 cycles
   \   000011 91                    DEC       A                  ;; 1 cycle
   \   000012 DD3C                  BZ        ??ST7579_SetLine_131  ;; 4 cycles
   \   000014                       ; ------------------------------------- Block: 5 cycles
   \   000014 91                    DEC       A                  ;; 1 cycle
   \   000015 DD53                  BZ        ??ST7579_SetLine_132  ;; 4 cycles
   \   000017                       ; ------------------------------------- Block: 5 cycles
   \   000017 91                    DEC       A                  ;; 1 cycle
   \   000018 DD2E                  BZ        ??ST7579_SetLine_133  ;; 4 cycles
   \   00001A                       ; ------------------------------------- Block: 5 cycles
   \   00001A 91                    DEC       A                  ;; 1 cycle
   \   00001B DD37                  BZ        ??ST7579_SetLine_134  ;; 4 cycles
   \   00001D                       ; ------------------------------------- Block: 5 cycles
   \   00001D 91                    DEC       A                  ;; 1 cycle
   \   00001E DD4E                  BZ        ??ST7579_SetLine_135  ;; 4 cycles
   \   000020                       ; ------------------------------------- Block: 5 cycles
   \   000020 91                    DEC       A                  ;; 1 cycle
   \   000021 DD29                  BZ        ??ST7579_SetLine_136  ;; 4 cycles
   \   000023                       ; ------------------------------------- Block: 5 cycles
   \   000023 91                    DEC       A                  ;; 1 cycle
   \   000024 DD32                  BZ        ??ST7579_SetLine_137  ;; 4 cycles
   \   000026                       ; ------------------------------------- Block: 5 cycles
   \   000026 91                    DEC       A                  ;; 1 cycle
   \   000027 DD49                  BZ        ??ST7579_SetLine_138  ;; 4 cycles
   \   000029                       ; ------------------------------------- Block: 5 cycles
   \   000029 2C02                  SUB       A, #0x2            ;; 1 cycle
   \   00002B DD2F                  BZ        ??ST7579_SetLine_139  ;; 4 cycles
   \   00002D                       ; ------------------------------------- Block: 5 cycles
   \   00002D 91                    DEC       A                  ;; 1 cycle
   \   00002E DD46                  BZ        ??ST7579_SetLine_140  ;; 4 cycles
   \   000030                       ; ------------------------------------- Block: 5 cycles
   \   000030 91                    DEC       A                  ;; 1 cycle
   \   000031 DD2D                  BZ        ??ST7579_SetLine_141  ;; 4 cycles
   \   000033                       ; ------------------------------------- Block: 5 cycles
   \   000033 91                    DEC       A                  ;; 1 cycle
   \   000034 DD44                  BZ        ??ST7579_SetLine_142  ;; 4 cycles
   \   000036                       ; ------------------------------------- Block: 5 cycles
   \   000036 91                    DEC       A                  ;; 1 cycle
   \   000037 DD2B                  BZ        ??ST7579_SetLine_143  ;; 4 cycles
   \   000039                       ; ------------------------------------- Block: 5 cycles
   \   000039 91                    DEC       A                  ;; 1 cycle
   \   00003A DD42                  BZ        ??ST7579_SetLine_144  ;; 4 cycles
   \   00003C                       ; ------------------------------------- Block: 5 cycles
   \   00003C 91                    DEC       A                  ;; 1 cycle
   \   00003D DD43                  BZ        ??ST7579_SetLine_145  ;; 4 cycles
   \   00003F                       ; ------------------------------------- Block: 5 cycles
   \   00003F 91                    DEC       A                  ;; 1 cycle
   \   000040 DD44                  BZ        ??ST7579_SetLine_146  ;; 4 cycles
   \   000042                       ; ------------------------------------- Block: 5 cycles
   \   000042 EF48                  BR        S:??ST7579_SetLine_147  ;; 3 cycles
   \   000044                       ; ------------------------------------- Block: 3 cycles
    471                      case 0:
    472                          /* Bias level 1/4 Boost Times 3. */
    473                          cBias = 0x17 ;
   \                     ??ST7579_SetLine_130:
   \   000044 5217                  MOV       C, #0x17           ;; 1 cycle
    474                          cBoost = 0x99 ;
   \   000046 EF46                  BR        S:??ST7579_SetLine_148  ;; 3 cycles
   \   000048                       ; ------------------------------------- Block: 4 cycles
    475                          break ;
    476                      case 3:
    477                          /* Bias level 1/5 Boost Times 3. */
    478                          cBias = 0x16 ;
   \                     ??ST7579_SetLine_133:
   \   000048 5216                  MOV       C, #0x16           ;; 1 cycle
    479                          cBoost = 0x99 ;
   \   00004A EF42                  BR        S:??ST7579_SetLine_148  ;; 3 cycles
   \   00004C                       ; ------------------------------------- Block: 4 cycles
    480                          break ;
    481                      case 6:
    482                          /* Bias level 1/6 Boost Times 3. */
    483                          cBias = 0x15 ;
   \                     ??ST7579_SetLine_136:
   \   00004C 5215                  MOV       C, #0x15           ;; 1 cycle
    484                          cBoost = 0x99 ;
   \   00004E EF3E                  BR        S:??ST7579_SetLine_148  ;; 3 cycles
   \   000050                       ; ------------------------------------- Block: 4 cycles
    485                          break ;
    486                      case 9:
    487                          /* Bias level 1/7 Boost Times 3. */
    488                          cBias = 0x14 ;
    489                          cBoost = 0x99 ;
    490                          break ;
    491                      case 1:
    492                          /* Bias level 1/4 Boost Times 4. */
    493                          cBias = 0x17 ;
   \                     ??ST7579_SetLine_131:
   \   000050 5217                  MOV       C, #0x17           ;; 1 cycle
    494                          cBoost = 0x9A ;
   \   000052 EF12                  BR        S:??ST7579_SetLine_149  ;; 3 cycles
   \   000054                       ; ------------------------------------- Block: 4 cycles
    495                          break ;
    496                      case 4:
    497                          /* Bias level 1/5 Boost Times 4. */
    498                          cBias = 0x16 ;
   \                     ??ST7579_SetLine_134:
   \   000054 5216                  MOV       C, #0x16           ;; 1 cycle
    499                          cBoost = 0x9A ;
   \   000056 EF0E                  BR        S:??ST7579_SetLine_149  ;; 3 cycles
   \   000058                       ; ------------------------------------- Block: 4 cycles
    500                          break ;
    501                      case 7:
    502                          /* Bias level 1/6 Boost Times 4. */
    503                          cBias = 0x15 ;
   \                     ??ST7579_SetLine_137:
   \   000058 5215                  MOV       C, #0x15           ;; 1 cycle
    504                          cBoost = 0x9A ;
   \   00005A EF0A                  BR        S:??ST7579_SetLine_149  ;; 3 cycles
   \   00005C                       ; ------------------------------------- Block: 4 cycles
    505                          break ;
    506                      case 10:
    507                          /* Bias level 1/7 Boost Times 4. */
    508                          cBias = 0x14 ;
   \                     ??ST7579_SetLine_139:
   \   00005C 5214                  MOV       C, #0x14           ;; 1 cycle
    509                          cBoost = 0x9A ;
   \   00005E EF06                  BR        S:??ST7579_SetLine_149  ;; 3 cycles
   \   000060                       ; ------------------------------------- Block: 4 cycles
    510                          break ;
    511                      case 12:
    512                          /* Bias level 1/8 Boost Times 4. */
    513                          cBias = 0x13 ;
   \                     ??ST7579_SetLine_141:
   \   000060 5213                  MOV       C, #0x13           ;; 1 cycle
    514                          cBoost = 0x9A ;
   \   000062 EF02                  BR        S:??ST7579_SetLine_149  ;; 3 cycles
   \   000064                       ; ------------------------------------- Block: 4 cycles
    515                          break ;
    516                      case 14:
    517                          /* Bias level 1/9 Boost Times 4. */
    518                          cBias = 0x12 ;
   \                     ??ST7579_SetLine_143:
   \   000064 5212                  MOV       C, #0x12           ;; 1 cycle
    519                          cBoost = 0x9A ;
   \   000066                       ; ------------------------------------- Block: 1 cycles
   \                     ??ST7579_SetLine_149:
   \   000066 539A                  MOV       B, #0x9A           ;; 1 cycle
    520                          break ;
   \   000068 EF26                  BR        S:??ST7579_SetLine_150  ;; 3 cycles
   \   00006A                       ; ------------------------------------- Block: 4 cycles
    521                      case 2:
    522                          /* Bias level 1/4 Boost Times 5. */
    523                          cBias = 0x17 ;
   \                     ??ST7579_SetLine_132:
   \   00006A 5217                  MOV       C, #0x17           ;; 1 cycle
    524                          cBoost = 0x9B ;
   \   00006C EF1A                  BR        S:??ST7579_SetLine_151  ;; 3 cycles
   \   00006E                       ; ------------------------------------- Block: 4 cycles
    525                          break ;
    526                      case 5:
    527                          /* Bias level 1/5 Boost Times 5. */
    528                          cBias = 0x16 ;
   \                     ??ST7579_SetLine_135:
   \   00006E 5216                  MOV       C, #0x16           ;; 1 cycle
    529                          cBoost = 0x9B ;
   \   000070 EF16                  BR        S:??ST7579_SetLine_151  ;; 3 cycles
   \   000072                       ; ------------------------------------- Block: 4 cycles
    530                          break ;
    531                      case 8:
    532                          /* Bias level 1/6 Boost Times 5. */
    533                          cBias = 0x15 ;
   \                     ??ST7579_SetLine_138:
   \   000072 5215                  MOV       C, #0x15           ;; 1 cycle
    534                          cBoost = 0x9B ;
   \   000074 EF12                  BR        S:??ST7579_SetLine_151  ;; 3 cycles
   \   000076                       ; ------------------------------------- Block: 4 cycles
    535                          break ;
    536                      case 11:
    537                          /* Bias level 1/7 Boost Times 5. */
    538                          cBias = 0x14 ;
   \                     ??ST7579_SetLine_140:
   \   000076 5214                  MOV       C, #0x14           ;; 1 cycle
    539                          cBoost = 0x9B ;
   \   000078 EF0E                  BR        S:??ST7579_SetLine_151  ;; 3 cycles
   \   00007A                       ; ------------------------------------- Block: 4 cycles
    540                          break ;
    541                      case 13:
    542                          /* Bias level 1/8 Boost Times 5. */
    543                          cBias = 0x13 ;
   \                     ??ST7579_SetLine_142:
   \   00007A 5213                  MOV       C, #0x13           ;; 1 cycle
    544                          cBoost = 0x9B ;
   \   00007C EF0A                  BR        S:??ST7579_SetLine_151  ;; 3 cycles
   \   00007E                       ; ------------------------------------- Block: 4 cycles
    545                          break ;
    546                      case 15:
    547                          /* Bias level 1/9 Boost Times 5. */
    548                          cBias = 0x12 ;
   \                     ??ST7579_SetLine_144:
   \   00007E 5212                  MOV       C, #0x12           ;; 1 cycle
    549                          cBoost = 0x9B ;
   \   000080 EF06                  BR        S:??ST7579_SetLine_151  ;; 3 cycles
   \   000082                       ; ------------------------------------- Block: 4 cycles
    550                          break ;
    551                      case 16:
    552                          /* Bias level 1/10 Boost Times 5. */
    553                          cBias = 0x11 ;
   \                     ??ST7579_SetLine_145:
   \   000082 5211                  MOV       C, #0x11           ;; 1 cycle
    554                          cBoost = 0x9B ;
   \   000084 EF02                  BR        S:??ST7579_SetLine_151  ;; 3 cycles
   \   000086                       ; ------------------------------------- Block: 4 cycles
    555                          break ;
    556                      case 17:
    557                          /* Bias level 1/11 Boost Times 5. */
    558                          cBias = 0x10 ;
   \                     ??ST7579_SetLine_146:
   \   000086 5210                  MOV       C, #0x10           ;; 1 cycle
    559                          cBoost = 0x9B ;
   \   000088                       ; ------------------------------------- Block: 1 cycles
   \                     ??ST7579_SetLine_151:
   \   000088 539B                  MOV       B, #0x9B           ;; 1 cycle
    560                          break ;
   \   00008A EF04                  BR        S:??ST7579_SetLine_150  ;; 3 cycles
   \   00008C                       ; ------------------------------------- Block: 4 cycles
    561                      default:
    562                          /* Bias level 7 Boost Times 3. */
    563                          cBias = 0x14 ;
   \                     ??ST7579_SetLine_147:
   \   00008C 5214                  MOV       C, #0x14           ;; 1 cycle
    564                          cBoost = 0x99 ;
   \   00008E                       ; ------------------------------------- Block: 1 cycles
   \                     ??ST7579_SetLine_148:
   \   00008E 5399                  MOV       B, #0x99           ;; 1 cycle
    565                          break ;
   \   000090                       ; ------------------------------------- Block: 1 cycles
   \                     ??ST7579_SetLine_150:
   \   000090 5129                  MOV       A, #0x29           ;; 1 cycle
   \   000092 C1                    PUSH      AX                 ;; 1 cycle
   \   000093 CEFC00                MOV       CS, #0x0           ;; 1 cycle
   \   000096 A802                  MOVW      AX, [SP+0x02]      ;; 1 cycle
   \   000098 16                    MOVW      HL, AX             ;; 1 cycle
   \   000099 AC02                  MOVW      AX, [HL+0x02]      ;; 1 cycle
   \   00009B 16                    MOVW      HL, AX             ;; 1 cycle
   \   00009C AC02                  MOVW      AX, [HL+0x02]      ;; 1 cycle
   \   00009E 14                    MOVW      DE, AX             ;; 1 cycle
   \   00009F 8801                  MOV       A, [SP+0x01]       ;; 1 cycle
   \   0000A1 1002                  ADDW      SP, #0x2           ;; 1 cycle
    566                  }
    567          
    568                  /* Set Bias */
    569                  /* Use Function Set 1 H[1:0]=(0,1) */
    570                  /* Original Development hardcoded this as CommandSend(0x021) */
    571                  p_gw->iCommAPI->iCommandSend(LCD_FUNCTION_ONE) ;
   \   0000A3 61EA                  CALL      DE                 ;; 3 cycles
    572                  p_gw->iCommAPI->iCommandSend(cBias) ;
   \   0000A5 62                    MOV       A, C               ;; 1 cycle
   \   0000A6 16                    MOVW      HL, AX             ;; 1 cycle
   \   0000A7 A800                  MOVW      AX, [SP]           ;; 1 cycle
   \   0000A9 37                    XCHW      AX, HL             ;; 1 cycle
   \   0000AA 14                    MOVW      DE, AX             ;; 1 cycle
   \   0000AB AC02                  MOVW      AX, [HL+0x02]      ;; 1 cycle
   \   0000AD 35                    XCHW      AX, DE             ;; 1 cycle
   \   0000AE C5                    PUSH      DE                 ;; 1 cycle
   \   0000AF C6                    POP       HL                 ;; 1 cycle
   \   0000B0 14                    MOVW      DE, AX             ;; 1 cycle
   \   0000B1 AC02                  MOVW      AX, [HL+0x02]      ;; 1 cycle
   \   0000B3 35                    XCHW      AX, DE             ;; 1 cycle
   \   0000B4 CEFC00                MOV       CS, #0x0           ;; 1 cycle
   \   0000B7 61EA                  CALL      DE                 ;; 3 cycles
    573          
    574                  /* Set Booster */
    575                  /* Use Function Set 3 H[1:0]=(1,1) */
    576                  /* Original Development hardcoded this as CommandSend(0x023) */
    577                  p_gw->iCommAPI->iCommandSend(LCD_FUNCTION_THREE) ;
   \   0000B9 512B                  MOV       A, #0x2B           ;; 1 cycle
   \   0000BB 16                    MOVW      HL, AX             ;; 1 cycle
   \   0000BC A800                  MOVW      AX, [SP]           ;; 1 cycle
   \   0000BE 37                    XCHW      AX, HL             ;; 1 cycle
   \   0000BF 14                    MOVW      DE, AX             ;; 1 cycle
   \   0000C0 AC02                  MOVW      AX, [HL+0x02]      ;; 1 cycle
   \   0000C2 35                    XCHW      AX, DE             ;; 1 cycle
   \   0000C3 C5                    PUSH      DE                 ;; 1 cycle
   \   0000C4 C6                    POP       HL                 ;; 1 cycle
   \   0000C5 14                    MOVW      DE, AX             ;; 1 cycle
   \   0000C6 AC02                  MOVW      AX, [HL+0x02]      ;; 1 cycle
   \   0000C8 35                    XCHW      AX, DE             ;; 1 cycle
   \   0000C9 CEFC00                MOV       CS, #0x0           ;; 1 cycle
   \   0000CC 61EA                  CALL      DE                 ;; 3 cycles
    578                  /* Set default efficiency and multiplyer on voltage */
    579                  p_gw->iCommAPI->iCommandSend(cBoost) ;
   \   0000CE A800                  MOVW      AX, [SP]           ;; 1 cycle
   \   0000D0 16                    MOVW      HL, AX             ;; 1 cycle
   \   0000D1 CEFC00                MOV       CS, #0x0           ;; 1 cycle
   \   0000D4 AC02                  MOVW      AX, [HL+0x02]      ;; 1 cycle
   \   0000D6 16                    MOVW      HL, AX             ;; 1 cycle
   \   0000D7 AC02                  MOVW      AX, [HL+0x02]      ;; 1 cycle
   \   0000D9 14                    MOVW      DE, AX             ;; 1 cycle
   \   0000DA 63                    MOV       A, B               ;; 1 cycle
   \   0000DB 61EA                  CALL      DE                 ;; 3 cycles
   \   0000DD                       ; ------------------------------------- Block: 57 cycles
    580              }
    581          }
   \                     ??ST7579_SetLine_129:
   \   0000DD 1002                  ADDW      SP, #0x2           ;; 1 cycle
   \   0000DF C4                    POP       DE                 ;; 1 cycle
   \   0000E0 C2                    POP       BC                 ;; 1 cycle
   \   0000E1 D7                    RET                          ;; 6 cycles
   \   0000E2                       ; ------------------------------------- Block: 9 cycles
   \   0000E2                       ; ------------------------------------- Total: 237 cycles
   \   0000E2                       REQUIRE ?CLRL78_V1_0_L00
    582          
    583          /******************************************************************************
    584          * ID : 40.0
    585          * Outline : ST7579_SetVO_Range
    586          * Include : ST7579_LCD.h
    587          * Function Name: ST7579_SetVO_Range
    588          * Description : Set the LCD VO Range.  VO is used as a Contrast Control for the LCD
    589          * Argument : aHandle - the Glyph handle setup by the LCD and Communications.
    590          *          : nValue0to254 - contrast set value from 0 to 254 is valid.
    591          * Return Value : none
    592          * Calling Functions : ST7579_Write
    593          ******************************************************************************/

   \                                 In  segment CODE, align 1, keep-with-next
    594          void ST7579_SetVO_Range(T_glyphHandle aHandle, int16_t nValue0to254)
   \                     ST7579_SetVO_Range:
    595          {
   \   000000 C5                    PUSH      DE                 ;; 1 cycle
   \   000001 C1                    PUSH      AX                 ;; 1 cycle
   \   000002 C1                    PUSH      AX                 ;; 1 cycle
    596              T_glyphWorkspace *p_gw = (T_glyphWorkspace *)aHandle;
    597          
    598              if (nValue0to254 <= 254) {
   \   000003 13                    MOVW      AX, BC             ;; 1 cycle
   \   000004 7C80                  XOR       A, #0x80           ;; 1 cycle
   \   000006 44FF80                CMPW      AX, #0x80FF        ;; 1 cycle
   \   000009 61C8                  SKC                          ;; 4 cycles
   \   00000B ED....                BR        N:??ST7579_SetLine_152  ;; 4 cycles
   \   00000E                       ; ------------------------------------- Block: 10 cycles
   \   00000E                       ; * Stack frame (at entry) *
   \   00000E                       ; Param size: 0
   \   00000E                       ; Auto size: 4
    599                  char cByteToSend = 0 ;
    600                  char cLowHigh = 0 ;
   \   00000E F1                    CLRB      A                  ;; 1 cycle
   \   00000F 9800                  MOV       [SP], A            ;; 1 cycle
    601          
    602                  if (nValue0to254 > 127) {
   \   000011 13                    MOVW      AX, BC             ;; 1 cycle
   \   000012 7C80                  XOR       A, #0x80           ;; 1 cycle
   \   000014 448080                CMPW      AX, #0x8080        ;; 1 cycle
   \   000017 62                    MOV       A, C               ;; 1 cycle
   \   000018 DC0A                  BC        ??ST7579_SetLine_153  ;; 4 cycles
   \   00001A                       ; ------------------------------------- Block: 10 cycles
    603                      cByteToSend = ((nValue0to254 - 127) | 0x80) & 0x00FF ;
   \   00001A 0C81                  ADD       A, #0x81           ;; 1 cycle
   \   00001C 6C80                  OR        A, #0x80           ;; 1 cycle
   \   00001E 73                    MOV       B, A               ;; 1 cycle
    604                      cLowHigh = 1 ;
   \   00001F E1                    ONEB      A                  ;; 1 cycle
   \   000020 9800                  MOV       [SP], A            ;; 1 cycle
   \   000022 EF03                  BR        S:??ST7579_SetLine_154  ;; 3 cycles
   \   000024                       ; ------------------------------------- Block: 8 cycles
    605                  }
    606                  else {
    607                      cByteToSend = (nValue0to254 | 0x80) & 0x00FF ;
   \                     ??ST7579_SetLine_153:
   \   000024 6C80                  OR        A, #0x80           ;; 1 cycle
   \   000026 73                    MOV       B, A               ;; 1 cycle
   \   000027                       ; ------------------------------------- Block: 2 cycles
   \                     ??ST7579_SetLine_154:
   \   000027 5128                  MOV       A, #0x28           ;; 1 cycle
   \   000029 16                    MOVW      HL, AX             ;; 1 cycle
   \   00002A A802                  MOVW      AX, [SP+0x02]      ;; 1 cycle
   \   00002C 37                    XCHW      AX, HL             ;; 1 cycle
   \   00002D 14                    MOVW      DE, AX             ;; 1 cycle
   \   00002E AC02                  MOVW      AX, [HL+0x02]      ;; 1 cycle
   \   000030 35                    XCHW      AX, DE             ;; 1 cycle
   \   000031 C5                    PUSH      DE                 ;; 1 cycle
   \   000032 C6                    POP       HL                 ;; 1 cycle
   \   000033 14                    MOVW      DE, AX             ;; 1 cycle
   \   000034 AC02                  MOVW      AX, [HL+0x02]      ;; 1 cycle
   \   000036 35                    XCHW      AX, DE             ;; 1 cycle
   \   000037 CEFC00                MOV       CS, #0x0           ;; 1 cycle
    608                  }
    609          
    610                  /* Use Function Set 0 H[1:0]=(0,0) */
    611                  /* Original Development hardcoded this as CommandSend(0x020) */
    612                  p_gw->iCommAPI->iCommandSend(LCD_FUNCTION_ZERO) ;
   \   00003A 61EA                  CALL      DE                 ;; 3 cycles
    613                  /* Set VO range to Low if 0x04 or High if 0x05 */
    614                  /* here low would be PRS=0 and high would be PRS=1 */
    615                  if (cLowHigh == 0) p_gw->iCommAPI->iCommandSend(0x04) ;
   \   00003C AEF8                  MOVW      AX, SP             ;; 1 cycle
   \   00003E 16                    MOVW      HL, AX             ;; 1 cycle
   \   00003F 318315                BT        [HL].0, ??ST7579_SetLine_155  ;; 5 cycles
   \   000042                       ; ------------------------------------- Block: 23 cycles
   \   000042 5104                  MOV       A, #0x4            ;; 1 cycle
   \   000044 16                    MOVW      HL, AX             ;; 1 cycle
   \   000045 A802                  MOVW      AX, [SP+0x02]      ;; 1 cycle
   \   000047 37                    XCHW      AX, HL             ;; 1 cycle
   \   000048 14                    MOVW      DE, AX             ;; 1 cycle
   \   000049 AC02                  MOVW      AX, [HL+0x02]      ;; 1 cycle
   \   00004B 35                    XCHW      AX, DE             ;; 1 cycle
   \   00004C C5                    PUSH      DE                 ;; 1 cycle
   \   00004D C6                    POP       HL                 ;; 1 cycle
   \   00004E 14                    MOVW      DE, AX             ;; 1 cycle
   \   00004F AC02                  MOVW      AX, [HL+0x02]      ;; 1 cycle
   \   000051 35                    XCHW      AX, DE             ;; 1 cycle
   \   000052 CEFC00                MOV       CS, #0x0           ;; 1 cycle
   \   000055 61EA                  CALL      DE                 ;; 3 cycles
   \   000057                       ; ------------------------------------- Block: 16 cycles
    616                  if (cLowHigh == 1) p_gw->iCommAPI->iCommandSend(0x05) ;
   \                     ??ST7579_SetLine_155:
   \   000057 AEF8                  MOVW      AX, SP             ;; 1 cycle
   \   000059 16                    MOVW      HL, AX             ;; 1 cycle
   \   00005A 318515                BF        [HL].0, ??ST7579_SetLine_156  ;; 5 cycles
   \   00005D                       ; ------------------------------------- Block: 7 cycles
   \   00005D 5105                  MOV       A, #0x5            ;; 1 cycle
   \   00005F 16                    MOVW      HL, AX             ;; 1 cycle
   \   000060 A802                  MOVW      AX, [SP+0x02]      ;; 1 cycle
   \   000062 37                    XCHW      AX, HL             ;; 1 cycle
   \   000063 14                    MOVW      DE, AX             ;; 1 cycle
   \   000064 AC02                  MOVW      AX, [HL+0x02]      ;; 1 cycle
   \   000066 35                    XCHW      AX, DE             ;; 1 cycle
   \   000067 C5                    PUSH      DE                 ;; 1 cycle
   \   000068 C6                    POP       HL                 ;; 1 cycle
   \   000069 14                    MOVW      DE, AX             ;; 1 cycle
   \   00006A AC02                  MOVW      AX, [HL+0x02]      ;; 1 cycle
   \   00006C 35                    XCHW      AX, DE             ;; 1 cycle
   \   00006D CEFC00                MOV       CS, #0x0           ;; 1 cycle
   \   000070 61EA                  CALL      DE                 ;; 3 cycles
   \   000072                       ; ------------------------------------- Block: 16 cycles
    617              
    618                  /* Use Function Set 1 H[1:0]=(0,1) */
    619                  /* Original Development hardcoded this as CommandSend(0x021) */
    620                  p_gw->iCommAPI->iCommandSend(LCD_FUNCTION_ONE) ;
   \                     ??ST7579_SetLine_156:
   \   000072 5129                  MOV       A, #0x29           ;; 1 cycle
   \   000074 16                    MOVW      HL, AX             ;; 1 cycle
   \   000075 A802                  MOVW      AX, [SP+0x02]      ;; 1 cycle
   \   000077 37                    XCHW      AX, HL             ;; 1 cycle
   \   000078 14                    MOVW      DE, AX             ;; 1 cycle
   \   000079 AC02                  MOVW      AX, [HL+0x02]      ;; 1 cycle
   \   00007B 35                    XCHW      AX, DE             ;; 1 cycle
   \   00007C C5                    PUSH      DE                 ;; 1 cycle
   \   00007D C6                    POP       HL                 ;; 1 cycle
   \   00007E 14                    MOVW      DE, AX             ;; 1 cycle
   \   00007F AC02                  MOVW      AX, [HL+0x02]      ;; 1 cycle
   \   000081 35                    XCHW      AX, DE             ;; 1 cycle
   \   000082 CEFC00                MOV       CS, #0x0           ;; 1 cycle
   \   000085 61EA                  CALL      DE                 ;; 3 cycles
    621                  /* Set PRS=0 to 2.94 V or PRS=1 2.95V to 6.75V */
    622                  /* the value here can be 0 to 127 or 0x00 to 0x7F */
    623                  p_gw->iCommAPI->iCommandSend(cByteToSend) ;
   \   000087 A802                  MOVW      AX, [SP+0x02]      ;; 1 cycle
   \   000089 16                    MOVW      HL, AX             ;; 1 cycle
   \   00008A CEFC00                MOV       CS, #0x0           ;; 1 cycle
   \   00008D AC02                  MOVW      AX, [HL+0x02]      ;; 1 cycle
   \   00008F 16                    MOVW      HL, AX             ;; 1 cycle
   \   000090 AC02                  MOVW      AX, [HL+0x02]      ;; 1 cycle
   \   000092 14                    MOVW      DE, AX             ;; 1 cycle
   \   000093 63                    MOV       A, B               ;; 1 cycle
   \   000094 61EA                  CALL      DE                 ;; 3 cycles
   \   000096                       ; ------------------------------------- Block: 27 cycles
    624              }
    625          }
   \                     ??ST7579_SetLine_152:
   \   000096 1004                  ADDW      SP, #0x4           ;; 1 cycle
   \   000098 C4                    POP       DE                 ;; 1 cycle
   \   000099 D7                    RET                          ;; 6 cycles
   \   00009A                       ; ------------------------------------- Block: 8 cycles
   \   00009A                       ; ------------------------------------- Total: 127 cycles
   \   00009A                       REQUIRE ?CLRL78_V1_0_L00
    626          
    627          /******************************************************************************
    628          * ID : 41.0
    629          * Outline : ST7579_Config
    630          * Include : ST7579_LCD.h
    631          * Function Name: ST7579_Config
    632          * Description : Used to configure the LCD with preset settings.
    633          * Argument : aHandle - the Glyph handle setup by the LCD and Communications.
    634          * Return Value : none
    635          * Calling Functions : ST7579_Open
    636          ******************************************************************************/

   \                                 In  segment CODE, align 1, keep-with-next
    637          void ST7579_Config(T_glyphHandle aHandle)
   \                     ST7579_Config:
    638          {
   \   000000 C3                    PUSH      BC                 ;; 1 cycle
   \   000001 C5                    PUSH      DE                 ;; 1 cycle
   \   000002 C1                    PUSH      AX                 ;; 1 cycle
   \   000003 2004                  SUBW      SP, #0x4           ;; 1 cycle
    639              T_glyphWorkspace *p_gw = (T_glyphWorkspace *)aHandle;
    640              volatile int i = 0 ;
   \   000005 F6                    CLRW      AX                 ;; 1 cycle
   \   000006 B800                  MOVW      [SP], AX           ;; 1 cycle
    641          
    642              /* Inialize Display */
    643              ST7579_SetSystemBiasBooster(aHandle, p_gw->iLCDAPI->iContrastBoost) ;
   \   000008 A804                  MOVW      AX, [SP+0x04]      ;; 1 cycle
   \   00000A 16                    MOVW      HL, AX             ;; 1 cycle
   \   00000B AB                    MOVW      AX, [HL]           ;; 1 cycle
   \   00000C 16                    MOVW      HL, AX             ;; 1 cycle
   \   00000D 8C19                  MOV       A, [HL+0x19]       ;; 1 cycle
   \   00000F 70                    MOV       X, A               ;; 1 cycle
   \   000010 7C80                  XOR       A, #0x80           ;; 1 cycle
   \   000012 2C92                  SUB       A, #0x92           ;; 1 cycle
   \   000014 61C8                  SKC                          ;; 4 cycles
   \   000016 ED....                BR        N:??ST7579_SetLine_157  ;; 4 cycles
   \   000019                       ; ------------------------------------- Block: 18 cycles
   \   000019                       ; * Stack frame (at entry) *
   \   000019                       ; Param size: 0
   \   000019                       ; Auto size: 6
   \   000019 60                    MOV       A, X               ;; 1 cycle
   \   00001A D1                    CMP0      A                  ;; 1 cycle
   \   00001B DD75                  BZ        ??ST7579_SetLine_158  ;; 4 cycles
   \   00001D                       ; ------------------------------------- Block: 6 cycles
   \   00001D 91                    DEC       A                  ;; 1 cycle
   \   00001E DD64                  BZ        ??ST7579_SetLine_159  ;; 4 cycles
   \   000020                       ; ------------------------------------- Block: 5 cycles
   \   000020 91                    DEC       A                  ;; 1 cycle
   \   000021 DD47                  BZ        ??ST7579_SetLine_160  ;; 4 cycles
   \   000023                       ; ------------------------------------- Block: 5 cycles
   \   000023 91                    DEC       A                  ;; 1 cycle
   \   000024 DD68                  BZ        ??ST7579_SetLine_161  ;; 4 cycles
   \   000026                       ; ------------------------------------- Block: 5 cycles
   \   000026 91                    DEC       A                  ;; 1 cycle
   \   000027 DD57                  BZ        ??ST7579_SetLine_162  ;; 4 cycles
   \   000029                       ; ------------------------------------- Block: 5 cycles
   \   000029 91                    DEC       A                  ;; 1 cycle
   \   00002A DD3A                  BZ        ??ST7579_SetLine_163  ;; 4 cycles
   \   00002C                       ; ------------------------------------- Block: 5 cycles
   \   00002C 91                    DEC       A                  ;; 1 cycle
   \   00002D DD5B                  BZ        ??ST7579_SetLine_164  ;; 4 cycles
   \   00002F                       ; ------------------------------------- Block: 5 cycles
   \   00002F 91                    DEC       A                  ;; 1 cycle
   \   000030 DD4A                  BZ        ??ST7579_SetLine_165  ;; 4 cycles
   \   000032                       ; ------------------------------------- Block: 5 cycles
   \   000032 91                    DEC       A                  ;; 1 cycle
   \   000033 DD2D                  BZ        ??ST7579_SetLine_166  ;; 4 cycles
   \   000035                       ; ------------------------------------- Block: 5 cycles
   \   000035 2C02                  SUB       A, #0x2            ;; 1 cycle
   \   000037 DD3F                  BZ        ??ST7579_SetLine_167  ;; 4 cycles
   \   000039                       ; ------------------------------------- Block: 5 cycles
   \   000039 91                    DEC       A                  ;; 1 cycle
   \   00003A DD22                  BZ        ??ST7579_SetLine_168  ;; 4 cycles
   \   00003C                       ; ------------------------------------- Block: 5 cycles
   \   00003C 91                    DEC       A                  ;; 1 cycle
   \   00003D DD35                  BZ        ??ST7579_SetLine_169  ;; 4 cycles
   \   00003F                       ; ------------------------------------- Block: 5 cycles
   \   00003F 91                    DEC       A                  ;; 1 cycle
   \   000040 DD18                  BZ        ??ST7579_SetLine_170  ;; 4 cycles
   \   000042                       ; ------------------------------------- Block: 5 cycles
   \   000042 91                    DEC       A                  ;; 1 cycle
   \   000043 DD2B                  BZ        ??ST7579_SetLine_171  ;; 4 cycles
   \   000045                       ; ------------------------------------- Block: 5 cycles
   \   000045 91                    DEC       A                  ;; 1 cycle
   \   000046 DD0E                  BZ        ??ST7579_SetLine_172  ;; 4 cycles
   \   000048                       ; ------------------------------------- Block: 5 cycles
   \   000048 91                    DEC       A                  ;; 1 cycle
   \   000049 DD07                  BZ        ??ST7579_SetLine_173  ;; 4 cycles
   \   00004B                       ; ------------------------------------- Block: 5 cycles
   \   00004B 91                    DEC       A                  ;; 1 cycle
   \   00004C DF48                  BNZ       ??ST7579_SetLine_174  ;; 4 cycles
   \   00004E                       ; ------------------------------------- Block: 5 cycles
   \   00004E 5210                  MOV       C, #0x10           ;; 1 cycle
   \   000050 EF1A                  BR        S:??ST7579_SetLine_175  ;; 3 cycles
   \   000052                       ; ------------------------------------- Block: 4 cycles
   \                     ??ST7579_SetLine_173:
   \   000052 5211                  MOV       C, #0x11           ;; 1 cycle
   \   000054 EF16                  BR        S:??ST7579_SetLine_175  ;; 3 cycles
   \   000056                       ; ------------------------------------- Block: 4 cycles
   \                     ??ST7579_SetLine_172:
   \   000056 5212                  MOV       C, #0x12           ;; 1 cycle
   \   000058 EF12                  BR        S:??ST7579_SetLine_175  ;; 3 cycles
   \   00005A                       ; ------------------------------------- Block: 4 cycles
   \                     ??ST7579_SetLine_170:
   \   00005A 5213                  MOV       C, #0x13           ;; 1 cycle
   \   00005C EF0E                  BR        S:??ST7579_SetLine_175  ;; 3 cycles
   \   00005E                       ; ------------------------------------- Block: 4 cycles
   \                     ??ST7579_SetLine_168:
   \   00005E 5214                  MOV       C, #0x14           ;; 1 cycle
   \   000060 EF0A                  BR        S:??ST7579_SetLine_175  ;; 3 cycles
   \   000062                       ; ------------------------------------- Block: 4 cycles
   \                     ??ST7579_SetLine_166:
   \   000062 5215                  MOV       C, #0x15           ;; 1 cycle
   \   000064 EF06                  BR        S:??ST7579_SetLine_175  ;; 3 cycles
   \   000066                       ; ------------------------------------- Block: 4 cycles
   \                     ??ST7579_SetLine_163:
   \   000066 5216                  MOV       C, #0x16           ;; 1 cycle
   \   000068 EF02                  BR        S:??ST7579_SetLine_175  ;; 3 cycles
   \   00006A                       ; ------------------------------------- Block: 4 cycles
   \                     ??ST7579_SetLine_160:
   \   00006A 5217                  MOV       C, #0x17           ;; 1 cycle
   \   00006C                       ; ------------------------------------- Block: 1 cycles
   \                     ??ST7579_SetLine_175:
   \   00006C 539B                  MOV       B, #0x9B           ;; 1 cycle
   \   00006E EF2A                  BR        S:??ST7579_SetLine_176  ;; 3 cycles
   \   000070                       ; ------------------------------------- Block: 4 cycles
   \                     ??ST7579_SetLine_171:
   \   000070 5212                  MOV       C, #0x12           ;; 1 cycle
   \   000072 EF12                  BR        S:??ST7579_SetLine_177  ;; 3 cycles
   \   000074                       ; ------------------------------------- Block: 4 cycles
   \                     ??ST7579_SetLine_169:
   \   000074 5213                  MOV       C, #0x13           ;; 1 cycle
   \   000076 EF0E                  BR        S:??ST7579_SetLine_177  ;; 3 cycles
   \   000078                       ; ------------------------------------- Block: 4 cycles
   \                     ??ST7579_SetLine_167:
   \   000078 5214                  MOV       C, #0x14           ;; 1 cycle
   \   00007A EF0A                  BR        S:??ST7579_SetLine_177  ;; 3 cycles
   \   00007C                       ; ------------------------------------- Block: 4 cycles
   \                     ??ST7579_SetLine_165:
   \   00007C 5215                  MOV       C, #0x15           ;; 1 cycle
   \   00007E EF06                  BR        S:??ST7579_SetLine_177  ;; 3 cycles
   \   000080                       ; ------------------------------------- Block: 4 cycles
   \                     ??ST7579_SetLine_162:
   \   000080 5216                  MOV       C, #0x16           ;; 1 cycle
   \   000082 EF02                  BR        S:??ST7579_SetLine_177  ;; 3 cycles
   \   000084                       ; ------------------------------------- Block: 4 cycles
   \                     ??ST7579_SetLine_159:
   \   000084 5217                  MOV       C, #0x17           ;; 1 cycle
   \   000086                       ; ------------------------------------- Block: 1 cycles
   \                     ??ST7579_SetLine_177:
   \   000086 539A                  MOV       B, #0x9A           ;; 1 cycle
   \   000088 EF10                  BR        S:??ST7579_SetLine_176  ;; 3 cycles
   \   00008A                       ; ------------------------------------- Block: 4 cycles
   \                     ??ST7579_SetLine_164:
   \   00008A 5215                  MOV       C, #0x15           ;; 1 cycle
   \   00008C EF0A                  BR        S:??ST7579_SetLine_178  ;; 3 cycles
   \   00008E                       ; ------------------------------------- Block: 4 cycles
   \                     ??ST7579_SetLine_161:
   \   00008E 5216                  MOV       C, #0x16           ;; 1 cycle
   \   000090 EF06                  BR        S:??ST7579_SetLine_178  ;; 3 cycles
   \   000092                       ; ------------------------------------- Block: 4 cycles
   \                     ??ST7579_SetLine_158:
   \   000092 5217                  MOV       C, #0x17           ;; 1 cycle
   \   000094 EF02                  BR        S:??ST7579_SetLine_178  ;; 3 cycles
   \   000096                       ; ------------------------------------- Block: 4 cycles
   \                     ??ST7579_SetLine_174:
   \   000096 5214                  MOV       C, #0x14           ;; 1 cycle
   \   000098                       ; ------------------------------------- Block: 1 cycles
   \                     ??ST7579_SetLine_178:
   \   000098 5399                  MOV       B, #0x99           ;; 1 cycle
   \   00009A                       ; ------------------------------------- Block: 1 cycles
   \                     ??ST7579_SetLine_176:
   \   00009A A804                  MOVW      AX, [SP+0x04]      ;; 1 cycle
   \   00009C 040200                ADDW      AX, #0x2           ;; 1 cycle
   \   00009F B800                  MOVW      [SP], AX           ;; 1 cycle
   \   0000A1 5129                  MOV       A, #0x29           ;; 1 cycle
   \   0000A3 C1                    PUSH      AX                 ;; 1 cycle
   \   0000A4 CEFC00                MOV       CS, #0x0           ;; 1 cycle
   \   0000A7 A802                  MOVW      AX, [SP+0x02]      ;; 1 cycle
   \   0000A9 16                    MOVW      HL, AX             ;; 1 cycle
   \   0000AA AB                    MOVW      AX, [HL]           ;; 1 cycle
   \   0000AB 16                    MOVW      HL, AX             ;; 1 cycle
   \   0000AC AC02                  MOVW      AX, [HL+0x02]      ;; 1 cycle
   \   0000AE 14                    MOVW      DE, AX             ;; 1 cycle
   \   0000AF 8801                  MOV       A, [SP+0x01]       ;; 1 cycle
   \   0000B1 1002                  ADDW      SP, #0x2           ;; 1 cycle
   \   0000B3 61EA                  CALL      DE                 ;; 3 cycles
   \   0000B5 62                    MOV       A, C               ;; 1 cycle
   \   0000B6 16                    MOVW      HL, AX             ;; 1 cycle
   \   0000B7 A800                  MOVW      AX, [SP]           ;; 1 cycle
   \   0000B9 37                    XCHW      AX, HL             ;; 1 cycle
   \   0000BA 14                    MOVW      DE, AX             ;; 1 cycle
   \   0000BB AB                    MOVW      AX, [HL]           ;; 1 cycle
   \   0000BC 35                    XCHW      AX, DE             ;; 1 cycle
   \   0000BD C5                    PUSH      DE                 ;; 1 cycle
   \   0000BE C6                    POP       HL                 ;; 1 cycle
   \   0000BF 14                    MOVW      DE, AX             ;; 1 cycle
   \   0000C0 AC02                  MOVW      AX, [HL+0x02]      ;; 1 cycle
   \   0000C2 35                    XCHW      AX, DE             ;; 1 cycle
   \   0000C3 CEFC00                MOV       CS, #0x0           ;; 1 cycle
   \   0000C6 61EA                  CALL      DE                 ;; 3 cycles
   \   0000C8 512B                  MOV       A, #0x2B           ;; 1 cycle
   \   0000CA 16                    MOVW      HL, AX             ;; 1 cycle
   \   0000CB A800                  MOVW      AX, [SP]           ;; 1 cycle
   \   0000CD 37                    XCHW      AX, HL             ;; 1 cycle
   \   0000CE 14                    MOVW      DE, AX             ;; 1 cycle
   \   0000CF AB                    MOVW      AX, [HL]           ;; 1 cycle
   \   0000D0 35                    XCHW      AX, DE             ;; 1 cycle
   \   0000D1 C5                    PUSH      DE                 ;; 1 cycle
   \   0000D2 C6                    POP       HL                 ;; 1 cycle
   \   0000D3 14                    MOVW      DE, AX             ;; 1 cycle
   \   0000D4 AC02                  MOVW      AX, [HL+0x02]      ;; 1 cycle
   \   0000D6 35                    XCHW      AX, DE             ;; 1 cycle
   \   0000D7 CEFC00                MOV       CS, #0x0           ;; 1 cycle
   \   0000DA 61EA                  CALL      DE                 ;; 3 cycles
   \   0000DC A800                  MOVW      AX, [SP]           ;; 1 cycle
   \   0000DE 16                    MOVW      HL, AX             ;; 1 cycle
   \   0000DF CEFC00                MOV       CS, #0x0           ;; 1 cycle
   \   0000E2 AB                    MOVW      AX, [HL]           ;; 1 cycle
   \   0000E3 16                    MOVW      HL, AX             ;; 1 cycle
   \   0000E4 AC02                  MOVW      AX, [HL+0x02]      ;; 1 cycle
   \   0000E6 14                    MOVW      DE, AX             ;; 1 cycle
   \   0000E7 63                    MOV       A, B               ;; 1 cycle
   \   0000E8 61EA                  CALL      DE                 ;; 3 cycles
   \   0000EA                       ; ------------------------------------- Block: 60 cycles
    644              ST7579_SetVO_Range(aHandle, p_gw->iLCDAPI->iContrast) ;
   \                     ??ST7579_SetLine_157:
   \   0000EA A804                  MOVW      AX, [SP+0x04]      ;; 1 cycle
   \   0000EC 16                    MOVW      HL, AX             ;; 1 cycle
   \   0000ED AB                    MOVW      AX, [HL]           ;; 1 cycle
   \   0000EE 16                    MOVW      HL, AX             ;; 1 cycle
   \   0000EF 8C18                  MOV       A, [HL+0x18]       ;; 1 cycle
   \   0000F1 76                    MOV       L, A               ;; 1 cycle
   \   0000F2 81                    INC       A                  ;; 1 cycle
   \   0000F3 61F8                  SKNZ                         ;; 4 cycles
   \   0000F5 ED....                BR        N:??ST7579_SetLine_179  ;; 4 cycles
   \   0000F8                       ; ------------------------------------- Block: 11 cycles
   \   0000F8 F1                    CLRB      A                  ;; 1 cycle
   \   0000F9 9802                  MOV       [SP+0x02], A       ;; 1 cycle
   \   0000FB 66                    MOV       A, L               ;; 1 cycle
   \   0000FC 4C80                  CMP       A, #0x80           ;; 1 cycle
   \   0000FE DC0A                  BC        ??ST7579_SetLine_180  ;; 4 cycles
   \   000100                       ; ------------------------------------- Block: 8 cycles
   \   000100 0C81                  ADD       A, #0x81           ;; 1 cycle
   \   000102 6C80                  OR        A, #0x80           ;; 1 cycle
   \   000104 73                    MOV       B, A               ;; 1 cycle
   \   000105 E1                    ONEB      A                  ;; 1 cycle
   \   000106 9802                  MOV       [SP+0x02], A       ;; 1 cycle
   \   000108 EF03                  BR        S:??ST7579_SetLine_181  ;; 3 cycles
   \   00010A                       ; ------------------------------------- Block: 8 cycles
   \                     ??ST7579_SetLine_180:
   \   00010A 6C80                  OR        A, #0x80           ;; 1 cycle
   \   00010C 73                    MOV       B, A               ;; 1 cycle
   \   00010D                       ; ------------------------------------- Block: 2 cycles
   \                     ??ST7579_SetLine_181:
   \   00010D A804                  MOVW      AX, [SP+0x04]      ;; 1 cycle
   \   00010F 040200                ADDW      AX, #0x2           ;; 1 cycle
   \   000112 B800                  MOVW      [SP], AX           ;; 1 cycle
   \   000114 5128                  MOV       A, #0x28           ;; 1 cycle
   \   000116 16                    MOVW      HL, AX             ;; 1 cycle
   \   000117 A800                  MOVW      AX, [SP]           ;; 1 cycle
   \   000119 37                    XCHW      AX, HL             ;; 1 cycle
   \   00011A 14                    MOVW      DE, AX             ;; 1 cycle
   \   00011B AB                    MOVW      AX, [HL]           ;; 1 cycle
   \   00011C 35                    XCHW      AX, DE             ;; 1 cycle
   \   00011D C5                    PUSH      DE                 ;; 1 cycle
   \   00011E C6                    POP       HL                 ;; 1 cycle
   \   00011F 14                    MOVW      DE, AX             ;; 1 cycle
   \   000120 AC02                  MOVW      AX, [HL+0x02]      ;; 1 cycle
   \   000122 35                    XCHW      AX, DE             ;; 1 cycle
   \   000123 CEFC00                MOV       CS, #0x0           ;; 1 cycle
   \   000126 61EA                  CALL      DE                 ;; 3 cycles
   \   000128 AEF8                  MOVW      AX, SP             ;; 1 cycle
   \   00012A 040200                ADDW      AX, #0x2           ;; 1 cycle
   \   00012D 16                    MOVW      HL, AX             ;; 1 cycle
   \   00012E 318314                BT        [HL].0, ??ST7579_SetLine_182  ;; 5 cycles
   \   000131                       ; ------------------------------------- Block: 27 cycles
   \   000131 5104                  MOV       A, #0x4            ;; 1 cycle
   \   000133 16                    MOVW      HL, AX             ;; 1 cycle
   \   000134 A800                  MOVW      AX, [SP]           ;; 1 cycle
   \   000136 37                    XCHW      AX, HL             ;; 1 cycle
   \   000137 14                    MOVW      DE, AX             ;; 1 cycle
   \   000138 AB                    MOVW      AX, [HL]           ;; 1 cycle
   \   000139 35                    XCHW      AX, DE             ;; 1 cycle
   \   00013A C5                    PUSH      DE                 ;; 1 cycle
   \   00013B C6                    POP       HL                 ;; 1 cycle
   \   00013C 14                    MOVW      DE, AX             ;; 1 cycle
   \   00013D AC02                  MOVW      AX, [HL+0x02]      ;; 1 cycle
   \   00013F 35                    XCHW      AX, DE             ;; 1 cycle
   \   000140 CEFC00                MOV       CS, #0x0           ;; 1 cycle
   \   000143 61EA                  CALL      DE                 ;; 3 cycles
   \   000145                       ; ------------------------------------- Block: 16 cycles
   \                     ??ST7579_SetLine_182:
   \   000145 AEF8                  MOVW      AX, SP             ;; 1 cycle
   \   000147 040200                ADDW      AX, #0x2           ;; 1 cycle
   \   00014A 16                    MOVW      HL, AX             ;; 1 cycle
   \   00014B 318514                BF        [HL].0, ??ST7579_SetLine_183  ;; 5 cycles
   \   00014E                       ; ------------------------------------- Block: 8 cycles
   \   00014E 5105                  MOV       A, #0x5            ;; 1 cycle
   \   000150 16                    MOVW      HL, AX             ;; 1 cycle
   \   000151 A800                  MOVW      AX, [SP]           ;; 1 cycle
   \   000153 37                    XCHW      AX, HL             ;; 1 cycle
   \   000154 14                    MOVW      DE, AX             ;; 1 cycle
   \   000155 AB                    MOVW      AX, [HL]           ;; 1 cycle
   \   000156 35                    XCHW      AX, DE             ;; 1 cycle
   \   000157 C5                    PUSH      DE                 ;; 1 cycle
   \   000158 C6                    POP       HL                 ;; 1 cycle
   \   000159 14                    MOVW      DE, AX             ;; 1 cycle
   \   00015A AC02                  MOVW      AX, [HL+0x02]      ;; 1 cycle
   \   00015C 35                    XCHW      AX, DE             ;; 1 cycle
   \   00015D CEFC00                MOV       CS, #0x0           ;; 1 cycle
   \   000160 61EA                  CALL      DE                 ;; 3 cycles
   \   000162                       ; ------------------------------------- Block: 16 cycles
   \                     ??ST7579_SetLine_183:
   \   000162 5129                  MOV       A, #0x29           ;; 1 cycle
   \   000164 16                    MOVW      HL, AX             ;; 1 cycle
   \   000165 A800                  MOVW      AX, [SP]           ;; 1 cycle
   \   000167 37                    XCHW      AX, HL             ;; 1 cycle
   \   000168 14                    MOVW      DE, AX             ;; 1 cycle
   \   000169 AB                    MOVW      AX, [HL]           ;; 1 cycle
   \   00016A 35                    XCHW      AX, DE             ;; 1 cycle
   \   00016B C5                    PUSH      DE                 ;; 1 cycle
   \   00016C C6                    POP       HL                 ;; 1 cycle
   \   00016D 14                    MOVW      DE, AX             ;; 1 cycle
   \   00016E AC02                  MOVW      AX, [HL+0x02]      ;; 1 cycle
   \   000170 35                    XCHW      AX, DE             ;; 1 cycle
   \   000171 CEFC00                MOV       CS, #0x0           ;; 1 cycle
   \   000174 61EA                  CALL      DE                 ;; 3 cycles
   \   000176 A800                  MOVW      AX, [SP]           ;; 1 cycle
   \   000178 16                    MOVW      HL, AX             ;; 1 cycle
   \   000179 CEFC00                MOV       CS, #0x0           ;; 1 cycle
   \   00017C AB                    MOVW      AX, [HL]           ;; 1 cycle
   \   00017D 16                    MOVW      HL, AX             ;; 1 cycle
   \   00017E AC02                  MOVW      AX, [HL+0x02]      ;; 1 cycle
   \   000180 14                    MOVW      DE, AX             ;; 1 cycle
   \   000181 63                    MOV       A, B               ;; 1 cycle
   \   000182 61EA                  CALL      DE                 ;; 3 cycles
   \   000184                       ; ------------------------------------- Block: 27 cycles
    645              for (i=0;i<1000;i++){}
   \                     ??ST7579_SetLine_179:
   \   000184 F6                    CLRW      AX                 ;; 1 cycle
   \   000185 B800                  MOVW      [SP], AX           ;; 1 cycle
   \   000187 A800                  MOVW      AX, [SP]           ;; 1 cycle
   \   000189 7C80                  XOR       A, #0x80           ;; 1 cycle
   \   00018B 44E883                CMPW      AX, #0x83E8        ;; 1 cycle
   \   00018E DE2A                  BNC       ??ST7579_SetLine_184  ;; 4 cycles
   \   000190                       ; ------------------------------------- Block: 9 cycles
   \                     ??ST7579_Config_0:
   \   000190 A800                  MOVW      AX, [SP]           ;; 1 cycle
   \   000192 A1                    INCW      AX                 ;; 1 cycle
   \   000193 B800                  MOVW      [SP], AX           ;; 1 cycle
   \   000195 A800                  MOVW      AX, [SP]           ;; 1 cycle
   \   000197 7C80                  XOR       A, #0x80           ;; 1 cycle
   \   000199 44E883                CMPW      AX, #0x83E8        ;; 1 cycle
   \   00019C DE1C                  BNC       ??ST7579_SetLine_184  ;; 4 cycles
   \   00019E                       ; ------------------------------------- Block: 10 cycles
   \   00019E A800                  MOVW      AX, [SP]           ;; 1 cycle
   \   0001A0 A1                    INCW      AX                 ;; 1 cycle
   \   0001A1 B800                  MOVW      [SP], AX           ;; 1 cycle
   \   0001A3 A800                  MOVW      AX, [SP]           ;; 1 cycle
   \   0001A5 7C80                  XOR       A, #0x80           ;; 1 cycle
   \   0001A7 44E883                CMPW      AX, #0x83E8        ;; 1 cycle
   \   0001AA DE0E                  BNC       ??ST7579_SetLine_184  ;; 4 cycles
   \   0001AC                       ; ------------------------------------- Block: 10 cycles
   \   0001AC A800                  MOVW      AX, [SP]           ;; 1 cycle
   \   0001AE A1                    INCW      AX                 ;; 1 cycle
   \   0001AF B800                  MOVW      [SP], AX           ;; 1 cycle
   \   0001B1 A800                  MOVW      AX, [SP]           ;; 1 cycle
   \   0001B3 7C80                  XOR       A, #0x80           ;; 1 cycle
   \   0001B5 44E883                CMPW      AX, #0x83E8        ;; 1 cycle
   \   0001B8 DCD6                  BC        ??ST7579_Config_0  ;; 4 cycles
   \   0001BA                       ; ------------------------------------- Block: 10 cycles
    646              ST7579_SetFrameRate(aHandle, p_gw->iLCDAPI->iFrameRate) ;
   \                     ??ST7579_SetLine_184:
   \   0001BA A804                  MOVW      AX, [SP+0x04]      ;; 1 cycle
   \   0001BC 16                    MOVW      HL, AX             ;; 1 cycle
   \   0001BD CEFC00                MOV       CS, #0x0           ;; 1 cycle
   \   0001C0 AB                    MOVW      AX, [HL]           ;; 1 cycle
   \   0001C1 16                    MOVW      HL, AX             ;; 1 cycle
   \   0001C2 8C1A                  MOV       A, [HL+0x1A]       ;; 1 cycle
   \   0001C4 72                    MOV       C, A               ;; 1 cycle
   \   0001C5 A804                  MOVW      AX, [SP+0x04]      ;; 1 cycle
   \   0001C7 040200                ADDW      AX, #0x2           ;; 1 cycle
   \   0001CA B800                  MOVW      [SP], AX           ;; 1 cycle
   \   0001CC 512B                  MOV       A, #0x2B           ;; 1 cycle
   \   0001CE 16                    MOVW      HL, AX             ;; 1 cycle
   \   0001CF A800                  MOVW      AX, [SP]           ;; 1 cycle
   \   0001D1 37                    XCHW      AX, HL             ;; 1 cycle
   \   0001D2 14                    MOVW      DE, AX             ;; 1 cycle
   \   0001D3 AB                    MOVW      AX, [HL]           ;; 1 cycle
   \   0001D4 35                    XCHW      AX, DE             ;; 1 cycle
   \   0001D5 C5                    PUSH      DE                 ;; 1 cycle
   \   0001D6 C6                    POP       HL                 ;; 1 cycle
   \   0001D7 14                    MOVW      DE, AX             ;; 1 cycle
   \   0001D8 AC02                  MOVW      AX, [HL+0x02]      ;; 1 cycle
   \   0001DA 35                    XCHW      AX, DE             ;; 1 cycle
   \   0001DB 61EA                  CALL      DE                 ;; 3 cycles
   \   0001DD 62                    MOV       A, C               ;; 1 cycle
   \   0001DE 2C37                  SUB       A, #0x37           ;; 1 cycle
   \   0001E0 DD72                  BZ        ??ST7579_SetLine_185  ;; 4 cycles
   \   0001E2                       ; ------------------------------------- Block: 31 cycles
   \   0001E2 2C0A                  SUB       A, #0xA            ;; 1 cycle
   \   0001E4 DD5F                  BZ        ??ST7579_SetLine_186  ;; 4 cycles
   \   0001E6                       ; ------------------------------------- Block: 5 cycles
   \   0001E6 2C03                  SUB       A, #0x3            ;; 1 cycle
   \   0001E8 DD4C                  BZ        ??ST7579_SetLine_187  ;; 4 cycles
   \   0001EA                       ; ------------------------------------- Block: 5 cycles
   \   0001EA 2C02                  SUB       A, #0x2            ;; 1 cycle
   \   0001EC DD39                  BZ        ??ST7579_SetLine_188  ;; 4 cycles
   \   0001EE                       ; ------------------------------------- Block: 5 cycles
   \   0001EE 2C06                  SUB       A, #0x6            ;; 1 cycle
   \   0001F0 DD26                  BZ        ??ST7579_SetLine_189  ;; 4 cycles
   \   0001F2                       ; ------------------------------------- Block: 5 cycles
   \   0001F2 2C04                  SUB       A, #0x4            ;; 1 cycle
   \   0001F4 DD13                  BZ        ??ST7579_SetLine_190  ;; 4 cycles
   \   0001F6                       ; ------------------------------------- Block: 5 cycles
   \   0001F6 2C39                  SUB       A, #0x39           ;; 1 cycle
   \   0001F8 A800                  MOVW      AX, [SP]           ;; 1 cycle
   \   0001FA 16                    MOVW      HL, AX             ;; 1 cycle
   \   0001FB CEFC00                MOV       CS, #0x0           ;; 1 cycle
   \   0001FE AB                    MOVW      AX, [HL]           ;; 1 cycle
   \   0001FF 16                    MOVW      HL, AX             ;; 1 cycle
   \   000200 AC02                  MOVW      AX, [HL+0x02]      ;; 1 cycle
   \   000202 14                    MOVW      DE, AX             ;; 1 cycle
   \   000203 DF5E                  BNZ       ??ST7579_SetLine_191  ;; 4 cycles
   \   000205                       ; ------------------------------------- Block: 12 cycles
   \   000205 510F                  MOV       A, #0xF            ;; 1 cycle
   \   000207 EF5C                  BR        S:??ST7579_SetLine_192  ;; 3 cycles
   \   000209                       ; ------------------------------------- Block: 4 cycles
   \                     ??ST7579_SetLine_190:
   \   000209 A800                  MOVW      AX, [SP]           ;; 1 cycle
   \   00020B 16                    MOVW      HL, AX             ;; 1 cycle
   \   00020C CEFC00                MOV       CS, #0x0           ;; 1 cycle
   \   00020F AB                    MOVW      AX, [HL]           ;; 1 cycle
   \   000210 16                    MOVW      HL, AX             ;; 1 cycle
   \   000211 AC02                  MOVW      AX, [HL+0x02]      ;; 1 cycle
   \   000213 14                    MOVW      DE, AX             ;; 1 cycle
   \   000214 510E                  MOV       A, #0xE            ;; 1 cycle
   \   000216 EF4D                  BR        S:??ST7579_SetLine_192  ;; 3 cycles
   \   000218                       ; ------------------------------------- Block: 11 cycles
   \                     ??ST7579_SetLine_189:
   \   000218 A800                  MOVW      AX, [SP]           ;; 1 cycle
   \   00021A 16                    MOVW      HL, AX             ;; 1 cycle
   \   00021B CEFC00                MOV       CS, #0x0           ;; 1 cycle
   \   00021E AB                    MOVW      AX, [HL]           ;; 1 cycle
   \   00021F 16                    MOVW      HL, AX             ;; 1 cycle
   \   000220 AC02                  MOVW      AX, [HL+0x02]      ;; 1 cycle
   \   000222 14                    MOVW      DE, AX             ;; 1 cycle
   \   000223 510D                  MOV       A, #0xD            ;; 1 cycle
   \   000225 EF3E                  BR        S:??ST7579_SetLine_192  ;; 3 cycles
   \   000227                       ; ------------------------------------- Block: 11 cycles
   \                     ??ST7579_SetLine_188:
   \   000227 A800                  MOVW      AX, [SP]           ;; 1 cycle
   \   000229 16                    MOVW      HL, AX             ;; 1 cycle
   \   00022A CEFC00                MOV       CS, #0x0           ;; 1 cycle
   \   00022D AB                    MOVW      AX, [HL]           ;; 1 cycle
   \   00022E 16                    MOVW      HL, AX             ;; 1 cycle
   \   00022F AC02                  MOVW      AX, [HL+0x02]      ;; 1 cycle
   \   000231 14                    MOVW      DE, AX             ;; 1 cycle
   \   000232 510B                  MOV       A, #0xB            ;; 1 cycle
   \   000234 EF2F                  BR        S:??ST7579_SetLine_192  ;; 3 cycles
   \   000236                       ; ------------------------------------- Block: 11 cycles
   \                     ??ST7579_SetLine_187:
   \   000236 A800                  MOVW      AX, [SP]           ;; 1 cycle
   \   000238 16                    MOVW      HL, AX             ;; 1 cycle
   \   000239 CEFC00                MOV       CS, #0x0           ;; 1 cycle
   \   00023C AB                    MOVW      AX, [HL]           ;; 1 cycle
   \   00023D 16                    MOVW      HL, AX             ;; 1 cycle
   \   00023E AC02                  MOVW      AX, [HL+0x02]      ;; 1 cycle
   \   000240 14                    MOVW      DE, AX             ;; 1 cycle
   \   000241 510A                  MOV       A, #0xA            ;; 1 cycle
   \   000243 EF20                  BR        S:??ST7579_SetLine_192  ;; 3 cycles
   \   000245                       ; ------------------------------------- Block: 11 cycles
   \                     ??ST7579_SetLine_186:
   \   000245 A800                  MOVW      AX, [SP]           ;; 1 cycle
   \   000247 16                    MOVW      HL, AX             ;; 1 cycle
   \   000248 CEFC00                MOV       CS, #0x0           ;; 1 cycle
   \   00024B AB                    MOVW      AX, [HL]           ;; 1 cycle
   \   00024C 16                    MOVW      HL, AX             ;; 1 cycle
   \   00024D AC02                  MOVW      AX, [HL+0x02]      ;; 1 cycle
   \   00024F 14                    MOVW      DE, AX             ;; 1 cycle
   \   000250 5109                  MOV       A, #0x9            ;; 1 cycle
   \   000252 EF11                  BR        S:??ST7579_SetLine_192  ;; 3 cycles
   \   000254                       ; ------------------------------------- Block: 11 cycles
   \                     ??ST7579_SetLine_185:
   \   000254 A800                  MOVW      AX, [SP]           ;; 1 cycle
   \   000256 16                    MOVW      HL, AX             ;; 1 cycle
   \   000257 CEFC00                MOV       CS, #0x0           ;; 1 cycle
   \   00025A AB                    MOVW      AX, [HL]           ;; 1 cycle
   \   00025B 16                    MOVW      HL, AX             ;; 1 cycle
   \   00025C AC02                  MOVW      AX, [HL+0x02]      ;; 1 cycle
   \   00025E 14                    MOVW      DE, AX             ;; 1 cycle
   \   00025F 5108                  MOV       A, #0x8            ;; 1 cycle
   \   000261 EF02                  BR        S:??ST7579_SetLine_192  ;; 3 cycles
   \   000263                       ; ------------------------------------- Block: 11 cycles
   \                     ??ST7579_SetLine_191:
   \   000263 510C                  MOV       A, #0xC            ;; 1 cycle
   \   000265                       ; ------------------------------------- Block: 1 cycles
   \                     ??ST7579_SetLine_192:
   \   000265 61EA                  CALL      DE                 ;; 3 cycles
    647              
    648              ST7579_SetPage(aHandle, 0) ;
   \   000267 A800                  MOVW      AX, [SP]           ;; 1 cycle
   \   000269 16                    MOVW      HL, AX             ;; 1 cycle
   \   00026A CEFC00                MOV       CS, #0x0           ;; 1 cycle
   \   00026D AB                    MOVW      AX, [HL]           ;; 1 cycle
   \   00026E 16                    MOVW      HL, AX             ;; 1 cycle
   \   00026F AC02                  MOVW      AX, [HL+0x02]      ;; 1 cycle
   \   000271 14                    MOVW      DE, AX             ;; 1 cycle
   \   000272 5128                  MOV       A, #0x28           ;; 1 cycle
   \   000274 61EA                  CALL      DE                 ;; 3 cycles
   \   000276 A800                  MOVW      AX, [SP]           ;; 1 cycle
   \   000278 16                    MOVW      HL, AX             ;; 1 cycle
   \   000279 CEFC00                MOV       CS, #0x0           ;; 1 cycle
   \   00027C AB                    MOVW      AX, [HL]           ;; 1 cycle
   \   00027D 16                    MOVW      HL, AX             ;; 1 cycle
   \   00027E AC02                  MOVW      AX, [HL+0x02]      ;; 1 cycle
   \   000280 14                    MOVW      DE, AX             ;; 1 cycle
   \   000281 5140                  MOV       A, #0x40           ;; 1 cycle
   \   000283 61EA                  CALL      DE                 ;; 3 cycles
    649              ST7579_SetChar(aHandle, 0) ;
   \   000285 A800                  MOVW      AX, [SP]           ;; 1 cycle
   \   000287 16                    MOVW      HL, AX             ;; 1 cycle
   \   000288 CEFC00                MOV       CS, #0x0           ;; 1 cycle
   \   00028B AB                    MOVW      AX, [HL]           ;; 1 cycle
   \   00028C 16                    MOVW      HL, AX             ;; 1 cycle
   \   00028D AC02                  MOVW      AX, [HL+0x02]      ;; 1 cycle
   \   00028F 14                    MOVW      DE, AX             ;; 1 cycle
   \   000290 5128                  MOV       A, #0x28           ;; 1 cycle
   \   000292 61EA                  CALL      DE                 ;; 3 cycles
   \   000294 A800                  MOVW      AX, [SP]           ;; 1 cycle
   \   000296 16                    MOVW      HL, AX             ;; 1 cycle
   \   000297 CEFC00                MOV       CS, #0x0           ;; 1 cycle
   \   00029A AB                    MOVW      AX, [HL]           ;; 1 cycle
   \   00029B 16                    MOVW      HL, AX             ;; 1 cycle
   \   00029C AC02                  MOVW      AX, [HL+0x02]      ;; 1 cycle
   \   00029E 14                    MOVW      DE, AX             ;; 1 cycle
   \   00029F 5180                  MOV       A, #0x80           ;; 1 cycle
   \   0002A1 61EA                  CALL      DE                 ;; 3 cycles
    650          }
   \   0002A3 1006                  ADDW      SP, #0x6           ;; 1 cycle
   \   0002A5 C4                    POP       DE                 ;; 1 cycle
   \   0002A6 C2                    POP       BC                 ;; 1 cycle
   \   0002A7 D7                    RET                          ;; 6 cycles
   \   0002A8                       ; ------------------------------------- Block: 56 cycles
   \   0002A8                       ; ------------------------------------- Total: 593 cycles
   \   0002A8                       REQUIRE ?CLRL78_V1_0_L00
    651          
    652          /******************************************************************************
    653          * ID : 42.0
    654          * Outline : ST7579_Send16bitsCommand
    655          * Include : ST7579_LCD.h
    656          * Function Name: ST7579_Send16bitsCommand
    657          * Description : Send 2 commands from the same integer.  For example:
    658          *                       if you wanted to send 0x28 and then 0xD0 just send
    659          *                       0x28D0 using this command.
    660          * Argument : aHandle - the Glyph handle setup by the LCD and Communications.
    661          *          : nCommand - 2 commands to send.
    662          * Return Value : none
    663          * Calling Functions : none
    664          ******************************************************************************/

   \                                 In  segment CODE, align 1, keep-with-next
    665          void ST7579_Send16bitsCommand(T_glyphHandle aHandle, int16_t nCommand)
   \                     ST7579_Send16bitsCommand:
    666          {
   \   000000 C5                    PUSH      DE                 ;; 1 cycle
   \   000001 14                    MOVW      DE, AX             ;; 1 cycle
    667              T_glyphWorkspace *p_gw = (T_glyphWorkspace *)aHandle;
    668              int8_t cCommandOne = (int8_t)((nCommand >> 8) & 0x00FF) ;
    669              int8_t cCommandTwo = (int8_t)(nCommand & 0x00FF) ;
    670          
    671              p_gw->iCommAPI->iCommandSend(cCommandOne) ;
   \   000002 13                    MOVW      AX, BC             ;; 1 cycle
   \   000003 318F                  SARW      AX, 0x8            ;; 1 cycle
   \   000005 C3                    PUSH      BC                 ;; 1 cycle
   \   000006 60                    MOV       A, X               ;; 1 cycle
   \   000007 16                    MOVW      HL, AX             ;; 1 cycle
   \   000008 AA02                  MOVW      AX, [DE+0x02]      ;; 1 cycle
   \   00000A 37                    XCHW      AX, HL             ;; 1 cycle
   \   00000B 12                    MOVW      BC, AX             ;; 1 cycle
   \   00000C AC02                  MOVW      AX, [HL+0x02]      ;; 1 cycle
   \   00000E 33                    XCHW      AX, BC             ;; 1 cycle
   \   00000F CEFC00                MOV       CS, #0x0           ;; 1 cycle
   \   000012                       ; * Stack frame (at entry) *
   \   000012                       ; Param size: 0
   \   000012                       ; Auto size: 2
   \   000012 61DA                  CALL      BC                 ;; 3 cycles
    672              p_gw->iCommAPI->iCommandSend(cCommandTwo) ;
   \   000014 A800                  MOVW      AX, [SP]           ;; 1 cycle
   \   000016 60                    MOV       A, X               ;; 1 cycle
   \   000017 73                    MOV       B, A               ;; 1 cycle
   \   000018 AA02                  MOVW      AX, [DE+0x02]      ;; 1 cycle
   \   00001A 16                    MOVW      HL, AX             ;; 1 cycle
   \   00001B CEFC00                MOV       CS, #0x0           ;; 1 cycle
   \   00001E AC02                  MOVW      AX, [HL+0x02]      ;; 1 cycle
   \   000020 14                    MOVW      DE, AX             ;; 1 cycle
   \   000021 63                    MOV       A, B               ;; 1 cycle
   \   000022                       ; ------------------------------------- Block: 25 cycles
   \   000022                       ; ------------------------------------- Total: 25 cycles
   \   000022                       REQUIRE ?CLRL78_V1_0_L00
   \   000022                       REQUIRE ?Subroutine1
   \   000022                       ; // Fall through to label ?Subroutine1
    673          }

   \                                 In  segment CODE, align 1, keep-with-next
   \                     ?Subroutine1:
   \   000000 61EA                  CALL      DE                 ;; 3 cycles
   \   000002 1002                  ADDW      SP, #0x2           ;; 1 cycle
   \   000004 C4                    POP       DE                 ;; 1 cycle
   \   000005 D7                    RET                          ;; 6 cycles
   \   000006                       ; ------------------------------------- Block: 11 cycles
   \   000006                       ; ------------------------------------- Total: 11 cycles
   \   000006                       REQUIRE ?CLRL78_V1_0_L00
    674          
    675          /******************************************************************************
    676          * ID : 43.0
    677          * Outline : ST7579_Send8bitsData
    678          * Include : ST7579_LCD.h
    679          * Function Name: ST7579_Send8bitsData
    680          * Description : Send 8 bits of data to the LCD RAM at the current location.
    681          * Argument : aHandle - the Glyph handle setup by the LCD and Communications.
    682          *          : cData - 8 bits of data to send.
    683          * Return Value : none
    684          * Calling Functions : none
    685          ******************************************************************************/

   \                                 In  segment CODE, align 1, keep-with-next
    686          void ST7579_Send8bitsData(T_glyphHandle aHandle, int8_t cData)
   \                     ST7579_Send8bitsData:
    687          {
   \   000000 16                    MOVW      HL, AX             ;; 1 cycle
   \   000001 C5                    PUSH      DE                 ;; 1 cycle
    688              T_glyphWorkspace *p_gw = (T_glyphWorkspace *)aHandle;
    689          
    690              p_gw->iCommAPI->iDataSend(cData) ;
   \   000002 AC02                  MOVW      AX, [HL+0x02]      ;; 1 cycle
   \   000004 16                    MOVW      HL, AX             ;; 1 cycle
   \   000005 CEFC00                MOV       CS, #0x0           ;; 1 cycle
   \   000008 AC04                  MOVW      AX, [HL+0x04]      ;; 1 cycle
   \   00000A 14                    MOVW      DE, AX             ;; 1 cycle
   \   00000B 63                    MOV       A, B               ;; 1 cycle
   \   00000C                       ; * Stack frame (at entry) *
   \   00000C                       ; Param size: 0
   \   00000C                       ; Auto size: 0
   \   00000C 61EA                  CALL      DE                 ;; 3 cycles
    691          }
   \   00000E C4                    POP       DE                 ;; 1 cycle
   \   00000F D7                    RET                          ;; 6 cycles
   \   000010                       ; ------------------------------------- Block: 18 cycles
   \   000010                       ; ------------------------------------- Total: 18 cycles
   \   000010                       REQUIRE ?CLRL78_V1_0_L00
    692          
    693          /******************************************************************************
    694          * ID : 44.0
    695          * Outline : ST7579_SetFrameRate
    696          * Include : ST7579_LCD.h
    697          * Function Name: ST7579_SetFrameRate
    698          * Description : Set the Frame Rate to one of:
    699          * 55Hz
    700          * 65Hz
    701          * 68Hz
    702          * 70Hz
    703          * 73Hz
    704          * 76Hz
    705          * 80Hz
    706          * 137Hz
    707          * Currently set at 73 hertz.  Must be manually set and recompliled
    708          * Argument : aHandle - the Glyph handle setup by the LCD and Communications.
    709          *          : nRate55To137 - Frame rate to set from 55 to 137 see above
    710          * Return Value : none
    711          * Calling Functions : ST7579_Config
    712          ******************************************************************************/

   \                                 In  segment CODE, align 1, keep-with-next
    713          void ST7579_SetFrameRate(T_glyphHandle aHandle, int16_t nRate55To137)
   \                     ST7579_SetFrameRate:
    714          {
   \   000000 C5                    PUSH      DE                 ;; 1 cycle
   \   000001 14                    MOVW      DE, AX             ;; 1 cycle
    715              T_glyphWorkspace *p_gw = (T_glyphWorkspace *)aHandle;
    716          
    717              /* Use Function Set 3 H[1:0]=(1,1) */
    718              /* Original Development hardcoded this as CommandSend(0x023) */
    719              p_gw->iCommAPI->iCommandSend(LCD_FUNCTION_THREE) ;
   \   000002 A5                    INCW      DE                 ;; 1 cycle
   \   000003 A5                    INCW      DE                 ;; 1 cycle
   \   000004 C3                    PUSH      BC                 ;; 1 cycle
   \   000005 512B                  MOV       A, #0x2B           ;; 1 cycle
   \   000007 16                    MOVW      HL, AX             ;; 1 cycle
   \   000008 A9                    MOVW      AX, [DE]           ;; 1 cycle
   \   000009 37                    XCHW      AX, HL             ;; 1 cycle
   \   00000A 12                    MOVW      BC, AX             ;; 1 cycle
   \   00000B AC02                  MOVW      AX, [HL+0x02]      ;; 1 cycle
   \   00000D 33                    XCHW      AX, BC             ;; 1 cycle
   \   00000E CEFC00                MOV       CS, #0x0           ;; 1 cycle
   \   000011                       ; * Stack frame (at entry) *
   \   000011                       ; Param size: 0
   \   000011                       ; Auto size: 2
   \   000011 61DA                  CALL      BC                 ;; 3 cycles
    720          
    721              switch(nRate55To137) {
   \   000013 A800                  MOVW      AX, [SP]           ;; 1 cycle
   \   000015 243700                SUBW      AX, #0x37          ;; 1 cycle
   \   000018 DD20                  BZ        ??ST7579_SetLine_193  ;; 4 cycles
   \   00001A                       ; ------------------------------------- Block: 22 cycles
   \   00001A 240A00                SUBW      AX, #0xA           ;; 1 cycle
   \   00001D DD27                  BZ        ??ST7579_SetLine_194  ;; 4 cycles
   \   00001F                       ; ------------------------------------- Block: 5 cycles
   \   00001F 240300                SUBW      AX, #0x3           ;; 1 cycle
   \   000022 DD2E                  BZ        ??ST7579_SetLine_195  ;; 4 cycles
   \   000024                       ; ------------------------------------- Block: 5 cycles
   \   000024 240200                SUBW      AX, #0x2           ;; 1 cycle
   \   000027 DD35                  BZ        ??ST7579_SetLine_196  ;; 4 cycles
   \   000029                       ; ------------------------------------- Block: 5 cycles
   \   000029 240600                SUBW      AX, #0x6           ;; 1 cycle
   \   00002C DD3C                  BZ        ??ST7579_SetLine_197  ;; 4 cycles
   \   00002E                       ; ------------------------------------- Block: 5 cycles
   \   00002E 240400                SUBW      AX, #0x4           ;; 1 cycle
   \   000031 DD43                  BZ        ??ST7579_SetLine_198  ;; 4 cycles
   \   000033                       ; ------------------------------------- Block: 5 cycles
   \   000033 243900                SUBW      AX, #0x39          ;; 1 cycle
   \   000036 DD4A                  BZ        ??ST7579_SetLine_199  ;; 4 cycles
   \   000038                       ; ------------------------------------- Block: 5 cycles
   \   000038 EF54                  BR        S:??ST7579_SetLine_200  ;; 3 cycles
   \   00003A                       ; ------------------------------------- Block: 3 cycles
    722                  case 55:
    723                      /* Set frame rate of 55 */
    724                      p_gw->iCommAPI->iCommandSend(0x08) ;
   \                     ??ST7579_SetLine_193:
   \   00003A A9                    MOVW      AX, [DE]           ;; 1 cycle
   \   00003B 16                    MOVW      HL, AX             ;; 1 cycle
   \   00003C CEFC00                MOV       CS, #0x0           ;; 1 cycle
   \   00003F AC02                  MOVW      AX, [HL+0x02]      ;; 1 cycle
   \   000041 14                    MOVW      DE, AX             ;; 1 cycle
   \   000042 5108                  MOV       A, #0x8            ;; 1 cycle
   \   000044 EF52                  BR        S:??ST7579_SetLine_201  ;; 3 cycles
   \   000046                       ; ------------------------------------- Block: 9 cycles
    725                      break ;
    726                  case 65:
    727                      /* Set frame rate of 65 */
    728                      p_gw->iCommAPI->iCommandSend(0x09) ;
   \                     ??ST7579_SetLine_194:
   \   000046 A9                    MOVW      AX, [DE]           ;; 1 cycle
   \   000047 16                    MOVW      HL, AX             ;; 1 cycle
   \   000048 CEFC00                MOV       CS, #0x0           ;; 1 cycle
   \   00004B AC02                  MOVW      AX, [HL+0x02]      ;; 1 cycle
   \   00004D 14                    MOVW      DE, AX             ;; 1 cycle
   \   00004E 5109                  MOV       A, #0x9            ;; 1 cycle
   \   000050 EF46                  BR        S:??ST7579_SetLine_201  ;; 3 cycles
   \   000052                       ; ------------------------------------- Block: 9 cycles
    729                      break ;
    730                  case 68:
    731                      /* Set frame rate of 68 */
    732                      p_gw->iCommAPI->iCommandSend(0x0A) ;
   \                     ??ST7579_SetLine_195:
   \   000052 A9                    MOVW      AX, [DE]           ;; 1 cycle
   \   000053 16                    MOVW      HL, AX             ;; 1 cycle
   \   000054 CEFC00                MOV       CS, #0x0           ;; 1 cycle
   \   000057 AC02                  MOVW      AX, [HL+0x02]      ;; 1 cycle
   \   000059 14                    MOVW      DE, AX             ;; 1 cycle
   \   00005A 510A                  MOV       A, #0xA            ;; 1 cycle
   \   00005C EF3A                  BR        S:??ST7579_SetLine_201  ;; 3 cycles
   \   00005E                       ; ------------------------------------- Block: 9 cycles
    733                      break ;
    734                  case 70:
    735                      /* Set frame rate of 70 */
    736                      p_gw->iCommAPI->iCommandSend(0x0B) ;
   \                     ??ST7579_SetLine_196:
   \   00005E A9                    MOVW      AX, [DE]           ;; 1 cycle
   \   00005F 16                    MOVW      HL, AX             ;; 1 cycle
   \   000060 CEFC00                MOV       CS, #0x0           ;; 1 cycle
   \   000063 AC02                  MOVW      AX, [HL+0x02]      ;; 1 cycle
   \   000065 14                    MOVW      DE, AX             ;; 1 cycle
   \   000066 510B                  MOV       A, #0xB            ;; 1 cycle
   \   000068 EF2E                  BR        S:??ST7579_SetLine_201  ;; 3 cycles
   \   00006A                       ; ------------------------------------- Block: 9 cycles
    737                      break ;
    738                  case 73:
    739                      /* Set frame rate of 73(Default) */
    740                      p_gw->iCommAPI->iCommandSend(0x0C) ;
    741                      break ;
    742                  case 76:
    743                      /* Set frame rate of 76 */
    744                      p_gw->iCommAPI->iCommandSend(0x0D) ;
   \                     ??ST7579_SetLine_197:
   \   00006A A9                    MOVW      AX, [DE]           ;; 1 cycle
   \   00006B 16                    MOVW      HL, AX             ;; 1 cycle
   \   00006C CEFC00                MOV       CS, #0x0           ;; 1 cycle
   \   00006F AC02                  MOVW      AX, [HL+0x02]      ;; 1 cycle
   \   000071 14                    MOVW      DE, AX             ;; 1 cycle
   \   000072 510D                  MOV       A, #0xD            ;; 1 cycle
   \   000074 EF22                  BR        S:??ST7579_SetLine_201  ;; 3 cycles
   \   000076                       ; ------------------------------------- Block: 9 cycles
    745                      break ;
    746                  case 80:
    747                      /* Set frame rate of 80 */
    748                      p_gw->iCommAPI->iCommandSend(0x0E) ;
   \                     ??ST7579_SetLine_198:
   \   000076 A9                    MOVW      AX, [DE]           ;; 1 cycle
   \   000077 16                    MOVW      HL, AX             ;; 1 cycle
   \   000078 CEFC00                MOV       CS, #0x0           ;; 1 cycle
   \   00007B AC02                  MOVW      AX, [HL+0x02]      ;; 1 cycle
   \   00007D 14                    MOVW      DE, AX             ;; 1 cycle
   \   00007E 510E                  MOV       A, #0xE            ;; 1 cycle
   \   000080 EF16                  BR        S:??ST7579_SetLine_201  ;; 3 cycles
   \   000082                       ; ------------------------------------- Block: 9 cycles
    749                      break ;
    750                  case 137:
    751                      /* Set frame rate of 137 */
    752                      p_gw->iCommAPI->iCommandSend(0x0F) ;
   \                     ??ST7579_SetLine_199:
   \   000082 A9                    MOVW      AX, [DE]           ;; 1 cycle
   \   000083 16                    MOVW      HL, AX             ;; 1 cycle
   \   000084 CEFC00                MOV       CS, #0x0           ;; 1 cycle
   \   000087 AC02                  MOVW      AX, [HL+0x02]      ;; 1 cycle
   \   000089 14                    MOVW      DE, AX             ;; 1 cycle
   \   00008A 510F                  MOV       A, #0xF            ;; 1 cycle
   \   00008C EF0A                  BR        S:??ST7579_SetLine_201  ;; 3 cycles
   \   00008E                       ; ------------------------------------- Block: 9 cycles
    753                      break ;
    754                  default:
    755                      /* Set frame rate of 73(Default) */
    756                      p_gw->iCommAPI->iCommandSend(0x0C) ;
   \                     ??ST7579_SetLine_200:
   \   00008E A9                    MOVW      AX, [DE]           ;; 1 cycle
   \   00008F 16                    MOVW      HL, AX             ;; 1 cycle
   \   000090 CEFC00                MOV       CS, #0x0           ;; 1 cycle
   \   000093 AC02                  MOVW      AX, [HL+0x02]      ;; 1 cycle
   \   000095 14                    MOVW      DE, AX             ;; 1 cycle
   \   000096 510C                  MOV       A, #0xC            ;; 1 cycle
   \   000098                       ; ------------------------------------- Block: 6 cycles
    757              }
   \                     ??ST7579_SetLine_201:
   \   000098 ED....                BR        N:?Subroutine1     ;; 3 cycles
   \   00009B                       ; ------------------------------------- Block: 3 cycles
   \   00009B                       ; ------------------------------------- Total: 127 cycles
   \   00009B                       REQUIRE ?CLRL78_V1_0_L00
    758          }
    759          
    760          /******************************************************************************
    761          * ID : 45.0
    762          * Outline : ST7579_SetPage
    763          * Include : ST7579_LCD.h
    764          * Function Name: ST7579_SetPage
    765          * Description : Set the current page to the current set of 8 rows where:
    766          *                   page 0 is row 0 to 7
    767          *                   page 1 is row 8 to 15
    768          *                   page 2 is row 16 to 23
    769          *                   page 3 is row 24 to 31
    770          *                   page 4 is row 32 to 39
    771          *                   page 5 is row 40 to 47
    772          *                   page 6 is row 48 to 55
    773          *                   page 7 is row 56 to 63
    774          *                   page 8 is row 64, 65, 66
    775          *                   page 9 is row 67
    776          * Argument : aHandle - the Glyph handle setup by the LCD and Communications.
    777          *          : cValue0To9 - page number to set valid from 0 to 9.
    778          * Return Value : none
    779          * Calling Functions : ST7579_Write
    780          ******************************************************************************/

   \                                 In  segment CODE, align 1, keep-with-next
    781          void ST7579_SetPage(T_glyphHandle aHandle, int8_t cValue0To9)
   \                     ST7579_SetPage:
    782          {
   \   000000 C5                    PUSH      DE                 ;; 1 cycle
   \   000001 C1                    PUSH      AX                 ;; 1 cycle
    783              T_glyphWorkspace *p_gw = (T_glyphWorkspace *)aHandle;
    784              char cValueToSend = cValue0To9 | 0x40 ;
    785          
    786              if (cValue0To9 <= 9) {
   \   000002 63                    MOV       A, B               ;; 1 cycle
   \   000003 7C80                  XOR       A, #0x80           ;; 1 cycle
   \   000005 2C8A                  SUB       A, #0x8A           ;; 1 cycle
   \   000007 DE2A                  BNC       ??ST7579_SetLine_202  ;; 4 cycles
   \   000009                       ; ------------------------------------- Block: 9 cycles
   \   000009                       ; * Stack frame (at entry) *
   \   000009                       ; Param size: 0
   \   000009                       ; Auto size: 2
    787                  cValueToSend &= 0x4F ;
    788              
    789                  /* Use Function Set 0 H[1:0]=(0,0) */
    790                  /* Original Development hardcoded this as CommandSend(0x020) */
    791                  p_gw->iCommAPI->iCommandSend(LCD_FUNCTION_ZERO) ;
   \   000009 5128                  MOV       A, #0x28           ;; 1 cycle
   \   00000B 16                    MOVW      HL, AX             ;; 1 cycle
   \   00000C A800                  MOVW      AX, [SP]           ;; 1 cycle
   \   00000E 37                    XCHW      AX, HL             ;; 1 cycle
   \   00000F 14                    MOVW      DE, AX             ;; 1 cycle
   \   000010 AC02                  MOVW      AX, [HL+0x02]      ;; 1 cycle
   \   000012 35                    XCHW      AX, DE             ;; 1 cycle
   \   000013 C5                    PUSH      DE                 ;; 1 cycle
   \   000014 C6                    POP       HL                 ;; 1 cycle
   \   000015 14                    MOVW      DE, AX             ;; 1 cycle
   \   000016 AC02                  MOVW      AX, [HL+0x02]      ;; 1 cycle
   \   000018 35                    XCHW      AX, DE             ;; 1 cycle
   \   000019 CEFC00                MOV       CS, #0x0           ;; 1 cycle
   \   00001C 61EA                  CALL      DE                 ;; 3 cycles
    792                  /* Set Ram Page of 0 to 9 where 0x40 is 0 and 0x49 is nine */
    793                  p_gw->iCommAPI->iCommandSend(cValueToSend) ;
   \   00001E 63                    MOV       A, B               ;; 1 cycle
   \   00001F 5C4F                  AND       A, #0x4F           ;; 1 cycle
   \   000021 6C40                  OR        A, #0x40           ;; 1 cycle
   \   000023 73                    MOV       B, A               ;; 1 cycle
   \   000024 A800                  MOVW      AX, [SP]           ;; 1 cycle
   \   000026 16                    MOVW      HL, AX             ;; 1 cycle
   \   000027 CEFC00                MOV       CS, #0x0           ;; 1 cycle
   \   00002A AC02                  MOVW      AX, [HL+0x02]      ;; 1 cycle
   \   00002C 16                    MOVW      HL, AX             ;; 1 cycle
   \   00002D AC02                  MOVW      AX, [HL+0x02]      ;; 1 cycle
   \   00002F 14                    MOVW      DE, AX             ;; 1 cycle
   \   000030 63                    MOV       A, B               ;; 1 cycle
   \   000031 61EA                  CALL      DE                 ;; 3 cycles
   \   000033                       ; ------------------------------------- Block: 31 cycles
    794              }
    795          }
   \                     ??ST7579_SetLine_202:
   \   000033 1002                  ADDW      SP, #0x2           ;; 1 cycle
   \   000035 C4                    POP       DE                 ;; 1 cycle
   \   000036 D7                    RET                          ;; 6 cycles
   \   000037                       ; ------------------------------------- Block: 8 cycles
   \   000037                       ; ------------------------------------- Total: 48 cycles
   \   000037                       REQUIRE ?CLRL78_V1_0_L00
    796          
    797          /******************************************************************************
    798          * ID : 46.0
    799          * Outline : ST7579_SetChar
    800          * Include : ST7579_LCD.h
    801          * Function Name: ST7579_SetChar
    802          * Description : Set the current column of the current page that the next batch of
    803          * data will write to.
    804          * Argument : aHandle - the Glyph handle setup by the LCD and Communications.
    805          *          : cValue0To101 - column number to set valid from 0 to 101.
    806          * Return Value : none
    807          * Calling Functions : ST7579_Write
    808          ******************************************************************************/

   \                                 In  segment CODE, align 1, keep-with-next
    809          void ST7579_SetChar(T_glyphHandle aHandle, int8_t cValue0To101)
   \                     ST7579_SetChar:
    810          {
   \   000000 C5                    PUSH      DE                 ;; 1 cycle
   \   000001 C1                    PUSH      AX                 ;; 1 cycle
    811              T_glyphWorkspace *p_gw = (T_glyphWorkspace *)aHandle;
    812              char cValueToSend = cValue0To101 | 0x80 ;
    813              
    814              if (cValue0To101 <= 101) {
   \   000002 63                    MOV       A, B               ;; 1 cycle
   \   000003 7C80                  XOR       A, #0x80           ;; 1 cycle
   \   000005 2CE6                  SUB       A, #0xE6           ;; 1 cycle
   \   000007 DE28                  BNC       ??ST7579_SetLine_203  ;; 4 cycles
   \   000009                       ; ------------------------------------- Block: 9 cycles
   \   000009                       ; * Stack frame (at entry) *
   \   000009                       ; Param size: 0
   \   000009                       ; Auto size: 2
    815                  cValueToSend &= 0xFF ;
    816              
    817                  /* Use Function Set 0 H[1:0]=(0,0) */
    818                  /* Original Development hardcoded this as CommandSend(0x020) */
    819                  p_gw->iCommAPI->iCommandSend(LCD_FUNCTION_ZERO) ;
   \   000009 5128                  MOV       A, #0x28           ;; 1 cycle
   \   00000B 16                    MOVW      HL, AX             ;; 1 cycle
   \   00000C A800                  MOVW      AX, [SP]           ;; 1 cycle
   \   00000E 37                    XCHW      AX, HL             ;; 1 cycle
   \   00000F 14                    MOVW      DE, AX             ;; 1 cycle
   \   000010 AC02                  MOVW      AX, [HL+0x02]      ;; 1 cycle
   \   000012 35                    XCHW      AX, DE             ;; 1 cycle
   \   000013 C5                    PUSH      DE                 ;; 1 cycle
   \   000014 C6                    POP       HL                 ;; 1 cycle
   \   000015 14                    MOVW      DE, AX             ;; 1 cycle
   \   000016 AC02                  MOVW      AX, [HL+0x02]      ;; 1 cycle
   \   000018 35                    XCHW      AX, DE             ;; 1 cycle
   \   000019 CEFC00                MOV       CS, #0x0           ;; 1 cycle
   \   00001C 61EA                  CALL      DE                 ;; 3 cycles
    820                  /* Set Ram Page of 0 to 9 where 0x40 is 0 and 0x49 is nine */
    821                  p_gw->iCommAPI->iCommandSend(cValueToSend) ;
   \   00001E 63                    MOV       A, B               ;; 1 cycle
   \   00001F 6C80                  OR        A, #0x80           ;; 1 cycle
   \   000021 73                    MOV       B, A               ;; 1 cycle
   \   000022 A800                  MOVW      AX, [SP]           ;; 1 cycle
   \   000024 16                    MOVW      HL, AX             ;; 1 cycle
   \   000025 CEFC00                MOV       CS, #0x0           ;; 1 cycle
   \   000028 AC02                  MOVW      AX, [HL+0x02]      ;; 1 cycle
   \   00002A 16                    MOVW      HL, AX             ;; 1 cycle
   \   00002B AC02                  MOVW      AX, [HL+0x02]      ;; 1 cycle
   \   00002D 14                    MOVW      DE, AX             ;; 1 cycle
   \   00002E 63                    MOV       A, B               ;; 1 cycle
   \   00002F 61EA                  CALL      DE                 ;; 3 cycles
   \   000031                       ; ------------------------------------- Block: 30 cycles
    822              }
    823          }
   \                     ??ST7579_SetLine_203:
   \   000031 1002                  ADDW      SP, #0x2           ;; 1 cycle
   \   000033 C4                    POP       DE                 ;; 1 cycle
   \   000034 D7                    RET                          ;; 6 cycles
   \   000035                       ; ------------------------------------- Block: 8 cycles
   \   000035                       ; ------------------------------------- Total: 47 cycles
   \   000035                       REQUIRE ?CLRL78_V1_0_L00
    824          
    825          /******************************************************************************
    826          * ID : 47.0
    827          * Outline : ST7579_SetLine
    828          * Include : ST7579_LCD.h
    829          * Function Name: ST7579_SetLine
    830          * Description : Set the current line to become the top line of the LCD Display.
    831          * Argument : aHandle - the Glyph handle setup by the LCD and Communications.
    832          *          : cValue0To66 - line number to set valid from 0 to 66.
    833          * Return Value : none
    834          * Calling Functions : ST7579_Write
    835          ******************************************************************************/

   \                                 In  segment CODE, align 1, keep-with-next
    836          void ST7579_SetLine(T_glyphHandle aHandle, int8_t cValue0To66)
   \                     ST7579_SetLine:
    837          {
   \   000000 C3                    PUSH      BC                 ;; 1 cycle
   \   000001 C5                    PUSH      DE                 ;; 1 cycle
   \   000002 C1                    PUSH      AX                 ;; 1 cycle
   \   000003 C3                    PUSH      BC                 ;; 1 cycle
    838              T_glyphWorkspace *p_gw = (T_glyphWorkspace *)aHandle;
    839          
    840              if (cValue0To66 <= 66) {
   \   000004 8801                  MOV       A, [SP+0x01]       ;; 1 cycle
   \   000006 7C80                  XOR       A, #0x80           ;; 1 cycle
   \   000008 2CC3                  SUB       A, #0xC3           ;; 1 cycle
   \   00000A DE72                  BNC       ??ST7579_SetLine_204  ;; 4 cycles
   \   00000C                       ; ------------------------------------- Block: 11 cycles
   \   00000C                       ; * Stack frame (at entry) *
   \   00000C                       ; Param size: 0
   \   00000C                       ; Auto size: 4
    841                  int8_t cData[10] = "" ;
    842                  int8_t cValueToSendLow = 0 ;
    843                  int8_t cValueToSendHigh = 0 ;
    844              
    845                  cData[0] = 0 ;
    846                  cData[1] = 0 ;
    847                  cData[2] = 0 ;
    848                  cData[3] = 0 ;
    849                  cData[4] = 0 ;
    850                  cData[5] = 0 ;
    851                  cData[6] = 0 ;
    852              
    853                  /*  binary 1111 1111 becomes 0000 0001 */
    854                  cData[0] = 0x01 & cValue0To66 ;
    855                  /*  binary 1111 1111 becomes 0000 0010 */
    856                  cData[1] = 0x02 & cValue0To66 ;
    857                  /*  binary 1111 1111 becomes 0000 0100 */
    858                  cData[2] = 0x04 & cValue0To66 ;
    859                  /*  binary 1111 1111 becomes 0000 1000 */
    860                  cData[3] = 0x08 & cValue0To66 ;
    861                  /* binary 1111 1111 becomes 0001 0000 */
    862                  cData[4] = 0x010 & cValue0To66 ;
    863                  /* binary 1111 1111 becomes 0010 0000 */
    864                  cData[5] = 0x020 & cValue0To66 ;
    865                  /* binary 1111 1111 becomes 0100 0000 */
    866                  cData[6] = 0x040 & cValue0To66 ;
    867              
    868                  /* binary 10 becomes binary 1 */
    869                  cData[1] = cData[1] >> 1 ;
    870                  /* binary 100 becomes binary 1 */
    871                  cData[2] = cData[2] >> 2 ;
    872                  /* binary 1000 becomes binary 1 */
    873                  cData[3] = cData[3] >> 3 ;
    874                  /* binary 1 0000 becomes binary 1 */
    875                  cData[4] = cData[4] >> 4 ;
    876                  /* binary 10 0000 becomes binary 1 */
    877                  cData[5] = cData[5] >> 5 ;
    878                  /* binary 100 0000 becomes binary 1 */
    879                  cData[6] = cData[6] >> 6 ;
    880              
    881                  cValueToSendLow = cData[6] | 0x04 ;
    882                  cValueToSendHigh = cData[0] | cData[1] | cData[2] | cData[3] | cData[4] | cData[5] | 0x040 ;
    883          
    884                  /* Use Function Set 1 H[1:0]=(0,1) */
    885                  /* Original Development hardcoded this as CommandSend(0x021) */
    886                  p_gw->iCommAPI->iCommandSend(LCD_FUNCTION_ONE) ;
   \   00000C A802                  MOVW      AX, [SP+0x02]      ;; 1 cycle
   \   00000E 16                    MOVW      HL, AX             ;; 1 cycle
   \   00000F CEFC00                MOV       CS, #0x0           ;; 1 cycle
   \   000012 AC02                  MOVW      AX, [HL+0x02]      ;; 1 cycle
   \   000014 16                    MOVW      HL, AX             ;; 1 cycle
   \   000015 AC02                  MOVW      AX, [HL+0x02]      ;; 1 cycle
   \   000017 14                    MOVW      DE, AX             ;; 1 cycle
   \   000018 5129                  MOV       A, #0x29           ;; 1 cycle
   \   00001A 61EA                  CALL      DE                 ;; 3 cycles
    887          
    888                  /* Set Ram Start Line of 0 to 66 using a high and low value and two command sends */
    889                  p_gw->iCommAPI->iCommandSend(cValueToSendHigh) ;
   \   00001C FBF8FF                MOVW      HL, SP             ;; 1 cycle
   \   00001F A7                    INCW      HL                 ;; 1 cycle
   \   000020 F1                    CLRB      A                  ;; 1 cycle
   \   000021 71D4                  MOV1      CY, [HL].5         ;; 1 cycle
   \   000023 6131                  SUBC      A, A               ;; 1 cycle
   \   000025 73                    MOV       B, A               ;; 1 cycle
   \   000026 F1                    CLRB      A                  ;; 1 cycle
   \   000027 71C4                  MOV1      CY, [HL].4         ;; 1 cycle
   \   000029 6131                  SUBC      A, A               ;; 1 cycle
   \   00002B 72                    MOV       C, A               ;; 1 cycle
   \   00002C F1                    CLRB      A                  ;; 1 cycle
   \   00002D 71B4                  MOV1      CY, [HL].3         ;; 1 cycle
   \   00002F 6131                  SUBC      A, A               ;; 1 cycle
   \   000031 75                    MOV       D, A               ;; 1 cycle
   \   000032 F1                    CLRB      A                  ;; 1 cycle
   \   000033 71A4                  MOV1      CY, [HL].2         ;; 1 cycle
   \   000035 6131                  SUBC      A, A               ;; 1 cycle
   \   000037 70                    MOV       X, A               ;; 1 cycle
   \   000038 16                    MOVW      HL, AX             ;; 1 cycle
   \   000039 AEF8                  MOVW      AX, SP             ;; 1 cycle
   \   00003B A1                    INCW      AX                 ;; 1 cycle
   \   00003C 37                    XCHW      AX, HL             ;; 1 cycle
   \   00003D F1                    CLRB      A                  ;; 1 cycle
   \   00003E 7194                  MOV1      CY, [HL].1         ;; 1 cycle
   \   000040 6131                  SUBC      A, A               ;; 1 cycle
   \   000042 74                    MOV       E, A               ;; 1 cycle
   \   000043 8801                  MOV       A, [SP+0x01]       ;; 1 cycle
   \   000045 616C                  OR        A, E               ;; 1 cycle
   \   000047 6168                  OR        A, X               ;; 1 cycle
   \   000049 616D                  OR        A, D               ;; 1 cycle
   \   00004B 616A                  OR        A, C               ;; 1 cycle
   \   00004D 616B                  OR        A, B               ;; 1 cycle
   \   00004F 5C01                  AND       A, #0x1            ;; 1 cycle
   \   000051 6C40                  OR        A, #0x40           ;; 1 cycle
   \   000053 73                    MOV       B, A               ;; 1 cycle
   \   000054 A802                  MOVW      AX, [SP+0x02]      ;; 1 cycle
   \   000056 16                    MOVW      HL, AX             ;; 1 cycle
   \   000057 CEFC00                MOV       CS, #0x0           ;; 1 cycle
   \   00005A AC02                  MOVW      AX, [HL+0x02]      ;; 1 cycle
   \   00005C 16                    MOVW      HL, AX             ;; 1 cycle
   \   00005D AC02                  MOVW      AX, [HL+0x02]      ;; 1 cycle
   \   00005F 14                    MOVW      DE, AX             ;; 1 cycle
   \   000060 63                    MOV       A, B               ;; 1 cycle
   \   000061 61EA                  CALL      DE                 ;; 3 cycles
    890                  p_gw->iCommAPI->iCommandSend(cValueToSendLow) ;
   \   000063 FBF8FF                MOVW      HL, SP             ;; 1 cycle
   \   000066 A7                    INCW      HL                 ;; 1 cycle
   \   000067 F1                    CLRB      A                  ;; 1 cycle
   \   000068 71E4                  MOV1      CY, [HL].6         ;; 1 cycle
   \   00006A 61DC                  ROLC      A, 0x1             ;; 1 cycle
   \   00006C 6C04                  OR        A, #0x4            ;; 1 cycle
   \   00006E 73                    MOV       B, A               ;; 1 cycle
   \   00006F A802                  MOVW      AX, [SP+0x02]      ;; 1 cycle
   \   000071 16                    MOVW      HL, AX             ;; 1 cycle
   \   000072 CEFC00                MOV       CS, #0x0           ;; 1 cycle
   \   000075 AC02                  MOVW      AX, [HL+0x02]      ;; 1 cycle
   \   000077 16                    MOVW      HL, AX             ;; 1 cycle
   \   000078 AC02                  MOVW      AX, [HL+0x02]      ;; 1 cycle
   \   00007A 14                    MOVW      DE, AX             ;; 1 cycle
   \   00007B 63                    MOV       A, B               ;; 1 cycle
   \   00007C 61EA                  CALL      DE                 ;; 3 cycles
   \   00007E                       ; ------------------------------------- Block: 75 cycles
    891              }
    892          }
   \                     ??ST7579_SetLine_204:
   \   00007E 1004                  ADDW      SP, #0x4           ;; 1 cycle
   \   000080 C4                    POP       DE                 ;; 1 cycle
   \   000081 C2                    POP       BC                 ;; 1 cycle
   \   000082 D7                    RET                          ;; 6 cycles
   \   000083                       ; ------------------------------------- Block: 9 cycles
   \   000083                       ; ------------------------------------- Total: 95 cycles
   \   000083                       REQUIRE ?CLRL78_V1_0_L00
    893          
    894          

   Maximum stack usage in bytes:

   CSTACK Function
   ------ --------
      0   ST7579_Close
     12   ST7579_Config
       10   -- Indirect call
     10   ST7579_Open
        8   -- Indirect call
      4   ST7579_Read
      4   ST7579_Send16bitsCommand
        4   -- Indirect call
      2   ST7579_Send8bitsData
        2   -- Indirect call
      4   ST7579_SetChar
        4   -- Indirect call
      4   ST7579_SetFrameRate
        4   -- Indirect call
      8   ST7579_SetLine
        8   -- Indirect call
      4   ST7579_SetPage
        4   -- Indirect call
      8   ST7579_SetSystemBiasBooster
        6   -- Indirect call
      6   ST7579_SetVO_Range
        6   -- Indirect call
     14   ST7579_Write
       12   -- Indirect call


   Segment part sizes:

   Bytes  Function/Label
   -----  --------------
       7  ?Subroutine0
       6  ?Subroutine1
       2  ST7579_Close
     680  ST7579_Config
     790  ST7579_Open
     241  ST7579_Read
      34  ST7579_Send16bitsCommand
      16  ST7579_Send8bitsData
      53  ST7579_SetChar
     155  ST7579_SetFrameRate
     131  ST7579_SetLine
      55  ST7579_SetPage
     226  ST7579_SetSystemBiasBooster
     154  ST7579_SetVO_Range
    2586  ST7579_Write

 
 5 136 bytes in segment CODE
 
 5 136 bytes of CODE memory

Errors: none
Warnings: none
